
debug/codegen_gcc:     file format elf32-littleriscv


Disassembly of section .text:

00010094 <_start>:
   10094:	004a0117          	auipc	sp,0x4a0
   10098:	57c10113          	addi	sp,sp,1404 # 4b0610 <__BSS_END__>
   1009c:	00021517          	auipc	a0,0x21
   100a0:	57450513          	addi	a0,a0,1396 # 31610 <__arena>
   100a4:	00021597          	auipc	a1,0x21
   100a8:	40c58593          	addi	a1,a1,1036 # 314b0 <__pool_sizes>
   100ac:	00021617          	auipc	a2,0x21
   100b0:	44860613          	addi	a2,a2,1096 # 314f4 <__pool_counts>
   100b4:	00021697          	auipc	a3,0x21
   100b8:	48c68693          	addi	a3,a3,1164 # 31540 <__bss_start>
   100bc:	00021717          	auipc	a4,0x21
   100c0:	4c870713          	addi	a4,a4,1224 # 31584 <__pool_base>
   100c4:	00021797          	auipc	a5,0x21
   100c8:	50478793          	addi	a5,a5,1284 # 315c8 <__pool_end>
   100cc:	00021817          	auipc	a6,0x21
   100d0:	54080813          	addi	a6,a6,1344 # 3160c <__pools_ready>
   100d4:	00000097          	auipc	ra,0x0
   100d8:	264080e7          	jalr	612(ra) # 10338 <__runtime_init__u32__u32__u32__u32__u32__u32__u32>
   100dc:	0001f097          	auipc	ra,0x1f
   100e0:	018080e7          	jalr	24(ra) # 2f0f4 <main>
   100e4:	05d00893          	li	a7,93
   100e8:	00000073          	ecall
   100ec:	0000006f          	j	100ec <_start+0x58>

000100f0 <do_write__i32__u32__i32>:
   100f0:	04000893          	li	a7,64
   100f4:	00000073          	ecall
   100f8:	00008067          	ret

000100fc <do_read__i32__u32__i32>:
   100fc:	03f00893          	li	a7,63
   10100:	00000073          	ecall
   10104:	00008067          	ret

00010108 <do_exit__i32>:
   10108:	05d00893          	li	a7,93
   1010c:	00000073          	ecall
   10110:	00008067          	ret

00010114 <peek8__u32>:
   10114:	00054503          	lbu	a0,0(a0)
   10118:	00008067          	ret

0001011c <peek16__u32>:
   1011c:	00055503          	lhu	a0,0(a0)
   10120:	00008067          	ret

00010124 <peek32__u32>:
   10124:	00052503          	lw	a0,0(a0)
   10128:	00008067          	ret

0001012c <poke8__u32__u8>:
   1012c:	00b50023          	sb	a1,0(a0)
   10130:	00008067          	ret

00010134 <poke16__u32__u16>:
   10134:	00b51023          	sh	a1,0(a0)
   10138:	00008067          	ret

0001013c <poke32__u32__u32>:
   1013c:	00b52023          	sw	a1,0(a0)
   10140:	00008067          	ret

00010144 <ps_get__u32__i32>:
   10144:	fe010113          	addi	sp,sp,-32
   10148:	00112e23          	sw	ra,28(sp)
   1014c:	00812c23          	sw	s0,24(sp)
   10150:	02010413          	addi	s0,sp,32
   10154:	fea42a23          	sw	a0,-12(s0)
   10158:	feb42823          	sw	a1,-16(s0)
   1015c:	ff442283          	lw	t0,-12(s0)
   10160:	ffc10113          	addi	sp,sp,-4
   10164:	00512023          	sw	t0,0(sp)
   10168:	ff042283          	lw	t0,-16(s0)
   1016c:	ffc10113          	addi	sp,sp,-4
   10170:	00512023          	sw	t0,0(sp)
   10174:	00400293          	li	t0,4
   10178:	ffc10113          	addi	sp,sp,-4
   1017c:	00512023          	sw	t0,0(sp)
   10180:	00012303          	lw	t1,0(sp)
   10184:	00412283          	lw	t0,4(sp)
   10188:	00810113          	addi	sp,sp,8
   1018c:	026282b3          	mul	t0,t0,t1
   10190:	ffc10113          	addi	sp,sp,-4
   10194:	00512023          	sw	t0,0(sp)
   10198:	00012283          	lw	t0,0(sp)
   1019c:	00410113          	addi	sp,sp,4
   101a0:	ffc10113          	addi	sp,sp,-4
   101a4:	00512023          	sw	t0,0(sp)
   101a8:	00012303          	lw	t1,0(sp)
   101ac:	00412283          	lw	t0,4(sp)
   101b0:	00810113          	addi	sp,sp,8
   101b4:	006282b3          	add	t0,t0,t1
   101b8:	ffc10113          	addi	sp,sp,-4
   101bc:	00512023          	sw	t0,0(sp)
   101c0:	00012503          	lw	a0,0(sp)
   101c4:	00000097          	auipc	ra,0x0
   101c8:	f60080e7          	jalr	-160(ra) # 10124 <peek32__u32>
   101cc:	00410113          	addi	sp,sp,4
   101d0:	ffc10113          	addi	sp,sp,-4
   101d4:	00a12023          	sw	a0,0(sp)
   101d8:	00012283          	lw	t0,0(sp)
   101dc:	00410113          	addi	sp,sp,4
   101e0:	ffc10113          	addi	sp,sp,-4
   101e4:	00512023          	sw	t0,0(sp)
   101e8:	00012283          	lw	t0,0(sp)
   101ec:	00410113          	addi	sp,sp,4
   101f0:	00028513          	mv	a0,t0
   101f4:	00040293          	mv	t0,s0
   101f8:	ffc2a083          	lw	ra,-4(t0)
   101fc:	ff82a403          	lw	s0,-8(t0)
   10200:	00028113          	mv	sp,t0
   10204:	00008067          	ret
   10208:	00040293          	mv	t0,s0
   1020c:	ffc2a083          	lw	ra,-4(t0)
   10210:	ff82a403          	lw	s0,-8(t0)
   10214:	00028113          	mv	sp,t0
   10218:	00008067          	ret

0001021c <ps_set__u32__i32__i32>:
   1021c:	fe010113          	addi	sp,sp,-32
   10220:	00112e23          	sw	ra,28(sp)
   10224:	00812c23          	sw	s0,24(sp)
   10228:	02010413          	addi	s0,sp,32
   1022c:	fea42a23          	sw	a0,-12(s0)
   10230:	feb42823          	sw	a1,-16(s0)
   10234:	fec42623          	sw	a2,-20(s0)
   10238:	ff442283          	lw	t0,-12(s0)
   1023c:	ffc10113          	addi	sp,sp,-4
   10240:	00512023          	sw	t0,0(sp)
   10244:	ff042283          	lw	t0,-16(s0)
   10248:	ffc10113          	addi	sp,sp,-4
   1024c:	00512023          	sw	t0,0(sp)
   10250:	00400293          	li	t0,4
   10254:	ffc10113          	addi	sp,sp,-4
   10258:	00512023          	sw	t0,0(sp)
   1025c:	00012303          	lw	t1,0(sp)
   10260:	00412283          	lw	t0,4(sp)
   10264:	00810113          	addi	sp,sp,8
   10268:	026282b3          	mul	t0,t0,t1
   1026c:	ffc10113          	addi	sp,sp,-4
   10270:	00512023          	sw	t0,0(sp)
   10274:	00012283          	lw	t0,0(sp)
   10278:	00410113          	addi	sp,sp,4
   1027c:	ffc10113          	addi	sp,sp,-4
   10280:	00512023          	sw	t0,0(sp)
   10284:	00012303          	lw	t1,0(sp)
   10288:	00412283          	lw	t0,4(sp)
   1028c:	00810113          	addi	sp,sp,8
   10290:	006282b3          	add	t0,t0,t1
   10294:	ffc10113          	addi	sp,sp,-4
   10298:	00512023          	sw	t0,0(sp)
   1029c:	fec42283          	lw	t0,-20(s0)
   102a0:	ffc10113          	addi	sp,sp,-4
   102a4:	00512023          	sw	t0,0(sp)
   102a8:	00012283          	lw	t0,0(sp)
   102ac:	00410113          	addi	sp,sp,4
   102b0:	ffc10113          	addi	sp,sp,-4
   102b4:	00512023          	sw	t0,0(sp)
   102b8:	00412503          	lw	a0,4(sp)
   102bc:	00012583          	lw	a1,0(sp)
   102c0:	00000097          	auipc	ra,0x0
   102c4:	e7c080e7          	jalr	-388(ra) # 1013c <poke32__u32__u32>
   102c8:	00810113          	addi	sp,sp,8
   102cc:	ffc10113          	addi	sp,sp,-4
   102d0:	00a12023          	sw	a0,0(sp)
   102d4:	00410113          	addi	sp,sp,4
   102d8:	00040293          	mv	t0,s0
   102dc:	ffc2a083          	lw	ra,-4(t0)
   102e0:	ff82a403          	lw	s0,-8(t0)
   102e4:	00028113          	mv	sp,t0
   102e8:	00008067          	ret
   102ec:	00040293          	mv	t0,s0
   102f0:	ffc2a083          	lw	ra,-4(t0)
   102f4:	ff82a403          	lw	s0,-8(t0)
   102f8:	00028113          	mv	sp,t0
   102fc:	00008067          	ret

00010300 <pool_init>:
   10300:	ff010113          	addi	sp,sp,-16
   10304:	00112623          	sw	ra,12(sp)
   10308:	00812423          	sw	s0,8(sp)
   1030c:	01010413          	addi	s0,sp,16
   10310:	00040293          	mv	t0,s0
   10314:	ffc2a083          	lw	ra,-4(t0)
   10318:	ff82a403          	lw	s0,-8(t0)
   1031c:	00028113          	mv	sp,t0
   10320:	00008067          	ret
   10324:	00040293          	mv	t0,s0
   10328:	ffc2a083          	lw	ra,-4(t0)
   1032c:	ff82a403          	lw	s0,-8(t0)
   10330:	00028113          	mv	sp,t0
   10334:	00008067          	ret

00010338 <__runtime_init__u32__u32__u32__u32__u32__u32__u32>:
   10338:	fb010113          	addi	sp,sp,-80
   1033c:	04112623          	sw	ra,76(sp)
   10340:	04812423          	sw	s0,72(sp)
   10344:	05010413          	addi	s0,sp,80
   10348:	fea42a23          	sw	a0,-12(s0)
   1034c:	feb42823          	sw	a1,-16(s0)
   10350:	fec42623          	sw	a2,-20(s0)
   10354:	fed42423          	sw	a3,-24(s0)
   10358:	fee42223          	sw	a4,-28(s0)
   1035c:	fef42023          	sw	a5,-32(s0)
   10360:	fd042e23          	sw	a6,-36(s0)
   10364:	fc042c23          	sw	zero,-40(s0)
   10368:	fc042a23          	sw	zero,-44(s0)
   1036c:	fc042823          	sw	zero,-48(s0)
   10370:	fc042623          	sw	zero,-52(s0)
   10374:	fc042423          	sw	zero,-56(s0)
   10378:	ff442283          	lw	t0,-12(s0)
   1037c:	ffc10113          	addi	sp,sp,-4
   10380:	00512023          	sw	t0,0(sp)
   10384:	00012283          	lw	t0,0(sp)
   10388:	00410113          	addi	sp,sp,4
   1038c:	00021317          	auipc	t1,0x21
   10390:	09030313          	addi	t1,t1,144 # 3141c <g_arena_addr>
   10394:	00532023          	sw	t0,0(t1)
   10398:	ff042283          	lw	t0,-16(s0)
   1039c:	ffc10113          	addi	sp,sp,-4
   103a0:	00512023          	sw	t0,0(sp)
   103a4:	00012283          	lw	t0,0(sp)
   103a8:	00410113          	addi	sp,sp,4
   103ac:	00021317          	auipc	t1,0x21
   103b0:	05830313          	addi	t1,t1,88 # 31404 <g_pool_sizes_addr>
   103b4:	00532023          	sw	t0,0(t1)
   103b8:	fec42283          	lw	t0,-20(s0)
   103bc:	ffc10113          	addi	sp,sp,-4
   103c0:	00512023          	sw	t0,0(sp)
   103c4:	00012283          	lw	t0,0(sp)
   103c8:	00410113          	addi	sp,sp,4
   103cc:	00021317          	auipc	t1,0x21
   103d0:	03c30313          	addi	t1,t1,60 # 31408 <g_pool_counts_addr>
   103d4:	00532023          	sw	t0,0(t1)
   103d8:	fe842283          	lw	t0,-24(s0)
   103dc:	ffc10113          	addi	sp,sp,-4
   103e0:	00512023          	sw	t0,0(sp)
   103e4:	00012283          	lw	t0,0(sp)
   103e8:	00410113          	addi	sp,sp,4
   103ec:	00021317          	auipc	t1,0x21
   103f0:	02030313          	addi	t1,t1,32 # 3140c <g_pool_free_addr>
   103f4:	00532023          	sw	t0,0(t1)
   103f8:	fe442283          	lw	t0,-28(s0)
   103fc:	ffc10113          	addi	sp,sp,-4
   10400:	00512023          	sw	t0,0(sp)
   10404:	00012283          	lw	t0,0(sp)
   10408:	00410113          	addi	sp,sp,4
   1040c:	00021317          	auipc	t1,0x21
   10410:	00430313          	addi	t1,t1,4 # 31410 <g_pool_base_addr>
   10414:	00532023          	sw	t0,0(t1)
   10418:	fe042283          	lw	t0,-32(s0)
   1041c:	ffc10113          	addi	sp,sp,-4
   10420:	00512023          	sw	t0,0(sp)
   10424:	00012283          	lw	t0,0(sp)
   10428:	00410113          	addi	sp,sp,4
   1042c:	00021317          	auipc	t1,0x21
   10430:	fe830313          	addi	t1,t1,-24 # 31414 <g_pool_end_addr>
   10434:	00532023          	sw	t0,0(t1)
   10438:	fdc42283          	lw	t0,-36(s0)
   1043c:	ffc10113          	addi	sp,sp,-4
   10440:	00512023          	sw	t0,0(sp)
   10444:	00012283          	lw	t0,0(sp)
   10448:	00410113          	addi	sp,sp,4
   1044c:	00021317          	auipc	t1,0x21
   10450:	fcc30313          	addi	t1,t1,-52 # 31418 <g_pools_ready_addr>
   10454:	00532023          	sw	t0,0(t1)
   10458:	ff442283          	lw	t0,-12(s0)
   1045c:	ffc10113          	addi	sp,sp,-4
   10460:	00512023          	sw	t0,0(sp)
   10464:	00012283          	lw	t0,0(sp)
   10468:	00410113          	addi	sp,sp,4
   1046c:	fc542c23          	sw	t0,-40(s0)
   10470:	00000293          	li	t0,0
   10474:	ffc10113          	addi	sp,sp,-4
   10478:	00512023          	sw	t0,0(sp)
   1047c:	00012283          	lw	t0,0(sp)
   10480:	00410113          	addi	sp,sp,4
   10484:	fc542a23          	sw	t0,-44(s0)
   10488:	fd442283          	lw	t0,-44(s0)
   1048c:	ffc10113          	addi	sp,sp,-4
   10490:	00512023          	sw	t0,0(sp)
   10494:	00021317          	auipc	t1,0x21
   10498:	f6c30313          	addi	t1,t1,-148 # 31400 <NPOOLS>
   1049c:	00032283          	lw	t0,0(t1)
   104a0:	ffc10113          	addi	sp,sp,-4
   104a4:	00512023          	sw	t0,0(sp)
   104a8:	00012303          	lw	t1,0(sp)
   104ac:	00412283          	lw	t0,4(sp)
   104b0:	00810113          	addi	sp,sp,8
   104b4:	0062a2b3          	slt	t0,t0,t1
   104b8:	ffc10113          	addi	sp,sp,-4
   104bc:	00512023          	sw	t0,0(sp)
   104c0:	00012283          	lw	t0,0(sp)
   104c4:	00410113          	addi	sp,sp,4
   104c8:	3c028063          	beqz	t0,10888 <__runtime_init__u32__u32__u32__u32__u32__u32__u32+0x550>
   104cc:	ff042283          	lw	t0,-16(s0)
   104d0:	ffc10113          	addi	sp,sp,-4
   104d4:	00512023          	sw	t0,0(sp)
   104d8:	fd442283          	lw	t0,-44(s0)
   104dc:	ffc10113          	addi	sp,sp,-4
   104e0:	00512023          	sw	t0,0(sp)
   104e4:	00412503          	lw	a0,4(sp)
   104e8:	00012583          	lw	a1,0(sp)
   104ec:	00000097          	auipc	ra,0x0
   104f0:	c58080e7          	jalr	-936(ra) # 10144 <ps_get__u32__i32>
   104f4:	00810113          	addi	sp,sp,8
   104f8:	ffc10113          	addi	sp,sp,-4
   104fc:	00a12023          	sw	a0,0(sp)
   10500:	00012283          	lw	t0,0(sp)
   10504:	00410113          	addi	sp,sp,4
   10508:	fc542823          	sw	t0,-48(s0)
   1050c:	fec42283          	lw	t0,-20(s0)
   10510:	ffc10113          	addi	sp,sp,-4
   10514:	00512023          	sw	t0,0(sp)
   10518:	fd442283          	lw	t0,-44(s0)
   1051c:	ffc10113          	addi	sp,sp,-4
   10520:	00512023          	sw	t0,0(sp)
   10524:	00412503          	lw	a0,4(sp)
   10528:	00012583          	lw	a1,0(sp)
   1052c:	00000097          	auipc	ra,0x0
   10530:	c18080e7          	jalr	-1000(ra) # 10144 <ps_get__u32__i32>
   10534:	00810113          	addi	sp,sp,8
   10538:	ffc10113          	addi	sp,sp,-4
   1053c:	00a12023          	sw	a0,0(sp)
   10540:	00012283          	lw	t0,0(sp)
   10544:	00410113          	addi	sp,sp,4
   10548:	fc542623          	sw	t0,-52(s0)
   1054c:	fe442283          	lw	t0,-28(s0)
   10550:	ffc10113          	addi	sp,sp,-4
   10554:	00512023          	sw	t0,0(sp)
   10558:	fd442283          	lw	t0,-44(s0)
   1055c:	ffc10113          	addi	sp,sp,-4
   10560:	00512023          	sw	t0,0(sp)
   10564:	fd842283          	lw	t0,-40(s0)
   10568:	ffc10113          	addi	sp,sp,-4
   1056c:	00512023          	sw	t0,0(sp)
   10570:	00012283          	lw	t0,0(sp)
   10574:	00410113          	addi	sp,sp,4
   10578:	ffc10113          	addi	sp,sp,-4
   1057c:	00512023          	sw	t0,0(sp)
   10580:	00812503          	lw	a0,8(sp)
   10584:	00412583          	lw	a1,4(sp)
   10588:	00012603          	lw	a2,0(sp)
   1058c:	00000097          	auipc	ra,0x0
   10590:	c90080e7          	jalr	-880(ra) # 1021c <ps_set__u32__i32__i32>
   10594:	00c10113          	addi	sp,sp,12
   10598:	ffc10113          	addi	sp,sp,-4
   1059c:	00a12023          	sw	a0,0(sp)
   105a0:	00410113          	addi	sp,sp,4
   105a4:	fe842283          	lw	t0,-24(s0)
   105a8:	ffc10113          	addi	sp,sp,-4
   105ac:	00512023          	sw	t0,0(sp)
   105b0:	fd442283          	lw	t0,-44(s0)
   105b4:	ffc10113          	addi	sp,sp,-4
   105b8:	00512023          	sw	t0,0(sp)
   105bc:	fd842283          	lw	t0,-40(s0)
   105c0:	ffc10113          	addi	sp,sp,-4
   105c4:	00512023          	sw	t0,0(sp)
   105c8:	00012283          	lw	t0,0(sp)
   105cc:	00410113          	addi	sp,sp,4
   105d0:	ffc10113          	addi	sp,sp,-4
   105d4:	00512023          	sw	t0,0(sp)
   105d8:	00812503          	lw	a0,8(sp)
   105dc:	00412583          	lw	a1,4(sp)
   105e0:	00012603          	lw	a2,0(sp)
   105e4:	00000097          	auipc	ra,0x0
   105e8:	c38080e7          	jalr	-968(ra) # 1021c <ps_set__u32__i32__i32>
   105ec:	00c10113          	addi	sp,sp,12
   105f0:	ffc10113          	addi	sp,sp,-4
   105f4:	00a12023          	sw	a0,0(sp)
   105f8:	00410113          	addi	sp,sp,4
   105fc:	00000293          	li	t0,0
   10600:	ffc10113          	addi	sp,sp,-4
   10604:	00512023          	sw	t0,0(sp)
   10608:	00012283          	lw	t0,0(sp)
   1060c:	00410113          	addi	sp,sp,4
   10610:	fc542423          	sw	t0,-56(s0)
   10614:	fc842283          	lw	t0,-56(s0)
   10618:	ffc10113          	addi	sp,sp,-4
   1061c:	00512023          	sw	t0,0(sp)
   10620:	fcc42283          	lw	t0,-52(s0)
   10624:	ffc10113          	addi	sp,sp,-4
   10628:	00512023          	sw	t0,0(sp)
   1062c:	00100293          	li	t0,1
   10630:	ffc10113          	addi	sp,sp,-4
   10634:	00512023          	sw	t0,0(sp)
   10638:	00012303          	lw	t1,0(sp)
   1063c:	00412283          	lw	t0,4(sp)
   10640:	00810113          	addi	sp,sp,8
   10644:	406282b3          	sub	t0,t0,t1
   10648:	ffc10113          	addi	sp,sp,-4
   1064c:	00512023          	sw	t0,0(sp)
   10650:	00012303          	lw	t1,0(sp)
   10654:	00412283          	lw	t0,4(sp)
   10658:	00810113          	addi	sp,sp,8
   1065c:	0062a2b3          	slt	t0,t0,t1
   10660:	ffc10113          	addi	sp,sp,-4
   10664:	00512023          	sw	t0,0(sp)
   10668:	00012283          	lw	t0,0(sp)
   1066c:	00410113          	addi	sp,sp,4
   10670:	0e028e63          	beqz	t0,1076c <__runtime_init__u32__u32__u32__u32__u32__u32__u32+0x434>
   10674:	fd842283          	lw	t0,-40(s0)
   10678:	ffc10113          	addi	sp,sp,-4
   1067c:	00512023          	sw	t0,0(sp)
   10680:	fd842283          	lw	t0,-40(s0)
   10684:	ffc10113          	addi	sp,sp,-4
   10688:	00512023          	sw	t0,0(sp)
   1068c:	fd042283          	lw	t0,-48(s0)
   10690:	ffc10113          	addi	sp,sp,-4
   10694:	00512023          	sw	t0,0(sp)
   10698:	00012283          	lw	t0,0(sp)
   1069c:	00410113          	addi	sp,sp,4
   106a0:	ffc10113          	addi	sp,sp,-4
   106a4:	00512023          	sw	t0,0(sp)
   106a8:	00012303          	lw	t1,0(sp)
   106ac:	00412283          	lw	t0,4(sp)
   106b0:	00810113          	addi	sp,sp,8
   106b4:	006282b3          	add	t0,t0,t1
   106b8:	ffc10113          	addi	sp,sp,-4
   106bc:	00512023          	sw	t0,0(sp)
   106c0:	00412503          	lw	a0,4(sp)
   106c4:	00012583          	lw	a1,0(sp)
   106c8:	00000097          	auipc	ra,0x0
   106cc:	a74080e7          	jalr	-1420(ra) # 1013c <poke32__u32__u32>
   106d0:	00810113          	addi	sp,sp,8
   106d4:	ffc10113          	addi	sp,sp,-4
   106d8:	00a12023          	sw	a0,0(sp)
   106dc:	00410113          	addi	sp,sp,4
   106e0:	fd842283          	lw	t0,-40(s0)
   106e4:	ffc10113          	addi	sp,sp,-4
   106e8:	00512023          	sw	t0,0(sp)
   106ec:	fd042283          	lw	t0,-48(s0)
   106f0:	ffc10113          	addi	sp,sp,-4
   106f4:	00512023          	sw	t0,0(sp)
   106f8:	00012283          	lw	t0,0(sp)
   106fc:	00410113          	addi	sp,sp,4
   10700:	ffc10113          	addi	sp,sp,-4
   10704:	00512023          	sw	t0,0(sp)
   10708:	00012303          	lw	t1,0(sp)
   1070c:	00412283          	lw	t0,4(sp)
   10710:	00810113          	addi	sp,sp,8
   10714:	006282b3          	add	t0,t0,t1
   10718:	ffc10113          	addi	sp,sp,-4
   1071c:	00512023          	sw	t0,0(sp)
   10720:	00012283          	lw	t0,0(sp)
   10724:	00410113          	addi	sp,sp,4
   10728:	fc542c23          	sw	t0,-40(s0)
   1072c:	fc842283          	lw	t0,-56(s0)
   10730:	ffc10113          	addi	sp,sp,-4
   10734:	00512023          	sw	t0,0(sp)
   10738:	00100293          	li	t0,1
   1073c:	ffc10113          	addi	sp,sp,-4
   10740:	00512023          	sw	t0,0(sp)
   10744:	00012303          	lw	t1,0(sp)
   10748:	00412283          	lw	t0,4(sp)
   1074c:	00810113          	addi	sp,sp,8
   10750:	006282b3          	add	t0,t0,t1
   10754:	ffc10113          	addi	sp,sp,-4
   10758:	00512023          	sw	t0,0(sp)
   1075c:	00012283          	lw	t0,0(sp)
   10760:	00410113          	addi	sp,sp,4
   10764:	fc542423          	sw	t0,-56(s0)
   10768:	eadff06f          	j	10614 <__runtime_init__u32__u32__u32__u32__u32__u32__u32+0x2dc>
   1076c:	fd842283          	lw	t0,-40(s0)
   10770:	ffc10113          	addi	sp,sp,-4
   10774:	00512023          	sw	t0,0(sp)
   10778:	00000293          	li	t0,0
   1077c:	ffc10113          	addi	sp,sp,-4
   10780:	00512023          	sw	t0,0(sp)
   10784:	00412503          	lw	a0,4(sp)
   10788:	00012583          	lw	a1,0(sp)
   1078c:	00000097          	auipc	ra,0x0
   10790:	9b0080e7          	jalr	-1616(ra) # 1013c <poke32__u32__u32>
   10794:	00810113          	addi	sp,sp,8
   10798:	ffc10113          	addi	sp,sp,-4
   1079c:	00a12023          	sw	a0,0(sp)
   107a0:	00410113          	addi	sp,sp,4
   107a4:	fd842283          	lw	t0,-40(s0)
   107a8:	ffc10113          	addi	sp,sp,-4
   107ac:	00512023          	sw	t0,0(sp)
   107b0:	fd042283          	lw	t0,-48(s0)
   107b4:	ffc10113          	addi	sp,sp,-4
   107b8:	00512023          	sw	t0,0(sp)
   107bc:	00012283          	lw	t0,0(sp)
   107c0:	00410113          	addi	sp,sp,4
   107c4:	ffc10113          	addi	sp,sp,-4
   107c8:	00512023          	sw	t0,0(sp)
   107cc:	00012303          	lw	t1,0(sp)
   107d0:	00412283          	lw	t0,4(sp)
   107d4:	00810113          	addi	sp,sp,8
   107d8:	006282b3          	add	t0,t0,t1
   107dc:	ffc10113          	addi	sp,sp,-4
   107e0:	00512023          	sw	t0,0(sp)
   107e4:	00012283          	lw	t0,0(sp)
   107e8:	00410113          	addi	sp,sp,4
   107ec:	fc542c23          	sw	t0,-40(s0)
   107f0:	fe042283          	lw	t0,-32(s0)
   107f4:	ffc10113          	addi	sp,sp,-4
   107f8:	00512023          	sw	t0,0(sp)
   107fc:	fd442283          	lw	t0,-44(s0)
   10800:	ffc10113          	addi	sp,sp,-4
   10804:	00512023          	sw	t0,0(sp)
   10808:	fd842283          	lw	t0,-40(s0)
   1080c:	ffc10113          	addi	sp,sp,-4
   10810:	00512023          	sw	t0,0(sp)
   10814:	00012283          	lw	t0,0(sp)
   10818:	00410113          	addi	sp,sp,4
   1081c:	ffc10113          	addi	sp,sp,-4
   10820:	00512023          	sw	t0,0(sp)
   10824:	00812503          	lw	a0,8(sp)
   10828:	00412583          	lw	a1,4(sp)
   1082c:	00012603          	lw	a2,0(sp)
   10830:	00000097          	auipc	ra,0x0
   10834:	9ec080e7          	jalr	-1556(ra) # 1021c <ps_set__u32__i32__i32>
   10838:	00c10113          	addi	sp,sp,12
   1083c:	ffc10113          	addi	sp,sp,-4
   10840:	00a12023          	sw	a0,0(sp)
   10844:	00410113          	addi	sp,sp,4
   10848:	fd442283          	lw	t0,-44(s0)
   1084c:	ffc10113          	addi	sp,sp,-4
   10850:	00512023          	sw	t0,0(sp)
   10854:	00100293          	li	t0,1
   10858:	ffc10113          	addi	sp,sp,-4
   1085c:	00512023          	sw	t0,0(sp)
   10860:	00012303          	lw	t1,0(sp)
   10864:	00412283          	lw	t0,4(sp)
   10868:	00810113          	addi	sp,sp,8
   1086c:	006282b3          	add	t0,t0,t1
   10870:	ffc10113          	addi	sp,sp,-4
   10874:	00512023          	sw	t0,0(sp)
   10878:	00012283          	lw	t0,0(sp)
   1087c:	00410113          	addi	sp,sp,4
   10880:	fc542a23          	sw	t0,-44(s0)
   10884:	c05ff06f          	j	10488 <__runtime_init__u32__u32__u32__u32__u32__u32__u32+0x150>
   10888:	fdc42283          	lw	t0,-36(s0)
   1088c:	ffc10113          	addi	sp,sp,-4
   10890:	00512023          	sw	t0,0(sp)
   10894:	00100293          	li	t0,1
   10898:	ffc10113          	addi	sp,sp,-4
   1089c:	00512023          	sw	t0,0(sp)
   108a0:	00412503          	lw	a0,4(sp)
   108a4:	00012583          	lw	a1,0(sp)
   108a8:	00000097          	auipc	ra,0x0
   108ac:	894080e7          	jalr	-1900(ra) # 1013c <poke32__u32__u32>
   108b0:	00810113          	addi	sp,sp,8
   108b4:	ffc10113          	addi	sp,sp,-4
   108b8:	00a12023          	sw	a0,0(sp)
   108bc:	00410113          	addi	sp,sp,4
   108c0:	00040293          	mv	t0,s0
   108c4:	ffc2a083          	lw	ra,-4(t0)
   108c8:	ff82a403          	lw	s0,-8(t0)
   108cc:	00028113          	mv	sp,t0
   108d0:	00008067          	ret
   108d4:	00040293          	mv	t0,s0
   108d8:	ffc2a083          	lw	ra,-4(t0)
   108dc:	ff82a403          	lw	s0,-8(t0)
   108e0:	00028113          	mv	sp,t0
   108e4:	00008067          	ret

000108e8 <bucket_of__i32>:
   108e8:	fe010113          	addi	sp,sp,-32
   108ec:	00112e23          	sw	ra,28(sp)
   108f0:	00812c23          	sw	s0,24(sp)
   108f4:	02010413          	addi	s0,sp,32
   108f8:	fea42a23          	sw	a0,-12(s0)
   108fc:	fe042823          	sw	zero,-16(s0)
   10900:	00000293          	li	t0,0
   10904:	ffc10113          	addi	sp,sp,-4
   10908:	00512023          	sw	t0,0(sp)
   1090c:	00012283          	lw	t0,0(sp)
   10910:	00410113          	addi	sp,sp,4
   10914:	fe542823          	sw	t0,-16(s0)
   10918:	ff042283          	lw	t0,-16(s0)
   1091c:	ffc10113          	addi	sp,sp,-4
   10920:	00512023          	sw	t0,0(sp)
   10924:	00021317          	auipc	t1,0x21
   10928:	adc30313          	addi	t1,t1,-1316 # 31400 <NPOOLS>
   1092c:	00032283          	lw	t0,0(t1)
   10930:	ffc10113          	addi	sp,sp,-4
   10934:	00512023          	sw	t0,0(sp)
   10938:	00012303          	lw	t1,0(sp)
   1093c:	00412283          	lw	t0,4(sp)
   10940:	00810113          	addi	sp,sp,8
   10944:	0062a2b3          	slt	t0,t0,t1
   10948:	ffc10113          	addi	sp,sp,-4
   1094c:	00512023          	sw	t0,0(sp)
   10950:	00012283          	lw	t0,0(sp)
   10954:	00410113          	addi	sp,sp,4
   10958:	0e028063          	beqz	t0,10a38 <bucket_of__i32+0x150>
   1095c:	00021317          	auipc	t1,0x21
   10960:	aa830313          	addi	t1,t1,-1368 # 31404 <g_pool_sizes_addr>
   10964:	00032283          	lw	t0,0(t1)
   10968:	ffc10113          	addi	sp,sp,-4
   1096c:	00512023          	sw	t0,0(sp)
   10970:	ff042283          	lw	t0,-16(s0)
   10974:	ffc10113          	addi	sp,sp,-4
   10978:	00512023          	sw	t0,0(sp)
   1097c:	00412503          	lw	a0,4(sp)
   10980:	00012583          	lw	a1,0(sp)
   10984:	fffff097          	auipc	ra,0xfffff
   10988:	7c0080e7          	jalr	1984(ra) # 10144 <ps_get__u32__i32>
   1098c:	00810113          	addi	sp,sp,8
   10990:	ffc10113          	addi	sp,sp,-4
   10994:	00a12023          	sw	a0,0(sp)
   10998:	ff442283          	lw	t0,-12(s0)
   1099c:	ffc10113          	addi	sp,sp,-4
   109a0:	00512023          	sw	t0,0(sp)
   109a4:	00012303          	lw	t1,0(sp)
   109a8:	00412283          	lw	t0,4(sp)
   109ac:	00810113          	addi	sp,sp,8
   109b0:	0062a2b3          	slt	t0,t0,t1
   109b4:	0012c293          	xori	t0,t0,1
   109b8:	ffc10113          	addi	sp,sp,-4
   109bc:	00512023          	sw	t0,0(sp)
   109c0:	00012283          	lw	t0,0(sp)
   109c4:	00410113          	addi	sp,sp,4
   109c8:	02028863          	beqz	t0,109f8 <bucket_of__i32+0x110>
   109cc:	ff042283          	lw	t0,-16(s0)
   109d0:	ffc10113          	addi	sp,sp,-4
   109d4:	00512023          	sw	t0,0(sp)
   109d8:	00012283          	lw	t0,0(sp)
   109dc:	00410113          	addi	sp,sp,4
   109e0:	00028513          	mv	a0,t0
   109e4:	00040293          	mv	t0,s0
   109e8:	ffc2a083          	lw	ra,-4(t0)
   109ec:	ff82a403          	lw	s0,-8(t0)
   109f0:	00028113          	mv	sp,t0
   109f4:	00008067          	ret
   109f8:	ff042283          	lw	t0,-16(s0)
   109fc:	ffc10113          	addi	sp,sp,-4
   10a00:	00512023          	sw	t0,0(sp)
   10a04:	00100293          	li	t0,1
   10a08:	ffc10113          	addi	sp,sp,-4
   10a0c:	00512023          	sw	t0,0(sp)
   10a10:	00012303          	lw	t1,0(sp)
   10a14:	00412283          	lw	t0,4(sp)
   10a18:	00810113          	addi	sp,sp,8
   10a1c:	006282b3          	add	t0,t0,t1
   10a20:	ffc10113          	addi	sp,sp,-4
   10a24:	00512023          	sw	t0,0(sp)
   10a28:	00012283          	lw	t0,0(sp)
   10a2c:	00410113          	addi	sp,sp,4
   10a30:	fe542823          	sw	t0,-16(s0)
   10a34:	ee5ff06f          	j	10918 <bucket_of__i32+0x30>
   10a38:	00021317          	auipc	t1,0x21
   10a3c:	9c830313          	addi	t1,t1,-1592 # 31400 <NPOOLS>
   10a40:	00032283          	lw	t0,0(t1)
   10a44:	ffc10113          	addi	sp,sp,-4
   10a48:	00512023          	sw	t0,0(sp)
   10a4c:	00100293          	li	t0,1
   10a50:	ffc10113          	addi	sp,sp,-4
   10a54:	00512023          	sw	t0,0(sp)
   10a58:	00012303          	lw	t1,0(sp)
   10a5c:	00412283          	lw	t0,4(sp)
   10a60:	00810113          	addi	sp,sp,8
   10a64:	406282b3          	sub	t0,t0,t1
   10a68:	ffc10113          	addi	sp,sp,-4
   10a6c:	00512023          	sw	t0,0(sp)
   10a70:	00012283          	lw	t0,0(sp)
   10a74:	00410113          	addi	sp,sp,4
   10a78:	00028513          	mv	a0,t0
   10a7c:	00040293          	mv	t0,s0
   10a80:	ffc2a083          	lw	ra,-4(t0)
   10a84:	ff82a403          	lw	s0,-8(t0)
   10a88:	00028113          	mv	sp,t0
   10a8c:	00008067          	ret
   10a90:	00040293          	mv	t0,s0
   10a94:	ffc2a083          	lw	ra,-4(t0)
   10a98:	ff82a403          	lw	s0,-8(t0)
   10a9c:	00028113          	mv	sp,t0
   10aa0:	00008067          	ret

00010aa4 <pool_alloc__i32>:
   10aa4:	fd010113          	addi	sp,sp,-48
   10aa8:	02112623          	sw	ra,44(sp)
   10aac:	02812423          	sw	s0,40(sp)
   10ab0:	03010413          	addi	s0,sp,48
   10ab4:	fea42a23          	sw	a0,-12(s0)
   10ab8:	fe042823          	sw	zero,-16(s0)
   10abc:	fe042623          	sw	zero,-20(s0)
   10ac0:	fe042423          	sw	zero,-24(s0)
   10ac4:	fe042223          	sw	zero,-28(s0)
   10ac8:	fe042023          	sw	zero,-32(s0)
   10acc:	ff442283          	lw	t0,-12(s0)
   10ad0:	ffc10113          	addi	sp,sp,-4
   10ad4:	00512023          	sw	t0,0(sp)
   10ad8:	00000293          	li	t0,0
   10adc:	ffc10113          	addi	sp,sp,-4
   10ae0:	00512023          	sw	t0,0(sp)
   10ae4:	00012303          	lw	t1,0(sp)
   10ae8:	00412283          	lw	t0,4(sp)
   10aec:	00810113          	addi	sp,sp,8
   10af0:	005322b3          	slt	t0,t1,t0
   10af4:	0012c293          	xori	t0,t0,1
   10af8:	ffc10113          	addi	sp,sp,-4
   10afc:	00512023          	sw	t0,0(sp)
   10b00:	00012283          	lw	t0,0(sp)
   10b04:	00410113          	addi	sp,sp,4
   10b08:	00028e63          	beqz	t0,10b24 <pool_alloc__i32+0x80>
   10b0c:	00100293          	li	t0,1
   10b10:	ffc10113          	addi	sp,sp,-4
   10b14:	00512023          	sw	t0,0(sp)
   10b18:	00012283          	lw	t0,0(sp)
   10b1c:	00410113          	addi	sp,sp,4
   10b20:	fe542a23          	sw	t0,-12(s0)
   10b24:	ff442283          	lw	t0,-12(s0)
   10b28:	ffc10113          	addi	sp,sp,-4
   10b2c:	00512023          	sw	t0,0(sp)
   10b30:	00012503          	lw	a0,0(sp)
   10b34:	00000097          	auipc	ra,0x0
   10b38:	db4080e7          	jalr	-588(ra) # 108e8 <bucket_of__i32>
   10b3c:	00410113          	addi	sp,sp,4
   10b40:	ffc10113          	addi	sp,sp,-4
   10b44:	00a12023          	sw	a0,0(sp)
   10b48:	00012283          	lw	t0,0(sp)
   10b4c:	00410113          	addi	sp,sp,4
   10b50:	fe542823          	sw	t0,-16(s0)
   10b54:	00021317          	auipc	t1,0x21
   10b58:	8b830313          	addi	t1,t1,-1864 # 3140c <g_pool_free_addr>
   10b5c:	00032283          	lw	t0,0(t1)
   10b60:	ffc10113          	addi	sp,sp,-4
   10b64:	00512023          	sw	t0,0(sp)
   10b68:	ff042283          	lw	t0,-16(s0)
   10b6c:	ffc10113          	addi	sp,sp,-4
   10b70:	00512023          	sw	t0,0(sp)
   10b74:	00412503          	lw	a0,4(sp)
   10b78:	00012583          	lw	a1,0(sp)
   10b7c:	fffff097          	auipc	ra,0xfffff
   10b80:	5c8080e7          	jalr	1480(ra) # 10144 <ps_get__u32__i32>
   10b84:	00810113          	addi	sp,sp,8
   10b88:	ffc10113          	addi	sp,sp,-4
   10b8c:	00a12023          	sw	a0,0(sp)
   10b90:	00012283          	lw	t0,0(sp)
   10b94:	00410113          	addi	sp,sp,4
   10b98:	ffc10113          	addi	sp,sp,-4
   10b9c:	00512023          	sw	t0,0(sp)
   10ba0:	00012283          	lw	t0,0(sp)
   10ba4:	00410113          	addi	sp,sp,4
   10ba8:	fe542623          	sw	t0,-20(s0)
   10bac:	fec42283          	lw	t0,-20(s0)
   10bb0:	ffc10113          	addi	sp,sp,-4
   10bb4:	00512023          	sw	t0,0(sp)
   10bb8:	00000293          	li	t0,0
   10bbc:	ffc10113          	addi	sp,sp,-4
   10bc0:	00512023          	sw	t0,0(sp)
   10bc4:	00012303          	lw	t1,0(sp)
   10bc8:	00412283          	lw	t0,4(sp)
   10bcc:	00810113          	addi	sp,sp,8
   10bd0:	406282b3          	sub	t0,t0,t1
   10bd4:	0012b293          	seqz	t0,t0
   10bd8:	ffc10113          	addi	sp,sp,-4
   10bdc:	00512023          	sw	t0,0(sp)
   10be0:	00012283          	lw	t0,0(sp)
   10be4:	00410113          	addi	sp,sp,4
   10be8:	02028663          	beqz	t0,10c14 <pool_alloc__i32+0x170>
   10bec:	00100293          	li	t0,1
   10bf0:	ffc10113          	addi	sp,sp,-4
   10bf4:	00512023          	sw	t0,0(sp)
   10bf8:	00012503          	lw	a0,0(sp)
   10bfc:	fffff097          	auipc	ra,0xfffff
   10c00:	50c080e7          	jalr	1292(ra) # 10108 <do_exit__i32>
   10c04:	00410113          	addi	sp,sp,4
   10c08:	ffc10113          	addi	sp,sp,-4
   10c0c:	00a12023          	sw	a0,0(sp)
   10c10:	00410113          	addi	sp,sp,4
   10c14:	fec42283          	lw	t0,-20(s0)
   10c18:	ffc10113          	addi	sp,sp,-4
   10c1c:	00512023          	sw	t0,0(sp)
   10c20:	00012503          	lw	a0,0(sp)
   10c24:	fffff097          	auipc	ra,0xfffff
   10c28:	500080e7          	jalr	1280(ra) # 10124 <peek32__u32>
   10c2c:	00410113          	addi	sp,sp,4
   10c30:	ffc10113          	addi	sp,sp,-4
   10c34:	00a12023          	sw	a0,0(sp)
   10c38:	00012283          	lw	t0,0(sp)
   10c3c:	00410113          	addi	sp,sp,4
   10c40:	fe542423          	sw	t0,-24(s0)
   10c44:	00020317          	auipc	t1,0x20
   10c48:	7c830313          	addi	t1,t1,1992 # 3140c <g_pool_free_addr>
   10c4c:	00032283          	lw	t0,0(t1)
   10c50:	ffc10113          	addi	sp,sp,-4
   10c54:	00512023          	sw	t0,0(sp)
   10c58:	ff042283          	lw	t0,-16(s0)
   10c5c:	ffc10113          	addi	sp,sp,-4
   10c60:	00512023          	sw	t0,0(sp)
   10c64:	fe842283          	lw	t0,-24(s0)
   10c68:	ffc10113          	addi	sp,sp,-4
   10c6c:	00512023          	sw	t0,0(sp)
   10c70:	00012283          	lw	t0,0(sp)
   10c74:	00410113          	addi	sp,sp,4
   10c78:	ffc10113          	addi	sp,sp,-4
   10c7c:	00512023          	sw	t0,0(sp)
   10c80:	00812503          	lw	a0,8(sp)
   10c84:	00412583          	lw	a1,4(sp)
   10c88:	00012603          	lw	a2,0(sp)
   10c8c:	fffff097          	auipc	ra,0xfffff
   10c90:	590080e7          	jalr	1424(ra) # 1021c <ps_set__u32__i32__i32>
   10c94:	00c10113          	addi	sp,sp,12
   10c98:	ffc10113          	addi	sp,sp,-4
   10c9c:	00a12023          	sw	a0,0(sp)
   10ca0:	00410113          	addi	sp,sp,4
   10ca4:	00020317          	auipc	t1,0x20
   10ca8:	76030313          	addi	t1,t1,1888 # 31404 <g_pool_sizes_addr>
   10cac:	00032283          	lw	t0,0(t1)
   10cb0:	ffc10113          	addi	sp,sp,-4
   10cb4:	00512023          	sw	t0,0(sp)
   10cb8:	ff042283          	lw	t0,-16(s0)
   10cbc:	ffc10113          	addi	sp,sp,-4
   10cc0:	00512023          	sw	t0,0(sp)
   10cc4:	00412503          	lw	a0,4(sp)
   10cc8:	00012583          	lw	a1,0(sp)
   10ccc:	fffff097          	auipc	ra,0xfffff
   10cd0:	478080e7          	jalr	1144(ra) # 10144 <ps_get__u32__i32>
   10cd4:	00810113          	addi	sp,sp,8
   10cd8:	ffc10113          	addi	sp,sp,-4
   10cdc:	00a12023          	sw	a0,0(sp)
   10ce0:	00012283          	lw	t0,0(sp)
   10ce4:	00410113          	addi	sp,sp,4
   10ce8:	fe542223          	sw	t0,-28(s0)
   10cec:	00000293          	li	t0,0
   10cf0:	ffc10113          	addi	sp,sp,-4
   10cf4:	00512023          	sw	t0,0(sp)
   10cf8:	00012283          	lw	t0,0(sp)
   10cfc:	00410113          	addi	sp,sp,4
   10d00:	fe542023          	sw	t0,-32(s0)
   10d04:	fe042283          	lw	t0,-32(s0)
   10d08:	ffc10113          	addi	sp,sp,-4
   10d0c:	00512023          	sw	t0,0(sp)
   10d10:	fe442283          	lw	t0,-28(s0)
   10d14:	ffc10113          	addi	sp,sp,-4
   10d18:	00512023          	sw	t0,0(sp)
   10d1c:	00012303          	lw	t1,0(sp)
   10d20:	00412283          	lw	t0,4(sp)
   10d24:	00810113          	addi	sp,sp,8
   10d28:	0062a2b3          	slt	t0,t0,t1
   10d2c:	ffc10113          	addi	sp,sp,-4
   10d30:	00512023          	sw	t0,0(sp)
   10d34:	00012283          	lw	t0,0(sp)
   10d38:	00410113          	addi	sp,sp,4
   10d3c:	0a028863          	beqz	t0,10dec <pool_alloc__i32+0x348>
   10d40:	fec42283          	lw	t0,-20(s0)
   10d44:	ffc10113          	addi	sp,sp,-4
   10d48:	00512023          	sw	t0,0(sp)
   10d4c:	fe042283          	lw	t0,-32(s0)
   10d50:	ffc10113          	addi	sp,sp,-4
   10d54:	00512023          	sw	t0,0(sp)
   10d58:	00012283          	lw	t0,0(sp)
   10d5c:	00410113          	addi	sp,sp,4
   10d60:	ffc10113          	addi	sp,sp,-4
   10d64:	00512023          	sw	t0,0(sp)
   10d68:	00012303          	lw	t1,0(sp)
   10d6c:	00412283          	lw	t0,4(sp)
   10d70:	00810113          	addi	sp,sp,8
   10d74:	006282b3          	add	t0,t0,t1
   10d78:	ffc10113          	addi	sp,sp,-4
   10d7c:	00512023          	sw	t0,0(sp)
   10d80:	00000293          	li	t0,0
   10d84:	ffc10113          	addi	sp,sp,-4
   10d88:	00512023          	sw	t0,0(sp)
   10d8c:	00412503          	lw	a0,4(sp)
   10d90:	00012583          	lw	a1,0(sp)
   10d94:	fffff097          	auipc	ra,0xfffff
   10d98:	3a8080e7          	jalr	936(ra) # 1013c <poke32__u32__u32>
   10d9c:	00810113          	addi	sp,sp,8
   10da0:	ffc10113          	addi	sp,sp,-4
   10da4:	00a12023          	sw	a0,0(sp)
   10da8:	00410113          	addi	sp,sp,4
   10dac:	fe042283          	lw	t0,-32(s0)
   10db0:	ffc10113          	addi	sp,sp,-4
   10db4:	00512023          	sw	t0,0(sp)
   10db8:	00400293          	li	t0,4
   10dbc:	ffc10113          	addi	sp,sp,-4
   10dc0:	00512023          	sw	t0,0(sp)
   10dc4:	00012303          	lw	t1,0(sp)
   10dc8:	00412283          	lw	t0,4(sp)
   10dcc:	00810113          	addi	sp,sp,8
   10dd0:	006282b3          	add	t0,t0,t1
   10dd4:	ffc10113          	addi	sp,sp,-4
   10dd8:	00512023          	sw	t0,0(sp)
   10ddc:	00012283          	lw	t0,0(sp)
   10de0:	00410113          	addi	sp,sp,4
   10de4:	fe542023          	sw	t0,-32(s0)
   10de8:	f1dff06f          	j	10d04 <pool_alloc__i32+0x260>
   10dec:	fec42283          	lw	t0,-20(s0)
   10df0:	ffc10113          	addi	sp,sp,-4
   10df4:	00512023          	sw	t0,0(sp)
   10df8:	00012283          	lw	t0,0(sp)
   10dfc:	00410113          	addi	sp,sp,4
   10e00:	00028513          	mv	a0,t0
   10e04:	00040293          	mv	t0,s0
   10e08:	ffc2a083          	lw	ra,-4(t0)
   10e0c:	ff82a403          	lw	s0,-8(t0)
   10e10:	00028113          	mv	sp,t0
   10e14:	00008067          	ret
   10e18:	00040293          	mv	t0,s0
   10e1c:	ffc2a083          	lw	ra,-4(t0)
   10e20:	ff82a403          	lw	s0,-8(t0)
   10e24:	00028113          	mv	sp,t0
   10e28:	00008067          	ret

00010e2c <pool_free_blk__u32>:
   10e2c:	fd010113          	addi	sp,sp,-48
   10e30:	02112623          	sw	ra,44(sp)
   10e34:	02812423          	sw	s0,40(sp)
   10e38:	03010413          	addi	s0,sp,48
   10e3c:	fea42a23          	sw	a0,-12(s0)
   10e40:	fe042823          	sw	zero,-16(s0)
   10e44:	fe042623          	sw	zero,-20(s0)
   10e48:	fe042423          	sw	zero,-24(s0)
   10e4c:	ff442283          	lw	t0,-12(s0)
   10e50:	ffc10113          	addi	sp,sp,-4
   10e54:	00512023          	sw	t0,0(sp)
   10e58:	00000293          	li	t0,0
   10e5c:	ffc10113          	addi	sp,sp,-4
   10e60:	00512023          	sw	t0,0(sp)
   10e64:	00012303          	lw	t1,0(sp)
   10e68:	00412283          	lw	t0,4(sp)
   10e6c:	00810113          	addi	sp,sp,8
   10e70:	406282b3          	sub	t0,t0,t1
   10e74:	0012b293          	seqz	t0,t0
   10e78:	ffc10113          	addi	sp,sp,-4
   10e7c:	00512023          	sw	t0,0(sp)
   10e80:	00012283          	lw	t0,0(sp)
   10e84:	00410113          	addi	sp,sp,4
   10e88:	00028c63          	beqz	t0,10ea0 <pool_free_blk__u32+0x74>
   10e8c:	00040293          	mv	t0,s0
   10e90:	ffc2a083          	lw	ra,-4(t0)
   10e94:	ff82a403          	lw	s0,-8(t0)
   10e98:	00028113          	mv	sp,t0
   10e9c:	00008067          	ret
   10ea0:	00000293          	li	t0,0
   10ea4:	ffc10113          	addi	sp,sp,-4
   10ea8:	00512023          	sw	t0,0(sp)
   10eac:	00012283          	lw	t0,0(sp)
   10eb0:	00410113          	addi	sp,sp,4
   10eb4:	fe542823          	sw	t0,-16(s0)
   10eb8:	ff042283          	lw	t0,-16(s0)
   10ebc:	ffc10113          	addi	sp,sp,-4
   10ec0:	00512023          	sw	t0,0(sp)
   10ec4:	00020317          	auipc	t1,0x20
   10ec8:	53c30313          	addi	t1,t1,1340 # 31400 <NPOOLS>
   10ecc:	00032283          	lw	t0,0(t1)
   10ed0:	ffc10113          	addi	sp,sp,-4
   10ed4:	00512023          	sw	t0,0(sp)
   10ed8:	00012303          	lw	t1,0(sp)
   10edc:	00412283          	lw	t0,4(sp)
   10ee0:	00810113          	addi	sp,sp,8
   10ee4:	0062a2b3          	slt	t0,t0,t1
   10ee8:	ffc10113          	addi	sp,sp,-4
   10eec:	00512023          	sw	t0,0(sp)
   10ef0:	00012283          	lw	t0,0(sp)
   10ef4:	00410113          	addi	sp,sp,4
   10ef8:	28028263          	beqz	t0,1117c <pool_free_blk__u32+0x350>
   10efc:	00020317          	auipc	t1,0x20
   10f00:	51430313          	addi	t1,t1,1300 # 31410 <g_pool_base_addr>
   10f04:	00032283          	lw	t0,0(t1)
   10f08:	ffc10113          	addi	sp,sp,-4
   10f0c:	00512023          	sw	t0,0(sp)
   10f10:	ff042283          	lw	t0,-16(s0)
   10f14:	ffc10113          	addi	sp,sp,-4
   10f18:	00512023          	sw	t0,0(sp)
   10f1c:	00412503          	lw	a0,4(sp)
   10f20:	00012583          	lw	a1,0(sp)
   10f24:	fffff097          	auipc	ra,0xfffff
   10f28:	220080e7          	jalr	544(ra) # 10144 <ps_get__u32__i32>
   10f2c:	00810113          	addi	sp,sp,8
   10f30:	ffc10113          	addi	sp,sp,-4
   10f34:	00a12023          	sw	a0,0(sp)
   10f38:	00012283          	lw	t0,0(sp)
   10f3c:	00410113          	addi	sp,sp,4
   10f40:	fe542623          	sw	t0,-20(s0)
   10f44:	00020317          	auipc	t1,0x20
   10f48:	4d030313          	addi	t1,t1,1232 # 31414 <g_pool_end_addr>
   10f4c:	00032283          	lw	t0,0(t1)
   10f50:	ffc10113          	addi	sp,sp,-4
   10f54:	00512023          	sw	t0,0(sp)
   10f58:	ff042283          	lw	t0,-16(s0)
   10f5c:	ffc10113          	addi	sp,sp,-4
   10f60:	00512023          	sw	t0,0(sp)
   10f64:	00412503          	lw	a0,4(sp)
   10f68:	00012583          	lw	a1,0(sp)
   10f6c:	fffff097          	auipc	ra,0xfffff
   10f70:	1d8080e7          	jalr	472(ra) # 10144 <ps_get__u32__i32>
   10f74:	00810113          	addi	sp,sp,8
   10f78:	ffc10113          	addi	sp,sp,-4
   10f7c:	00a12023          	sw	a0,0(sp)
   10f80:	00012283          	lw	t0,0(sp)
   10f84:	00410113          	addi	sp,sp,4
   10f88:	fe542423          	sw	t0,-24(s0)
   10f8c:	ff442283          	lw	t0,-12(s0)
   10f90:	ffc10113          	addi	sp,sp,-4
   10f94:	00512023          	sw	t0,0(sp)
   10f98:	00012283          	lw	t0,0(sp)
   10f9c:	00410113          	addi	sp,sp,4
   10fa0:	ffc10113          	addi	sp,sp,-4
   10fa4:	00512023          	sw	t0,0(sp)
   10fa8:	fec42283          	lw	t0,-20(s0)
   10fac:	ffc10113          	addi	sp,sp,-4
   10fb0:	00512023          	sw	t0,0(sp)
   10fb4:	00012303          	lw	t1,0(sp)
   10fb8:	00412283          	lw	t0,4(sp)
   10fbc:	00810113          	addi	sp,sp,8
   10fc0:	0062a2b3          	slt	t0,t0,t1
   10fc4:	0012c293          	xori	t0,t0,1
   10fc8:	ffc10113          	addi	sp,sp,-4
   10fcc:	00512023          	sw	t0,0(sp)
   10fd0:	00012283          	lw	t0,0(sp)
   10fd4:	00410113          	addi	sp,sp,4
   10fd8:	06028063          	beqz	t0,11038 <pool_free_blk__u32+0x20c>
   10fdc:	ff442283          	lw	t0,-12(s0)
   10fe0:	ffc10113          	addi	sp,sp,-4
   10fe4:	00512023          	sw	t0,0(sp)
   10fe8:	00012283          	lw	t0,0(sp)
   10fec:	00410113          	addi	sp,sp,4
   10ff0:	ffc10113          	addi	sp,sp,-4
   10ff4:	00512023          	sw	t0,0(sp)
   10ff8:	fe842283          	lw	t0,-24(s0)
   10ffc:	ffc10113          	addi	sp,sp,-4
   11000:	00512023          	sw	t0,0(sp)
   11004:	00012303          	lw	t1,0(sp)
   11008:	00412283          	lw	t0,4(sp)
   1100c:	00810113          	addi	sp,sp,8
   11010:	0062a2b3          	slt	t0,t0,t1
   11014:	ffc10113          	addi	sp,sp,-4
   11018:	00512023          	sw	t0,0(sp)
   1101c:	00012283          	lw	t0,0(sp)
   11020:	00410113          	addi	sp,sp,4
   11024:	00028a63          	beqz	t0,11038 <pool_free_blk__u32+0x20c>
   11028:	00100293          	li	t0,1
   1102c:	ffc10113          	addi	sp,sp,-4
   11030:	00512023          	sw	t0,0(sp)
   11034:	0100006f          	j	11044 <pool_free_blk__u32+0x218>
   11038:	00000293          	li	t0,0
   1103c:	ffc10113          	addi	sp,sp,-4
   11040:	00512023          	sw	t0,0(sp)
   11044:	00012283          	lw	t0,0(sp)
   11048:	00410113          	addi	sp,sp,4
   1104c:	0e028863          	beqz	t0,1113c <pool_free_blk__u32+0x310>
   11050:	ff442283          	lw	t0,-12(s0)
   11054:	ffc10113          	addi	sp,sp,-4
   11058:	00512023          	sw	t0,0(sp)
   1105c:	00020317          	auipc	t1,0x20
   11060:	3b030313          	addi	t1,t1,944 # 3140c <g_pool_free_addr>
   11064:	00032283          	lw	t0,0(t1)
   11068:	ffc10113          	addi	sp,sp,-4
   1106c:	00512023          	sw	t0,0(sp)
   11070:	ff042283          	lw	t0,-16(s0)
   11074:	ffc10113          	addi	sp,sp,-4
   11078:	00512023          	sw	t0,0(sp)
   1107c:	00412503          	lw	a0,4(sp)
   11080:	00012583          	lw	a1,0(sp)
   11084:	fffff097          	auipc	ra,0xfffff
   11088:	0c0080e7          	jalr	192(ra) # 10144 <ps_get__u32__i32>
   1108c:	00810113          	addi	sp,sp,8
   11090:	ffc10113          	addi	sp,sp,-4
   11094:	00a12023          	sw	a0,0(sp)
   11098:	00012283          	lw	t0,0(sp)
   1109c:	00410113          	addi	sp,sp,4
   110a0:	ffc10113          	addi	sp,sp,-4
   110a4:	00512023          	sw	t0,0(sp)
   110a8:	00412503          	lw	a0,4(sp)
   110ac:	00012583          	lw	a1,0(sp)
   110b0:	fffff097          	auipc	ra,0xfffff
   110b4:	08c080e7          	jalr	140(ra) # 1013c <poke32__u32__u32>
   110b8:	00810113          	addi	sp,sp,8
   110bc:	ffc10113          	addi	sp,sp,-4
   110c0:	00a12023          	sw	a0,0(sp)
   110c4:	00410113          	addi	sp,sp,4
   110c8:	00020317          	auipc	t1,0x20
   110cc:	34430313          	addi	t1,t1,836 # 3140c <g_pool_free_addr>
   110d0:	00032283          	lw	t0,0(t1)
   110d4:	ffc10113          	addi	sp,sp,-4
   110d8:	00512023          	sw	t0,0(sp)
   110dc:	ff042283          	lw	t0,-16(s0)
   110e0:	ffc10113          	addi	sp,sp,-4
   110e4:	00512023          	sw	t0,0(sp)
   110e8:	ff442283          	lw	t0,-12(s0)
   110ec:	ffc10113          	addi	sp,sp,-4
   110f0:	00512023          	sw	t0,0(sp)
   110f4:	00012283          	lw	t0,0(sp)
   110f8:	00410113          	addi	sp,sp,4
   110fc:	ffc10113          	addi	sp,sp,-4
   11100:	00512023          	sw	t0,0(sp)
   11104:	00812503          	lw	a0,8(sp)
   11108:	00412583          	lw	a1,4(sp)
   1110c:	00012603          	lw	a2,0(sp)
   11110:	fffff097          	auipc	ra,0xfffff
   11114:	10c080e7          	jalr	268(ra) # 1021c <ps_set__u32__i32__i32>
   11118:	00c10113          	addi	sp,sp,12
   1111c:	ffc10113          	addi	sp,sp,-4
   11120:	00a12023          	sw	a0,0(sp)
   11124:	00410113          	addi	sp,sp,4
   11128:	00040293          	mv	t0,s0
   1112c:	ffc2a083          	lw	ra,-4(t0)
   11130:	ff82a403          	lw	s0,-8(t0)
   11134:	00028113          	mv	sp,t0
   11138:	00008067          	ret
   1113c:	ff042283          	lw	t0,-16(s0)
   11140:	ffc10113          	addi	sp,sp,-4
   11144:	00512023          	sw	t0,0(sp)
   11148:	00100293          	li	t0,1
   1114c:	ffc10113          	addi	sp,sp,-4
   11150:	00512023          	sw	t0,0(sp)
   11154:	00012303          	lw	t1,0(sp)
   11158:	00412283          	lw	t0,4(sp)
   1115c:	00810113          	addi	sp,sp,8
   11160:	006282b3          	add	t0,t0,t1
   11164:	ffc10113          	addi	sp,sp,-4
   11168:	00512023          	sw	t0,0(sp)
   1116c:	00012283          	lw	t0,0(sp)
   11170:	00410113          	addi	sp,sp,4
   11174:	fe542823          	sw	t0,-16(s0)
   11178:	d41ff06f          	j	10eb8 <pool_free_blk__u32+0x8c>
   1117c:	00040293          	mv	t0,s0
   11180:	ffc2a083          	lw	ra,-4(t0)
   11184:	ff82a403          	lw	s0,-8(t0)
   11188:	00028113          	mv	sp,t0
   1118c:	00008067          	ret
   11190:	00040293          	mv	t0,s0
   11194:	ffc2a083          	lw	ra,-4(t0)
   11198:	ff82a403          	lw	s0,-8(t0)
   1119c:	00028113          	mv	sp,t0
   111a0:	00008067          	ret

000111a4 <new_array__i32__i32>:
   111a4:	fe010113          	addi	sp,sp,-32
   111a8:	00112e23          	sw	ra,28(sp)
   111ac:	00812c23          	sw	s0,24(sp)
   111b0:	02010413          	addi	s0,sp,32
   111b4:	fea42a23          	sw	a0,-12(s0)
   111b8:	feb42823          	sw	a1,-16(s0)
   111bc:	fe042623          	sw	zero,-20(s0)
   111c0:	fe042423          	sw	zero,-24(s0)
   111c4:	00400293          	li	t0,4
   111c8:	ffc10113          	addi	sp,sp,-4
   111cc:	00512023          	sw	t0,0(sp)
   111d0:	ff042283          	lw	t0,-16(s0)
   111d4:	ffc10113          	addi	sp,sp,-4
   111d8:	00512023          	sw	t0,0(sp)
   111dc:	00012303          	lw	t1,0(sp)
   111e0:	00412283          	lw	t0,4(sp)
   111e4:	00810113          	addi	sp,sp,8
   111e8:	006282b3          	add	t0,t0,t1
   111ec:	ffc10113          	addi	sp,sp,-4
   111f0:	00512023          	sw	t0,0(sp)
   111f4:	00012283          	lw	t0,0(sp)
   111f8:	00410113          	addi	sp,sp,4
   111fc:	fe542623          	sw	t0,-20(s0)
   11200:	fec42283          	lw	t0,-20(s0)
   11204:	ffc10113          	addi	sp,sp,-4
   11208:	00512023          	sw	t0,0(sp)
   1120c:	00400293          	li	t0,4
   11210:	ffc10113          	addi	sp,sp,-4
   11214:	00512023          	sw	t0,0(sp)
   11218:	00012303          	lw	t1,0(sp)
   1121c:	00412283          	lw	t0,4(sp)
   11220:	00810113          	addi	sp,sp,8
   11224:	0062a2b3          	slt	t0,t0,t1
   11228:	ffc10113          	addi	sp,sp,-4
   1122c:	00512023          	sw	t0,0(sp)
   11230:	00012283          	lw	t0,0(sp)
   11234:	00410113          	addi	sp,sp,4
   11238:	00028e63          	beqz	t0,11254 <new_array__i32__i32+0xb0>
   1123c:	00400293          	li	t0,4
   11240:	ffc10113          	addi	sp,sp,-4
   11244:	00512023          	sw	t0,0(sp)
   11248:	00012283          	lw	t0,0(sp)
   1124c:	00410113          	addi	sp,sp,4
   11250:	fe542623          	sw	t0,-20(s0)
   11254:	fec42283          	lw	t0,-20(s0)
   11258:	ffc10113          	addi	sp,sp,-4
   1125c:	00512023          	sw	t0,0(sp)
   11260:	00012503          	lw	a0,0(sp)
   11264:	00000097          	auipc	ra,0x0
   11268:	840080e7          	jalr	-1984(ra) # 10aa4 <pool_alloc__i32>
   1126c:	00410113          	addi	sp,sp,4
   11270:	ffc10113          	addi	sp,sp,-4
   11274:	00a12023          	sw	a0,0(sp)
   11278:	00012283          	lw	t0,0(sp)
   1127c:	00410113          	addi	sp,sp,4
   11280:	fe542423          	sw	t0,-24(s0)
   11284:	fe842283          	lw	t0,-24(s0)
   11288:	ffc10113          	addi	sp,sp,-4
   1128c:	00512023          	sw	t0,0(sp)
   11290:	ff442283          	lw	t0,-12(s0)
   11294:	ffc10113          	addi	sp,sp,-4
   11298:	00512023          	sw	t0,0(sp)
   1129c:	00012283          	lw	t0,0(sp)
   112a0:	00410113          	addi	sp,sp,4
   112a4:	ffc10113          	addi	sp,sp,-4
   112a8:	00512023          	sw	t0,0(sp)
   112ac:	00412503          	lw	a0,4(sp)
   112b0:	00012583          	lw	a1,0(sp)
   112b4:	fffff097          	auipc	ra,0xfffff
   112b8:	e88080e7          	jalr	-376(ra) # 1013c <poke32__u32__u32>
   112bc:	00810113          	addi	sp,sp,8
   112c0:	ffc10113          	addi	sp,sp,-4
   112c4:	00a12023          	sw	a0,0(sp)
   112c8:	00410113          	addi	sp,sp,4
   112cc:	fe842283          	lw	t0,-24(s0)
   112d0:	ffc10113          	addi	sp,sp,-4
   112d4:	00512023          	sw	t0,0(sp)
   112d8:	00012283          	lw	t0,0(sp)
   112dc:	00410113          	addi	sp,sp,4
   112e0:	00028513          	mv	a0,t0
   112e4:	00040293          	mv	t0,s0
   112e8:	ffc2a083          	lw	ra,-4(t0)
   112ec:	ff82a403          	lw	s0,-8(t0)
   112f0:	00028113          	mv	sp,t0
   112f4:	00008067          	ret
   112f8:	00040293          	mv	t0,s0
   112fc:	ffc2a083          	lw	ra,-4(t0)
   11300:	ff82a403          	lw	s0,-8(t0)
   11304:	00028113          	mv	sp,t0
   11308:	00008067          	ret

0001130c <U8Array__i32>:
   1130c:	fe010113          	addi	sp,sp,-32
   11310:	00112e23          	sw	ra,28(sp)
   11314:	00812c23          	sw	s0,24(sp)
   11318:	02010413          	addi	s0,sp,32
   1131c:	fea42a23          	sw	a0,-12(s0)
   11320:	ff442283          	lw	t0,-12(s0)
   11324:	ffc10113          	addi	sp,sp,-4
   11328:	00512023          	sw	t0,0(sp)
   1132c:	ff442283          	lw	t0,-12(s0)
   11330:	ffc10113          	addi	sp,sp,-4
   11334:	00512023          	sw	t0,0(sp)
   11338:	00412503          	lw	a0,4(sp)
   1133c:	00012583          	lw	a1,0(sp)
   11340:	00000097          	auipc	ra,0x0
   11344:	e64080e7          	jalr	-412(ra) # 111a4 <new_array__i32__i32>
   11348:	00810113          	addi	sp,sp,8
   1134c:	ffc10113          	addi	sp,sp,-4
   11350:	00a12023          	sw	a0,0(sp)
   11354:	00012283          	lw	t0,0(sp)
   11358:	00410113          	addi	sp,sp,4
   1135c:	00028513          	mv	a0,t0
   11360:	00040293          	mv	t0,s0
   11364:	ffc2a083          	lw	ra,-4(t0)
   11368:	ff82a403          	lw	s0,-8(t0)
   1136c:	00028113          	mv	sp,t0
   11370:	00008067          	ret
   11374:	00040293          	mv	t0,s0
   11378:	ffc2a083          	lw	ra,-4(t0)
   1137c:	ff82a403          	lw	s0,-8(t0)
   11380:	00028113          	mv	sp,t0
   11384:	00008067          	ret

00011388 <U16Array__i32>:
   11388:	fe010113          	addi	sp,sp,-32
   1138c:	00112e23          	sw	ra,28(sp)
   11390:	00812c23          	sw	s0,24(sp)
   11394:	02010413          	addi	s0,sp,32
   11398:	fea42a23          	sw	a0,-12(s0)
   1139c:	ff442283          	lw	t0,-12(s0)
   113a0:	ffc10113          	addi	sp,sp,-4
   113a4:	00512023          	sw	t0,0(sp)
   113a8:	ff442283          	lw	t0,-12(s0)
   113ac:	ffc10113          	addi	sp,sp,-4
   113b0:	00512023          	sw	t0,0(sp)
   113b4:	00200293          	li	t0,2
   113b8:	ffc10113          	addi	sp,sp,-4
   113bc:	00512023          	sw	t0,0(sp)
   113c0:	00012303          	lw	t1,0(sp)
   113c4:	00412283          	lw	t0,4(sp)
   113c8:	00810113          	addi	sp,sp,8
   113cc:	026282b3          	mul	t0,t0,t1
   113d0:	ffc10113          	addi	sp,sp,-4
   113d4:	00512023          	sw	t0,0(sp)
   113d8:	00412503          	lw	a0,4(sp)
   113dc:	00012583          	lw	a1,0(sp)
   113e0:	00000097          	auipc	ra,0x0
   113e4:	dc4080e7          	jalr	-572(ra) # 111a4 <new_array__i32__i32>
   113e8:	00810113          	addi	sp,sp,8
   113ec:	ffc10113          	addi	sp,sp,-4
   113f0:	00a12023          	sw	a0,0(sp)
   113f4:	00012283          	lw	t0,0(sp)
   113f8:	00410113          	addi	sp,sp,4
   113fc:	00028513          	mv	a0,t0
   11400:	00040293          	mv	t0,s0
   11404:	ffc2a083          	lw	ra,-4(t0)
   11408:	ff82a403          	lw	s0,-8(t0)
   1140c:	00028113          	mv	sp,t0
   11410:	00008067          	ret
   11414:	00040293          	mv	t0,s0
   11418:	ffc2a083          	lw	ra,-4(t0)
   1141c:	ff82a403          	lw	s0,-8(t0)
   11420:	00028113          	mv	sp,t0
   11424:	00008067          	ret

00011428 <U32Array__i32>:
   11428:	fe010113          	addi	sp,sp,-32
   1142c:	00112e23          	sw	ra,28(sp)
   11430:	00812c23          	sw	s0,24(sp)
   11434:	02010413          	addi	s0,sp,32
   11438:	fea42a23          	sw	a0,-12(s0)
   1143c:	ff442283          	lw	t0,-12(s0)
   11440:	ffc10113          	addi	sp,sp,-4
   11444:	00512023          	sw	t0,0(sp)
   11448:	ff442283          	lw	t0,-12(s0)
   1144c:	ffc10113          	addi	sp,sp,-4
   11450:	00512023          	sw	t0,0(sp)
   11454:	00400293          	li	t0,4
   11458:	ffc10113          	addi	sp,sp,-4
   1145c:	00512023          	sw	t0,0(sp)
   11460:	00012303          	lw	t1,0(sp)
   11464:	00412283          	lw	t0,4(sp)
   11468:	00810113          	addi	sp,sp,8
   1146c:	026282b3          	mul	t0,t0,t1
   11470:	ffc10113          	addi	sp,sp,-4
   11474:	00512023          	sw	t0,0(sp)
   11478:	00412503          	lw	a0,4(sp)
   1147c:	00012583          	lw	a1,0(sp)
   11480:	00000097          	auipc	ra,0x0
   11484:	d24080e7          	jalr	-732(ra) # 111a4 <new_array__i32__i32>
   11488:	00810113          	addi	sp,sp,8
   1148c:	ffc10113          	addi	sp,sp,-4
   11490:	00a12023          	sw	a0,0(sp)
   11494:	00012283          	lw	t0,0(sp)
   11498:	00410113          	addi	sp,sp,4
   1149c:	00028513          	mv	a0,t0
   114a0:	00040293          	mv	t0,s0
   114a4:	ffc2a083          	lw	ra,-4(t0)
   114a8:	ff82a403          	lw	s0,-8(t0)
   114ac:	00028113          	mv	sp,t0
   114b0:	00008067          	ret
   114b4:	00040293          	mv	t0,s0
   114b8:	ffc2a083          	lw	ra,-4(t0)
   114bc:	ff82a403          	lw	s0,-8(t0)
   114c0:	00028113          	mv	sp,t0
   114c4:	00008067          	ret

000114c8 <I8Array__i32>:
   114c8:	fe010113          	addi	sp,sp,-32
   114cc:	00112e23          	sw	ra,28(sp)
   114d0:	00812c23          	sw	s0,24(sp)
   114d4:	02010413          	addi	s0,sp,32
   114d8:	fea42a23          	sw	a0,-12(s0)
   114dc:	ff442283          	lw	t0,-12(s0)
   114e0:	ffc10113          	addi	sp,sp,-4
   114e4:	00512023          	sw	t0,0(sp)
   114e8:	ff442283          	lw	t0,-12(s0)
   114ec:	ffc10113          	addi	sp,sp,-4
   114f0:	00512023          	sw	t0,0(sp)
   114f4:	00412503          	lw	a0,4(sp)
   114f8:	00012583          	lw	a1,0(sp)
   114fc:	00000097          	auipc	ra,0x0
   11500:	ca8080e7          	jalr	-856(ra) # 111a4 <new_array__i32__i32>
   11504:	00810113          	addi	sp,sp,8
   11508:	ffc10113          	addi	sp,sp,-4
   1150c:	00a12023          	sw	a0,0(sp)
   11510:	00012283          	lw	t0,0(sp)
   11514:	00410113          	addi	sp,sp,4
   11518:	00028513          	mv	a0,t0
   1151c:	00040293          	mv	t0,s0
   11520:	ffc2a083          	lw	ra,-4(t0)
   11524:	ff82a403          	lw	s0,-8(t0)
   11528:	00028113          	mv	sp,t0
   1152c:	00008067          	ret
   11530:	00040293          	mv	t0,s0
   11534:	ffc2a083          	lw	ra,-4(t0)
   11538:	ff82a403          	lw	s0,-8(t0)
   1153c:	00028113          	mv	sp,t0
   11540:	00008067          	ret

00011544 <I16Array__i32>:
   11544:	fe010113          	addi	sp,sp,-32
   11548:	00112e23          	sw	ra,28(sp)
   1154c:	00812c23          	sw	s0,24(sp)
   11550:	02010413          	addi	s0,sp,32
   11554:	fea42a23          	sw	a0,-12(s0)
   11558:	ff442283          	lw	t0,-12(s0)
   1155c:	ffc10113          	addi	sp,sp,-4
   11560:	00512023          	sw	t0,0(sp)
   11564:	ff442283          	lw	t0,-12(s0)
   11568:	ffc10113          	addi	sp,sp,-4
   1156c:	00512023          	sw	t0,0(sp)
   11570:	00200293          	li	t0,2
   11574:	ffc10113          	addi	sp,sp,-4
   11578:	00512023          	sw	t0,0(sp)
   1157c:	00012303          	lw	t1,0(sp)
   11580:	00412283          	lw	t0,4(sp)
   11584:	00810113          	addi	sp,sp,8
   11588:	026282b3          	mul	t0,t0,t1
   1158c:	ffc10113          	addi	sp,sp,-4
   11590:	00512023          	sw	t0,0(sp)
   11594:	00412503          	lw	a0,4(sp)
   11598:	00012583          	lw	a1,0(sp)
   1159c:	00000097          	auipc	ra,0x0
   115a0:	c08080e7          	jalr	-1016(ra) # 111a4 <new_array__i32__i32>
   115a4:	00810113          	addi	sp,sp,8
   115a8:	ffc10113          	addi	sp,sp,-4
   115ac:	00a12023          	sw	a0,0(sp)
   115b0:	00012283          	lw	t0,0(sp)
   115b4:	00410113          	addi	sp,sp,4
   115b8:	00028513          	mv	a0,t0
   115bc:	00040293          	mv	t0,s0
   115c0:	ffc2a083          	lw	ra,-4(t0)
   115c4:	ff82a403          	lw	s0,-8(t0)
   115c8:	00028113          	mv	sp,t0
   115cc:	00008067          	ret
   115d0:	00040293          	mv	t0,s0
   115d4:	ffc2a083          	lw	ra,-4(t0)
   115d8:	ff82a403          	lw	s0,-8(t0)
   115dc:	00028113          	mv	sp,t0
   115e0:	00008067          	ret

000115e4 <I32Array__i32>:
   115e4:	fe010113          	addi	sp,sp,-32
   115e8:	00112e23          	sw	ra,28(sp)
   115ec:	00812c23          	sw	s0,24(sp)
   115f0:	02010413          	addi	s0,sp,32
   115f4:	fea42a23          	sw	a0,-12(s0)
   115f8:	ff442283          	lw	t0,-12(s0)
   115fc:	ffc10113          	addi	sp,sp,-4
   11600:	00512023          	sw	t0,0(sp)
   11604:	ff442283          	lw	t0,-12(s0)
   11608:	ffc10113          	addi	sp,sp,-4
   1160c:	00512023          	sw	t0,0(sp)
   11610:	00400293          	li	t0,4
   11614:	ffc10113          	addi	sp,sp,-4
   11618:	00512023          	sw	t0,0(sp)
   1161c:	00012303          	lw	t1,0(sp)
   11620:	00412283          	lw	t0,4(sp)
   11624:	00810113          	addi	sp,sp,8
   11628:	026282b3          	mul	t0,t0,t1
   1162c:	ffc10113          	addi	sp,sp,-4
   11630:	00512023          	sw	t0,0(sp)
   11634:	00412503          	lw	a0,4(sp)
   11638:	00012583          	lw	a1,0(sp)
   1163c:	00000097          	auipc	ra,0x0
   11640:	b68080e7          	jalr	-1176(ra) # 111a4 <new_array__i32__i32>
   11644:	00810113          	addi	sp,sp,8
   11648:	ffc10113          	addi	sp,sp,-4
   1164c:	00a12023          	sw	a0,0(sp)
   11650:	00012283          	lw	t0,0(sp)
   11654:	00410113          	addi	sp,sp,4
   11658:	00028513          	mv	a0,t0
   1165c:	00040293          	mv	t0,s0
   11660:	ffc2a083          	lw	ra,-4(t0)
   11664:	ff82a403          	lw	s0,-8(t0)
   11668:	00028113          	mv	sp,t0
   1166c:	00008067          	ret
   11670:	00040293          	mv	t0,s0
   11674:	ffc2a083          	lw	ra,-4(t0)
   11678:	ff82a403          	lw	s0,-8(t0)
   1167c:	00028113          	mv	sp,t0
   11680:	00008067          	ret

00011684 <StringArray__i32>:
   11684:	fe010113          	addi	sp,sp,-32
   11688:	00112e23          	sw	ra,28(sp)
   1168c:	00812c23          	sw	s0,24(sp)
   11690:	02010413          	addi	s0,sp,32
   11694:	fea42a23          	sw	a0,-12(s0)
   11698:	ff442283          	lw	t0,-12(s0)
   1169c:	ffc10113          	addi	sp,sp,-4
   116a0:	00512023          	sw	t0,0(sp)
   116a4:	ff442283          	lw	t0,-12(s0)
   116a8:	ffc10113          	addi	sp,sp,-4
   116ac:	00512023          	sw	t0,0(sp)
   116b0:	00400293          	li	t0,4
   116b4:	ffc10113          	addi	sp,sp,-4
   116b8:	00512023          	sw	t0,0(sp)
   116bc:	00012303          	lw	t1,0(sp)
   116c0:	00412283          	lw	t0,4(sp)
   116c4:	00810113          	addi	sp,sp,8
   116c8:	026282b3          	mul	t0,t0,t1
   116cc:	ffc10113          	addi	sp,sp,-4
   116d0:	00512023          	sw	t0,0(sp)
   116d4:	00412503          	lw	a0,4(sp)
   116d8:	00012583          	lw	a1,0(sp)
   116dc:	00000097          	auipc	ra,0x0
   116e0:	ac8080e7          	jalr	-1336(ra) # 111a4 <new_array__i32__i32>
   116e4:	00810113          	addi	sp,sp,8
   116e8:	ffc10113          	addi	sp,sp,-4
   116ec:	00a12023          	sw	a0,0(sp)
   116f0:	00012283          	lw	t0,0(sp)
   116f4:	00410113          	addi	sp,sp,4
   116f8:	00028513          	mv	a0,t0
   116fc:	00040293          	mv	t0,s0
   11700:	ffc2a083          	lw	ra,-4(t0)
   11704:	ff82a403          	lw	s0,-8(t0)
   11708:	00028113          	mv	sp,t0
   1170c:	00008067          	ret
   11710:	00040293          	mv	t0,s0
   11714:	ffc2a083          	lw	ra,-4(t0)
   11718:	ff82a403          	lw	s0,-8(t0)
   1171c:	00028113          	mv	sp,t0
   11720:	00008067          	ret

00011724 <len__U8Array>:
   11724:	fe010113          	addi	sp,sp,-32
   11728:	00112e23          	sw	ra,28(sp)
   1172c:	00812c23          	sw	s0,24(sp)
   11730:	02010413          	addi	s0,sp,32
   11734:	fea42a23          	sw	a0,-12(s0)
   11738:	ff442283          	lw	t0,-12(s0)
   1173c:	ffc10113          	addi	sp,sp,-4
   11740:	00512023          	sw	t0,0(sp)
   11744:	00012283          	lw	t0,0(sp)
   11748:	00410113          	addi	sp,sp,4
   1174c:	ffc10113          	addi	sp,sp,-4
   11750:	00512023          	sw	t0,0(sp)
   11754:	00000293          	li	t0,0
   11758:	ffc10113          	addi	sp,sp,-4
   1175c:	00512023          	sw	t0,0(sp)
   11760:	00012303          	lw	t1,0(sp)
   11764:	00412283          	lw	t0,4(sp)
   11768:	00810113          	addi	sp,sp,8
   1176c:	406282b3          	sub	t0,t0,t1
   11770:	0012b293          	seqz	t0,t0
   11774:	ffc10113          	addi	sp,sp,-4
   11778:	00512023          	sw	t0,0(sp)
   1177c:	00012283          	lw	t0,0(sp)
   11780:	00410113          	addi	sp,sp,4
   11784:	02028863          	beqz	t0,117b4 <len__U8Array+0x90>
   11788:	00000293          	li	t0,0
   1178c:	ffc10113          	addi	sp,sp,-4
   11790:	00512023          	sw	t0,0(sp)
   11794:	00012283          	lw	t0,0(sp)
   11798:	00410113          	addi	sp,sp,4
   1179c:	00028513          	mv	a0,t0
   117a0:	00040293          	mv	t0,s0
   117a4:	ffc2a083          	lw	ra,-4(t0)
   117a8:	ff82a403          	lw	s0,-8(t0)
   117ac:	00028113          	mv	sp,t0
   117b0:	00008067          	ret
   117b4:	ff442283          	lw	t0,-12(s0)
   117b8:	ffc10113          	addi	sp,sp,-4
   117bc:	00512023          	sw	t0,0(sp)
   117c0:	00012283          	lw	t0,0(sp)
   117c4:	00410113          	addi	sp,sp,4
   117c8:	ffc10113          	addi	sp,sp,-4
   117cc:	00512023          	sw	t0,0(sp)
   117d0:	00012503          	lw	a0,0(sp)
   117d4:	fffff097          	auipc	ra,0xfffff
   117d8:	950080e7          	jalr	-1712(ra) # 10124 <peek32__u32>
   117dc:	00410113          	addi	sp,sp,4
   117e0:	ffc10113          	addi	sp,sp,-4
   117e4:	00a12023          	sw	a0,0(sp)
   117e8:	00012283          	lw	t0,0(sp)
   117ec:	00410113          	addi	sp,sp,4
   117f0:	ffc10113          	addi	sp,sp,-4
   117f4:	00512023          	sw	t0,0(sp)
   117f8:	00012283          	lw	t0,0(sp)
   117fc:	00410113          	addi	sp,sp,4
   11800:	00028513          	mv	a0,t0
   11804:	00040293          	mv	t0,s0
   11808:	ffc2a083          	lw	ra,-4(t0)
   1180c:	ff82a403          	lw	s0,-8(t0)
   11810:	00028113          	mv	sp,t0
   11814:	00008067          	ret
   11818:	00040293          	mv	t0,s0
   1181c:	ffc2a083          	lw	ra,-4(t0)
   11820:	ff82a403          	lw	s0,-8(t0)
   11824:	00028113          	mv	sp,t0
   11828:	00008067          	ret

0001182c <len__U16Array>:
   1182c:	fe010113          	addi	sp,sp,-32
   11830:	00112e23          	sw	ra,28(sp)
   11834:	00812c23          	sw	s0,24(sp)
   11838:	02010413          	addi	s0,sp,32
   1183c:	fea42a23          	sw	a0,-12(s0)
   11840:	ff442283          	lw	t0,-12(s0)
   11844:	ffc10113          	addi	sp,sp,-4
   11848:	00512023          	sw	t0,0(sp)
   1184c:	00012283          	lw	t0,0(sp)
   11850:	00410113          	addi	sp,sp,4
   11854:	ffc10113          	addi	sp,sp,-4
   11858:	00512023          	sw	t0,0(sp)
   1185c:	00000293          	li	t0,0
   11860:	ffc10113          	addi	sp,sp,-4
   11864:	00512023          	sw	t0,0(sp)
   11868:	00012303          	lw	t1,0(sp)
   1186c:	00412283          	lw	t0,4(sp)
   11870:	00810113          	addi	sp,sp,8
   11874:	406282b3          	sub	t0,t0,t1
   11878:	0012b293          	seqz	t0,t0
   1187c:	ffc10113          	addi	sp,sp,-4
   11880:	00512023          	sw	t0,0(sp)
   11884:	00012283          	lw	t0,0(sp)
   11888:	00410113          	addi	sp,sp,4
   1188c:	02028863          	beqz	t0,118bc <len__U16Array+0x90>
   11890:	00000293          	li	t0,0
   11894:	ffc10113          	addi	sp,sp,-4
   11898:	00512023          	sw	t0,0(sp)
   1189c:	00012283          	lw	t0,0(sp)
   118a0:	00410113          	addi	sp,sp,4
   118a4:	00028513          	mv	a0,t0
   118a8:	00040293          	mv	t0,s0
   118ac:	ffc2a083          	lw	ra,-4(t0)
   118b0:	ff82a403          	lw	s0,-8(t0)
   118b4:	00028113          	mv	sp,t0
   118b8:	00008067          	ret
   118bc:	ff442283          	lw	t0,-12(s0)
   118c0:	ffc10113          	addi	sp,sp,-4
   118c4:	00512023          	sw	t0,0(sp)
   118c8:	00012283          	lw	t0,0(sp)
   118cc:	00410113          	addi	sp,sp,4
   118d0:	ffc10113          	addi	sp,sp,-4
   118d4:	00512023          	sw	t0,0(sp)
   118d8:	00012503          	lw	a0,0(sp)
   118dc:	fffff097          	auipc	ra,0xfffff
   118e0:	848080e7          	jalr	-1976(ra) # 10124 <peek32__u32>
   118e4:	00410113          	addi	sp,sp,4
   118e8:	ffc10113          	addi	sp,sp,-4
   118ec:	00a12023          	sw	a0,0(sp)
   118f0:	00012283          	lw	t0,0(sp)
   118f4:	00410113          	addi	sp,sp,4
   118f8:	ffc10113          	addi	sp,sp,-4
   118fc:	00512023          	sw	t0,0(sp)
   11900:	00012283          	lw	t0,0(sp)
   11904:	00410113          	addi	sp,sp,4
   11908:	00028513          	mv	a0,t0
   1190c:	00040293          	mv	t0,s0
   11910:	ffc2a083          	lw	ra,-4(t0)
   11914:	ff82a403          	lw	s0,-8(t0)
   11918:	00028113          	mv	sp,t0
   1191c:	00008067          	ret
   11920:	00040293          	mv	t0,s0
   11924:	ffc2a083          	lw	ra,-4(t0)
   11928:	ff82a403          	lw	s0,-8(t0)
   1192c:	00028113          	mv	sp,t0
   11930:	00008067          	ret

00011934 <len__U32Array>:
   11934:	fe010113          	addi	sp,sp,-32
   11938:	00112e23          	sw	ra,28(sp)
   1193c:	00812c23          	sw	s0,24(sp)
   11940:	02010413          	addi	s0,sp,32
   11944:	fea42a23          	sw	a0,-12(s0)
   11948:	ff442283          	lw	t0,-12(s0)
   1194c:	ffc10113          	addi	sp,sp,-4
   11950:	00512023          	sw	t0,0(sp)
   11954:	00012283          	lw	t0,0(sp)
   11958:	00410113          	addi	sp,sp,4
   1195c:	ffc10113          	addi	sp,sp,-4
   11960:	00512023          	sw	t0,0(sp)
   11964:	00000293          	li	t0,0
   11968:	ffc10113          	addi	sp,sp,-4
   1196c:	00512023          	sw	t0,0(sp)
   11970:	00012303          	lw	t1,0(sp)
   11974:	00412283          	lw	t0,4(sp)
   11978:	00810113          	addi	sp,sp,8
   1197c:	406282b3          	sub	t0,t0,t1
   11980:	0012b293          	seqz	t0,t0
   11984:	ffc10113          	addi	sp,sp,-4
   11988:	00512023          	sw	t0,0(sp)
   1198c:	00012283          	lw	t0,0(sp)
   11990:	00410113          	addi	sp,sp,4
   11994:	02028863          	beqz	t0,119c4 <len__U32Array+0x90>
   11998:	00000293          	li	t0,0
   1199c:	ffc10113          	addi	sp,sp,-4
   119a0:	00512023          	sw	t0,0(sp)
   119a4:	00012283          	lw	t0,0(sp)
   119a8:	00410113          	addi	sp,sp,4
   119ac:	00028513          	mv	a0,t0
   119b0:	00040293          	mv	t0,s0
   119b4:	ffc2a083          	lw	ra,-4(t0)
   119b8:	ff82a403          	lw	s0,-8(t0)
   119bc:	00028113          	mv	sp,t0
   119c0:	00008067          	ret
   119c4:	ff442283          	lw	t0,-12(s0)
   119c8:	ffc10113          	addi	sp,sp,-4
   119cc:	00512023          	sw	t0,0(sp)
   119d0:	00012283          	lw	t0,0(sp)
   119d4:	00410113          	addi	sp,sp,4
   119d8:	ffc10113          	addi	sp,sp,-4
   119dc:	00512023          	sw	t0,0(sp)
   119e0:	00012503          	lw	a0,0(sp)
   119e4:	ffffe097          	auipc	ra,0xffffe
   119e8:	740080e7          	jalr	1856(ra) # 10124 <peek32__u32>
   119ec:	00410113          	addi	sp,sp,4
   119f0:	ffc10113          	addi	sp,sp,-4
   119f4:	00a12023          	sw	a0,0(sp)
   119f8:	00012283          	lw	t0,0(sp)
   119fc:	00410113          	addi	sp,sp,4
   11a00:	ffc10113          	addi	sp,sp,-4
   11a04:	00512023          	sw	t0,0(sp)
   11a08:	00012283          	lw	t0,0(sp)
   11a0c:	00410113          	addi	sp,sp,4
   11a10:	00028513          	mv	a0,t0
   11a14:	00040293          	mv	t0,s0
   11a18:	ffc2a083          	lw	ra,-4(t0)
   11a1c:	ff82a403          	lw	s0,-8(t0)
   11a20:	00028113          	mv	sp,t0
   11a24:	00008067          	ret
   11a28:	00040293          	mv	t0,s0
   11a2c:	ffc2a083          	lw	ra,-4(t0)
   11a30:	ff82a403          	lw	s0,-8(t0)
   11a34:	00028113          	mv	sp,t0
   11a38:	00008067          	ret

00011a3c <len__I8Array>:
   11a3c:	fe010113          	addi	sp,sp,-32
   11a40:	00112e23          	sw	ra,28(sp)
   11a44:	00812c23          	sw	s0,24(sp)
   11a48:	02010413          	addi	s0,sp,32
   11a4c:	fea42a23          	sw	a0,-12(s0)
   11a50:	ff442283          	lw	t0,-12(s0)
   11a54:	ffc10113          	addi	sp,sp,-4
   11a58:	00512023          	sw	t0,0(sp)
   11a5c:	00012283          	lw	t0,0(sp)
   11a60:	00410113          	addi	sp,sp,4
   11a64:	ffc10113          	addi	sp,sp,-4
   11a68:	00512023          	sw	t0,0(sp)
   11a6c:	00000293          	li	t0,0
   11a70:	ffc10113          	addi	sp,sp,-4
   11a74:	00512023          	sw	t0,0(sp)
   11a78:	00012303          	lw	t1,0(sp)
   11a7c:	00412283          	lw	t0,4(sp)
   11a80:	00810113          	addi	sp,sp,8
   11a84:	406282b3          	sub	t0,t0,t1
   11a88:	0012b293          	seqz	t0,t0
   11a8c:	ffc10113          	addi	sp,sp,-4
   11a90:	00512023          	sw	t0,0(sp)
   11a94:	00012283          	lw	t0,0(sp)
   11a98:	00410113          	addi	sp,sp,4
   11a9c:	02028863          	beqz	t0,11acc <len__I8Array+0x90>
   11aa0:	00000293          	li	t0,0
   11aa4:	ffc10113          	addi	sp,sp,-4
   11aa8:	00512023          	sw	t0,0(sp)
   11aac:	00012283          	lw	t0,0(sp)
   11ab0:	00410113          	addi	sp,sp,4
   11ab4:	00028513          	mv	a0,t0
   11ab8:	00040293          	mv	t0,s0
   11abc:	ffc2a083          	lw	ra,-4(t0)
   11ac0:	ff82a403          	lw	s0,-8(t0)
   11ac4:	00028113          	mv	sp,t0
   11ac8:	00008067          	ret
   11acc:	ff442283          	lw	t0,-12(s0)
   11ad0:	ffc10113          	addi	sp,sp,-4
   11ad4:	00512023          	sw	t0,0(sp)
   11ad8:	00012283          	lw	t0,0(sp)
   11adc:	00410113          	addi	sp,sp,4
   11ae0:	ffc10113          	addi	sp,sp,-4
   11ae4:	00512023          	sw	t0,0(sp)
   11ae8:	00012503          	lw	a0,0(sp)
   11aec:	ffffe097          	auipc	ra,0xffffe
   11af0:	638080e7          	jalr	1592(ra) # 10124 <peek32__u32>
   11af4:	00410113          	addi	sp,sp,4
   11af8:	ffc10113          	addi	sp,sp,-4
   11afc:	00a12023          	sw	a0,0(sp)
   11b00:	00012283          	lw	t0,0(sp)
   11b04:	00410113          	addi	sp,sp,4
   11b08:	ffc10113          	addi	sp,sp,-4
   11b0c:	00512023          	sw	t0,0(sp)
   11b10:	00012283          	lw	t0,0(sp)
   11b14:	00410113          	addi	sp,sp,4
   11b18:	00028513          	mv	a0,t0
   11b1c:	00040293          	mv	t0,s0
   11b20:	ffc2a083          	lw	ra,-4(t0)
   11b24:	ff82a403          	lw	s0,-8(t0)
   11b28:	00028113          	mv	sp,t0
   11b2c:	00008067          	ret
   11b30:	00040293          	mv	t0,s0
   11b34:	ffc2a083          	lw	ra,-4(t0)
   11b38:	ff82a403          	lw	s0,-8(t0)
   11b3c:	00028113          	mv	sp,t0
   11b40:	00008067          	ret

00011b44 <len__I16Array>:
   11b44:	fe010113          	addi	sp,sp,-32
   11b48:	00112e23          	sw	ra,28(sp)
   11b4c:	00812c23          	sw	s0,24(sp)
   11b50:	02010413          	addi	s0,sp,32
   11b54:	fea42a23          	sw	a0,-12(s0)
   11b58:	ff442283          	lw	t0,-12(s0)
   11b5c:	ffc10113          	addi	sp,sp,-4
   11b60:	00512023          	sw	t0,0(sp)
   11b64:	00012283          	lw	t0,0(sp)
   11b68:	00410113          	addi	sp,sp,4
   11b6c:	ffc10113          	addi	sp,sp,-4
   11b70:	00512023          	sw	t0,0(sp)
   11b74:	00000293          	li	t0,0
   11b78:	ffc10113          	addi	sp,sp,-4
   11b7c:	00512023          	sw	t0,0(sp)
   11b80:	00012303          	lw	t1,0(sp)
   11b84:	00412283          	lw	t0,4(sp)
   11b88:	00810113          	addi	sp,sp,8
   11b8c:	406282b3          	sub	t0,t0,t1
   11b90:	0012b293          	seqz	t0,t0
   11b94:	ffc10113          	addi	sp,sp,-4
   11b98:	00512023          	sw	t0,0(sp)
   11b9c:	00012283          	lw	t0,0(sp)
   11ba0:	00410113          	addi	sp,sp,4
   11ba4:	02028863          	beqz	t0,11bd4 <len__I16Array+0x90>
   11ba8:	00000293          	li	t0,0
   11bac:	ffc10113          	addi	sp,sp,-4
   11bb0:	00512023          	sw	t0,0(sp)
   11bb4:	00012283          	lw	t0,0(sp)
   11bb8:	00410113          	addi	sp,sp,4
   11bbc:	00028513          	mv	a0,t0
   11bc0:	00040293          	mv	t0,s0
   11bc4:	ffc2a083          	lw	ra,-4(t0)
   11bc8:	ff82a403          	lw	s0,-8(t0)
   11bcc:	00028113          	mv	sp,t0
   11bd0:	00008067          	ret
   11bd4:	ff442283          	lw	t0,-12(s0)
   11bd8:	ffc10113          	addi	sp,sp,-4
   11bdc:	00512023          	sw	t0,0(sp)
   11be0:	00012283          	lw	t0,0(sp)
   11be4:	00410113          	addi	sp,sp,4
   11be8:	ffc10113          	addi	sp,sp,-4
   11bec:	00512023          	sw	t0,0(sp)
   11bf0:	00012503          	lw	a0,0(sp)
   11bf4:	ffffe097          	auipc	ra,0xffffe
   11bf8:	530080e7          	jalr	1328(ra) # 10124 <peek32__u32>
   11bfc:	00410113          	addi	sp,sp,4
   11c00:	ffc10113          	addi	sp,sp,-4
   11c04:	00a12023          	sw	a0,0(sp)
   11c08:	00012283          	lw	t0,0(sp)
   11c0c:	00410113          	addi	sp,sp,4
   11c10:	ffc10113          	addi	sp,sp,-4
   11c14:	00512023          	sw	t0,0(sp)
   11c18:	00012283          	lw	t0,0(sp)
   11c1c:	00410113          	addi	sp,sp,4
   11c20:	00028513          	mv	a0,t0
   11c24:	00040293          	mv	t0,s0
   11c28:	ffc2a083          	lw	ra,-4(t0)
   11c2c:	ff82a403          	lw	s0,-8(t0)
   11c30:	00028113          	mv	sp,t0
   11c34:	00008067          	ret
   11c38:	00040293          	mv	t0,s0
   11c3c:	ffc2a083          	lw	ra,-4(t0)
   11c40:	ff82a403          	lw	s0,-8(t0)
   11c44:	00028113          	mv	sp,t0
   11c48:	00008067          	ret

00011c4c <len__I32Array>:
   11c4c:	fe010113          	addi	sp,sp,-32
   11c50:	00112e23          	sw	ra,28(sp)
   11c54:	00812c23          	sw	s0,24(sp)
   11c58:	02010413          	addi	s0,sp,32
   11c5c:	fea42a23          	sw	a0,-12(s0)
   11c60:	ff442283          	lw	t0,-12(s0)
   11c64:	ffc10113          	addi	sp,sp,-4
   11c68:	00512023          	sw	t0,0(sp)
   11c6c:	00012283          	lw	t0,0(sp)
   11c70:	00410113          	addi	sp,sp,4
   11c74:	ffc10113          	addi	sp,sp,-4
   11c78:	00512023          	sw	t0,0(sp)
   11c7c:	00000293          	li	t0,0
   11c80:	ffc10113          	addi	sp,sp,-4
   11c84:	00512023          	sw	t0,0(sp)
   11c88:	00012303          	lw	t1,0(sp)
   11c8c:	00412283          	lw	t0,4(sp)
   11c90:	00810113          	addi	sp,sp,8
   11c94:	406282b3          	sub	t0,t0,t1
   11c98:	0012b293          	seqz	t0,t0
   11c9c:	ffc10113          	addi	sp,sp,-4
   11ca0:	00512023          	sw	t0,0(sp)
   11ca4:	00012283          	lw	t0,0(sp)
   11ca8:	00410113          	addi	sp,sp,4
   11cac:	02028863          	beqz	t0,11cdc <len__I32Array+0x90>
   11cb0:	00000293          	li	t0,0
   11cb4:	ffc10113          	addi	sp,sp,-4
   11cb8:	00512023          	sw	t0,0(sp)
   11cbc:	00012283          	lw	t0,0(sp)
   11cc0:	00410113          	addi	sp,sp,4
   11cc4:	00028513          	mv	a0,t0
   11cc8:	00040293          	mv	t0,s0
   11ccc:	ffc2a083          	lw	ra,-4(t0)
   11cd0:	ff82a403          	lw	s0,-8(t0)
   11cd4:	00028113          	mv	sp,t0
   11cd8:	00008067          	ret
   11cdc:	ff442283          	lw	t0,-12(s0)
   11ce0:	ffc10113          	addi	sp,sp,-4
   11ce4:	00512023          	sw	t0,0(sp)
   11ce8:	00012283          	lw	t0,0(sp)
   11cec:	00410113          	addi	sp,sp,4
   11cf0:	ffc10113          	addi	sp,sp,-4
   11cf4:	00512023          	sw	t0,0(sp)
   11cf8:	00012503          	lw	a0,0(sp)
   11cfc:	ffffe097          	auipc	ra,0xffffe
   11d00:	428080e7          	jalr	1064(ra) # 10124 <peek32__u32>
   11d04:	00410113          	addi	sp,sp,4
   11d08:	ffc10113          	addi	sp,sp,-4
   11d0c:	00a12023          	sw	a0,0(sp)
   11d10:	00012283          	lw	t0,0(sp)
   11d14:	00410113          	addi	sp,sp,4
   11d18:	ffc10113          	addi	sp,sp,-4
   11d1c:	00512023          	sw	t0,0(sp)
   11d20:	00012283          	lw	t0,0(sp)
   11d24:	00410113          	addi	sp,sp,4
   11d28:	00028513          	mv	a0,t0
   11d2c:	00040293          	mv	t0,s0
   11d30:	ffc2a083          	lw	ra,-4(t0)
   11d34:	ff82a403          	lw	s0,-8(t0)
   11d38:	00028113          	mv	sp,t0
   11d3c:	00008067          	ret
   11d40:	00040293          	mv	t0,s0
   11d44:	ffc2a083          	lw	ra,-4(t0)
   11d48:	ff82a403          	lw	s0,-8(t0)
   11d4c:	00028113          	mv	sp,t0
   11d50:	00008067          	ret

00011d54 <len__StringArray>:
   11d54:	fe010113          	addi	sp,sp,-32
   11d58:	00112e23          	sw	ra,28(sp)
   11d5c:	00812c23          	sw	s0,24(sp)
   11d60:	02010413          	addi	s0,sp,32
   11d64:	fea42a23          	sw	a0,-12(s0)
   11d68:	ff442283          	lw	t0,-12(s0)
   11d6c:	ffc10113          	addi	sp,sp,-4
   11d70:	00512023          	sw	t0,0(sp)
   11d74:	00012283          	lw	t0,0(sp)
   11d78:	00410113          	addi	sp,sp,4
   11d7c:	ffc10113          	addi	sp,sp,-4
   11d80:	00512023          	sw	t0,0(sp)
   11d84:	00000293          	li	t0,0
   11d88:	ffc10113          	addi	sp,sp,-4
   11d8c:	00512023          	sw	t0,0(sp)
   11d90:	00012303          	lw	t1,0(sp)
   11d94:	00412283          	lw	t0,4(sp)
   11d98:	00810113          	addi	sp,sp,8
   11d9c:	406282b3          	sub	t0,t0,t1
   11da0:	0012b293          	seqz	t0,t0
   11da4:	ffc10113          	addi	sp,sp,-4
   11da8:	00512023          	sw	t0,0(sp)
   11dac:	00012283          	lw	t0,0(sp)
   11db0:	00410113          	addi	sp,sp,4
   11db4:	02028863          	beqz	t0,11de4 <len__StringArray+0x90>
   11db8:	00000293          	li	t0,0
   11dbc:	ffc10113          	addi	sp,sp,-4
   11dc0:	00512023          	sw	t0,0(sp)
   11dc4:	00012283          	lw	t0,0(sp)
   11dc8:	00410113          	addi	sp,sp,4
   11dcc:	00028513          	mv	a0,t0
   11dd0:	00040293          	mv	t0,s0
   11dd4:	ffc2a083          	lw	ra,-4(t0)
   11dd8:	ff82a403          	lw	s0,-8(t0)
   11ddc:	00028113          	mv	sp,t0
   11de0:	00008067          	ret
   11de4:	ff442283          	lw	t0,-12(s0)
   11de8:	ffc10113          	addi	sp,sp,-4
   11dec:	00512023          	sw	t0,0(sp)
   11df0:	00012283          	lw	t0,0(sp)
   11df4:	00410113          	addi	sp,sp,4
   11df8:	ffc10113          	addi	sp,sp,-4
   11dfc:	00512023          	sw	t0,0(sp)
   11e00:	00012503          	lw	a0,0(sp)
   11e04:	ffffe097          	auipc	ra,0xffffe
   11e08:	320080e7          	jalr	800(ra) # 10124 <peek32__u32>
   11e0c:	00410113          	addi	sp,sp,4
   11e10:	ffc10113          	addi	sp,sp,-4
   11e14:	00a12023          	sw	a0,0(sp)
   11e18:	00012283          	lw	t0,0(sp)
   11e1c:	00410113          	addi	sp,sp,4
   11e20:	ffc10113          	addi	sp,sp,-4
   11e24:	00512023          	sw	t0,0(sp)
   11e28:	00012283          	lw	t0,0(sp)
   11e2c:	00410113          	addi	sp,sp,4
   11e30:	00028513          	mv	a0,t0
   11e34:	00040293          	mv	t0,s0
   11e38:	ffc2a083          	lw	ra,-4(t0)
   11e3c:	ff82a403          	lw	s0,-8(t0)
   11e40:	00028113          	mv	sp,t0
   11e44:	00008067          	ret
   11e48:	00040293          	mv	t0,s0
   11e4c:	ffc2a083          	lw	ra,-4(t0)
   11e50:	ff82a403          	lw	s0,-8(t0)
   11e54:	00028113          	mv	sp,t0
   11e58:	00008067          	ret

00011e5c <len__String>:
   11e5c:	fe010113          	addi	sp,sp,-32
   11e60:	00112e23          	sw	ra,28(sp)
   11e64:	00812c23          	sw	s0,24(sp)
   11e68:	02010413          	addi	s0,sp,32
   11e6c:	fea42a23          	sw	a0,-12(s0)
   11e70:	ff442283          	lw	t0,-12(s0)
   11e74:	ffc10113          	addi	sp,sp,-4
   11e78:	00512023          	sw	t0,0(sp)
   11e7c:	00012283          	lw	t0,0(sp)
   11e80:	00410113          	addi	sp,sp,4
   11e84:	ffc10113          	addi	sp,sp,-4
   11e88:	00512023          	sw	t0,0(sp)
   11e8c:	00000293          	li	t0,0
   11e90:	ffc10113          	addi	sp,sp,-4
   11e94:	00512023          	sw	t0,0(sp)
   11e98:	00012303          	lw	t1,0(sp)
   11e9c:	00412283          	lw	t0,4(sp)
   11ea0:	00810113          	addi	sp,sp,8
   11ea4:	406282b3          	sub	t0,t0,t1
   11ea8:	0012b293          	seqz	t0,t0
   11eac:	ffc10113          	addi	sp,sp,-4
   11eb0:	00512023          	sw	t0,0(sp)
   11eb4:	00012283          	lw	t0,0(sp)
   11eb8:	00410113          	addi	sp,sp,4
   11ebc:	02028863          	beqz	t0,11eec <len__String+0x90>
   11ec0:	00000293          	li	t0,0
   11ec4:	ffc10113          	addi	sp,sp,-4
   11ec8:	00512023          	sw	t0,0(sp)
   11ecc:	00012283          	lw	t0,0(sp)
   11ed0:	00410113          	addi	sp,sp,4
   11ed4:	00028513          	mv	a0,t0
   11ed8:	00040293          	mv	t0,s0
   11edc:	ffc2a083          	lw	ra,-4(t0)
   11ee0:	ff82a403          	lw	s0,-8(t0)
   11ee4:	00028113          	mv	sp,t0
   11ee8:	00008067          	ret
   11eec:	ff442283          	lw	t0,-12(s0)
   11ef0:	ffc10113          	addi	sp,sp,-4
   11ef4:	00512023          	sw	t0,0(sp)
   11ef8:	00012283          	lw	t0,0(sp)
   11efc:	00410113          	addi	sp,sp,4
   11f00:	ffc10113          	addi	sp,sp,-4
   11f04:	00512023          	sw	t0,0(sp)
   11f08:	00012503          	lw	a0,0(sp)
   11f0c:	ffffe097          	auipc	ra,0xffffe
   11f10:	218080e7          	jalr	536(ra) # 10124 <peek32__u32>
   11f14:	00410113          	addi	sp,sp,4
   11f18:	ffc10113          	addi	sp,sp,-4
   11f1c:	00a12023          	sw	a0,0(sp)
   11f20:	00012283          	lw	t0,0(sp)
   11f24:	00410113          	addi	sp,sp,4
   11f28:	ffc10113          	addi	sp,sp,-4
   11f2c:	00512023          	sw	t0,0(sp)
   11f30:	00012283          	lw	t0,0(sp)
   11f34:	00410113          	addi	sp,sp,4
   11f38:	00028513          	mv	a0,t0
   11f3c:	00040293          	mv	t0,s0
   11f40:	ffc2a083          	lw	ra,-4(t0)
   11f44:	ff82a403          	lw	s0,-8(t0)
   11f48:	00028113          	mv	sp,t0
   11f4c:	00008067          	ret
   11f50:	00040293          	mv	t0,s0
   11f54:	ffc2a083          	lw	ra,-4(t0)
   11f58:	ff82a403          	lw	s0,-8(t0)
   11f5c:	00028113          	mv	sp,t0
   11f60:	00008067          	ret

00011f64 <len__StringLiteral>:
   11f64:	fe010113          	addi	sp,sp,-32
   11f68:	00112e23          	sw	ra,28(sp)
   11f6c:	00812c23          	sw	s0,24(sp)
   11f70:	02010413          	addi	s0,sp,32
   11f74:	fea42a23          	sw	a0,-12(s0)
   11f78:	ff442283          	lw	t0,-12(s0)
   11f7c:	ffc10113          	addi	sp,sp,-4
   11f80:	00512023          	sw	t0,0(sp)
   11f84:	00012283          	lw	t0,0(sp)
   11f88:	00410113          	addi	sp,sp,4
   11f8c:	ffc10113          	addi	sp,sp,-4
   11f90:	00512023          	sw	t0,0(sp)
   11f94:	00000293          	li	t0,0
   11f98:	ffc10113          	addi	sp,sp,-4
   11f9c:	00512023          	sw	t0,0(sp)
   11fa0:	00012303          	lw	t1,0(sp)
   11fa4:	00412283          	lw	t0,4(sp)
   11fa8:	00810113          	addi	sp,sp,8
   11fac:	406282b3          	sub	t0,t0,t1
   11fb0:	0012b293          	seqz	t0,t0
   11fb4:	ffc10113          	addi	sp,sp,-4
   11fb8:	00512023          	sw	t0,0(sp)
   11fbc:	00012283          	lw	t0,0(sp)
   11fc0:	00410113          	addi	sp,sp,4
   11fc4:	02028863          	beqz	t0,11ff4 <len__StringLiteral+0x90>
   11fc8:	00000293          	li	t0,0
   11fcc:	ffc10113          	addi	sp,sp,-4
   11fd0:	00512023          	sw	t0,0(sp)
   11fd4:	00012283          	lw	t0,0(sp)
   11fd8:	00410113          	addi	sp,sp,4
   11fdc:	00028513          	mv	a0,t0
   11fe0:	00040293          	mv	t0,s0
   11fe4:	ffc2a083          	lw	ra,-4(t0)
   11fe8:	ff82a403          	lw	s0,-8(t0)
   11fec:	00028113          	mv	sp,t0
   11ff0:	00008067          	ret
   11ff4:	ff442283          	lw	t0,-12(s0)
   11ff8:	ffc10113          	addi	sp,sp,-4
   11ffc:	00512023          	sw	t0,0(sp)
   12000:	00012283          	lw	t0,0(sp)
   12004:	00410113          	addi	sp,sp,4
   12008:	ffc10113          	addi	sp,sp,-4
   1200c:	00512023          	sw	t0,0(sp)
   12010:	00012503          	lw	a0,0(sp)
   12014:	ffffe097          	auipc	ra,0xffffe
   12018:	110080e7          	jalr	272(ra) # 10124 <peek32__u32>
   1201c:	00410113          	addi	sp,sp,4
   12020:	ffc10113          	addi	sp,sp,-4
   12024:	00a12023          	sw	a0,0(sp)
   12028:	00012283          	lw	t0,0(sp)
   1202c:	00410113          	addi	sp,sp,4
   12030:	ffc10113          	addi	sp,sp,-4
   12034:	00512023          	sw	t0,0(sp)
   12038:	00012283          	lw	t0,0(sp)
   1203c:	00410113          	addi	sp,sp,4
   12040:	00028513          	mv	a0,t0
   12044:	00040293          	mv	t0,s0
   12048:	ffc2a083          	lw	ra,-4(t0)
   1204c:	ff82a403          	lw	s0,-8(t0)
   12050:	00028113          	mv	sp,t0
   12054:	00008067          	ret
   12058:	00040293          	mv	t0,s0
   1205c:	ffc2a083          	lw	ra,-4(t0)
   12060:	ff82a403          	lw	s0,-8(t0)
   12064:	00028113          	mv	sp,t0
   12068:	00008067          	ret

0001206c <get__U8Array__i32>:
   1206c:	fe010113          	addi	sp,sp,-32
   12070:	00112e23          	sw	ra,28(sp)
   12074:	00812c23          	sw	s0,24(sp)
   12078:	02010413          	addi	s0,sp,32
   1207c:	fea42a23          	sw	a0,-12(s0)
   12080:	feb42823          	sw	a1,-16(s0)
   12084:	ff442283          	lw	t0,-12(s0)
   12088:	ffc10113          	addi	sp,sp,-4
   1208c:	00512023          	sw	t0,0(sp)
   12090:	00012283          	lw	t0,0(sp)
   12094:	00410113          	addi	sp,sp,4
   12098:	ffc10113          	addi	sp,sp,-4
   1209c:	00512023          	sw	t0,0(sp)
   120a0:	00400293          	li	t0,4
   120a4:	ffc10113          	addi	sp,sp,-4
   120a8:	00512023          	sw	t0,0(sp)
   120ac:	00012303          	lw	t1,0(sp)
   120b0:	00412283          	lw	t0,4(sp)
   120b4:	00810113          	addi	sp,sp,8
   120b8:	006282b3          	add	t0,t0,t1
   120bc:	ffc10113          	addi	sp,sp,-4
   120c0:	00512023          	sw	t0,0(sp)
   120c4:	ff042283          	lw	t0,-16(s0)
   120c8:	ffc10113          	addi	sp,sp,-4
   120cc:	00512023          	sw	t0,0(sp)
   120d0:	00012283          	lw	t0,0(sp)
   120d4:	00410113          	addi	sp,sp,4
   120d8:	ffc10113          	addi	sp,sp,-4
   120dc:	00512023          	sw	t0,0(sp)
   120e0:	00012303          	lw	t1,0(sp)
   120e4:	00412283          	lw	t0,4(sp)
   120e8:	00810113          	addi	sp,sp,8
   120ec:	006282b3          	add	t0,t0,t1
   120f0:	ffc10113          	addi	sp,sp,-4
   120f4:	00512023          	sw	t0,0(sp)
   120f8:	00012503          	lw	a0,0(sp)
   120fc:	ffffe097          	auipc	ra,0xffffe
   12100:	018080e7          	jalr	24(ra) # 10114 <peek8__u32>
   12104:	00410113          	addi	sp,sp,4
   12108:	ffc10113          	addi	sp,sp,-4
   1210c:	00a12023          	sw	a0,0(sp)
   12110:	00012283          	lw	t0,0(sp)
   12114:	00410113          	addi	sp,sp,4
   12118:	0ff2f293          	zext.b	t0,t0
   1211c:	ffc10113          	addi	sp,sp,-4
   12120:	00512023          	sw	t0,0(sp)
   12124:	00012283          	lw	t0,0(sp)
   12128:	00410113          	addi	sp,sp,4
   1212c:	00028513          	mv	a0,t0
   12130:	00040293          	mv	t0,s0
   12134:	ffc2a083          	lw	ra,-4(t0)
   12138:	ff82a403          	lw	s0,-8(t0)
   1213c:	00028113          	mv	sp,t0
   12140:	00008067          	ret
   12144:	00040293          	mv	t0,s0
   12148:	ffc2a083          	lw	ra,-4(t0)
   1214c:	ff82a403          	lw	s0,-8(t0)
   12150:	00028113          	mv	sp,t0
   12154:	00008067          	ret

00012158 <get__U16Array__i32>:
   12158:	fe010113          	addi	sp,sp,-32
   1215c:	00112e23          	sw	ra,28(sp)
   12160:	00812c23          	sw	s0,24(sp)
   12164:	02010413          	addi	s0,sp,32
   12168:	fea42a23          	sw	a0,-12(s0)
   1216c:	feb42823          	sw	a1,-16(s0)
   12170:	ff442283          	lw	t0,-12(s0)
   12174:	ffc10113          	addi	sp,sp,-4
   12178:	00512023          	sw	t0,0(sp)
   1217c:	00012283          	lw	t0,0(sp)
   12180:	00410113          	addi	sp,sp,4
   12184:	ffc10113          	addi	sp,sp,-4
   12188:	00512023          	sw	t0,0(sp)
   1218c:	00400293          	li	t0,4
   12190:	ffc10113          	addi	sp,sp,-4
   12194:	00512023          	sw	t0,0(sp)
   12198:	00012303          	lw	t1,0(sp)
   1219c:	00412283          	lw	t0,4(sp)
   121a0:	00810113          	addi	sp,sp,8
   121a4:	006282b3          	add	t0,t0,t1
   121a8:	ffc10113          	addi	sp,sp,-4
   121ac:	00512023          	sw	t0,0(sp)
   121b0:	ff042283          	lw	t0,-16(s0)
   121b4:	ffc10113          	addi	sp,sp,-4
   121b8:	00512023          	sw	t0,0(sp)
   121bc:	00200293          	li	t0,2
   121c0:	ffc10113          	addi	sp,sp,-4
   121c4:	00512023          	sw	t0,0(sp)
   121c8:	00012303          	lw	t1,0(sp)
   121cc:	00412283          	lw	t0,4(sp)
   121d0:	00810113          	addi	sp,sp,8
   121d4:	026282b3          	mul	t0,t0,t1
   121d8:	ffc10113          	addi	sp,sp,-4
   121dc:	00512023          	sw	t0,0(sp)
   121e0:	00012283          	lw	t0,0(sp)
   121e4:	00410113          	addi	sp,sp,4
   121e8:	ffc10113          	addi	sp,sp,-4
   121ec:	00512023          	sw	t0,0(sp)
   121f0:	00012303          	lw	t1,0(sp)
   121f4:	00412283          	lw	t0,4(sp)
   121f8:	00810113          	addi	sp,sp,8
   121fc:	006282b3          	add	t0,t0,t1
   12200:	ffc10113          	addi	sp,sp,-4
   12204:	00512023          	sw	t0,0(sp)
   12208:	00012503          	lw	a0,0(sp)
   1220c:	ffffe097          	auipc	ra,0xffffe
   12210:	f10080e7          	jalr	-240(ra) # 1011c <peek16__u32>
   12214:	00410113          	addi	sp,sp,4
   12218:	ffc10113          	addi	sp,sp,-4
   1221c:	00a12023          	sw	a0,0(sp)
   12220:	00012283          	lw	t0,0(sp)
   12224:	00410113          	addi	sp,sp,4
   12228:	01029293          	slli	t0,t0,0x10
   1222c:	0102d293          	srli	t0,t0,0x10
   12230:	ffc10113          	addi	sp,sp,-4
   12234:	00512023          	sw	t0,0(sp)
   12238:	00012283          	lw	t0,0(sp)
   1223c:	00410113          	addi	sp,sp,4
   12240:	00028513          	mv	a0,t0
   12244:	00040293          	mv	t0,s0
   12248:	ffc2a083          	lw	ra,-4(t0)
   1224c:	ff82a403          	lw	s0,-8(t0)
   12250:	00028113          	mv	sp,t0
   12254:	00008067          	ret
   12258:	00040293          	mv	t0,s0
   1225c:	ffc2a083          	lw	ra,-4(t0)
   12260:	ff82a403          	lw	s0,-8(t0)
   12264:	00028113          	mv	sp,t0
   12268:	00008067          	ret

0001226c <get__U32Array__i32>:
   1226c:	fe010113          	addi	sp,sp,-32
   12270:	00112e23          	sw	ra,28(sp)
   12274:	00812c23          	sw	s0,24(sp)
   12278:	02010413          	addi	s0,sp,32
   1227c:	fea42a23          	sw	a0,-12(s0)
   12280:	feb42823          	sw	a1,-16(s0)
   12284:	ff442283          	lw	t0,-12(s0)
   12288:	ffc10113          	addi	sp,sp,-4
   1228c:	00512023          	sw	t0,0(sp)
   12290:	00012283          	lw	t0,0(sp)
   12294:	00410113          	addi	sp,sp,4
   12298:	ffc10113          	addi	sp,sp,-4
   1229c:	00512023          	sw	t0,0(sp)
   122a0:	00400293          	li	t0,4
   122a4:	ffc10113          	addi	sp,sp,-4
   122a8:	00512023          	sw	t0,0(sp)
   122ac:	00012303          	lw	t1,0(sp)
   122b0:	00412283          	lw	t0,4(sp)
   122b4:	00810113          	addi	sp,sp,8
   122b8:	006282b3          	add	t0,t0,t1
   122bc:	ffc10113          	addi	sp,sp,-4
   122c0:	00512023          	sw	t0,0(sp)
   122c4:	ff042283          	lw	t0,-16(s0)
   122c8:	ffc10113          	addi	sp,sp,-4
   122cc:	00512023          	sw	t0,0(sp)
   122d0:	00400293          	li	t0,4
   122d4:	ffc10113          	addi	sp,sp,-4
   122d8:	00512023          	sw	t0,0(sp)
   122dc:	00012303          	lw	t1,0(sp)
   122e0:	00412283          	lw	t0,4(sp)
   122e4:	00810113          	addi	sp,sp,8
   122e8:	026282b3          	mul	t0,t0,t1
   122ec:	ffc10113          	addi	sp,sp,-4
   122f0:	00512023          	sw	t0,0(sp)
   122f4:	00012283          	lw	t0,0(sp)
   122f8:	00410113          	addi	sp,sp,4
   122fc:	ffc10113          	addi	sp,sp,-4
   12300:	00512023          	sw	t0,0(sp)
   12304:	00012303          	lw	t1,0(sp)
   12308:	00412283          	lw	t0,4(sp)
   1230c:	00810113          	addi	sp,sp,8
   12310:	006282b3          	add	t0,t0,t1
   12314:	ffc10113          	addi	sp,sp,-4
   12318:	00512023          	sw	t0,0(sp)
   1231c:	00012503          	lw	a0,0(sp)
   12320:	ffffe097          	auipc	ra,0xffffe
   12324:	e04080e7          	jalr	-508(ra) # 10124 <peek32__u32>
   12328:	00410113          	addi	sp,sp,4
   1232c:	ffc10113          	addi	sp,sp,-4
   12330:	00a12023          	sw	a0,0(sp)
   12334:	00012283          	lw	t0,0(sp)
   12338:	00410113          	addi	sp,sp,4
   1233c:	00028513          	mv	a0,t0
   12340:	00040293          	mv	t0,s0
   12344:	ffc2a083          	lw	ra,-4(t0)
   12348:	ff82a403          	lw	s0,-8(t0)
   1234c:	00028113          	mv	sp,t0
   12350:	00008067          	ret
   12354:	00040293          	mv	t0,s0
   12358:	ffc2a083          	lw	ra,-4(t0)
   1235c:	ff82a403          	lw	s0,-8(t0)
   12360:	00028113          	mv	sp,t0
   12364:	00008067          	ret

00012368 <get__I8Array__i32>:
   12368:	fe010113          	addi	sp,sp,-32
   1236c:	00112e23          	sw	ra,28(sp)
   12370:	00812c23          	sw	s0,24(sp)
   12374:	02010413          	addi	s0,sp,32
   12378:	fea42a23          	sw	a0,-12(s0)
   1237c:	feb42823          	sw	a1,-16(s0)
   12380:	ff442283          	lw	t0,-12(s0)
   12384:	ffc10113          	addi	sp,sp,-4
   12388:	00512023          	sw	t0,0(sp)
   1238c:	00012283          	lw	t0,0(sp)
   12390:	00410113          	addi	sp,sp,4
   12394:	ffc10113          	addi	sp,sp,-4
   12398:	00512023          	sw	t0,0(sp)
   1239c:	00400293          	li	t0,4
   123a0:	ffc10113          	addi	sp,sp,-4
   123a4:	00512023          	sw	t0,0(sp)
   123a8:	00012303          	lw	t1,0(sp)
   123ac:	00412283          	lw	t0,4(sp)
   123b0:	00810113          	addi	sp,sp,8
   123b4:	006282b3          	add	t0,t0,t1
   123b8:	ffc10113          	addi	sp,sp,-4
   123bc:	00512023          	sw	t0,0(sp)
   123c0:	ff042283          	lw	t0,-16(s0)
   123c4:	ffc10113          	addi	sp,sp,-4
   123c8:	00512023          	sw	t0,0(sp)
   123cc:	00012283          	lw	t0,0(sp)
   123d0:	00410113          	addi	sp,sp,4
   123d4:	ffc10113          	addi	sp,sp,-4
   123d8:	00512023          	sw	t0,0(sp)
   123dc:	00012303          	lw	t1,0(sp)
   123e0:	00412283          	lw	t0,4(sp)
   123e4:	00810113          	addi	sp,sp,8
   123e8:	006282b3          	add	t0,t0,t1
   123ec:	ffc10113          	addi	sp,sp,-4
   123f0:	00512023          	sw	t0,0(sp)
   123f4:	00012503          	lw	a0,0(sp)
   123f8:	ffffe097          	auipc	ra,0xffffe
   123fc:	d1c080e7          	jalr	-740(ra) # 10114 <peek8__u32>
   12400:	00410113          	addi	sp,sp,4
   12404:	ffc10113          	addi	sp,sp,-4
   12408:	00a12023          	sw	a0,0(sp)
   1240c:	00012283          	lw	t0,0(sp)
   12410:	00410113          	addi	sp,sp,4
   12414:	01829293          	slli	t0,t0,0x18
   12418:	4182d293          	srai	t0,t0,0x18
   1241c:	ffc10113          	addi	sp,sp,-4
   12420:	00512023          	sw	t0,0(sp)
   12424:	00012283          	lw	t0,0(sp)
   12428:	00410113          	addi	sp,sp,4
   1242c:	00028513          	mv	a0,t0
   12430:	00040293          	mv	t0,s0
   12434:	ffc2a083          	lw	ra,-4(t0)
   12438:	ff82a403          	lw	s0,-8(t0)
   1243c:	00028113          	mv	sp,t0
   12440:	00008067          	ret
   12444:	00040293          	mv	t0,s0
   12448:	ffc2a083          	lw	ra,-4(t0)
   1244c:	ff82a403          	lw	s0,-8(t0)
   12450:	00028113          	mv	sp,t0
   12454:	00008067          	ret

00012458 <get__I16Array__i32>:
   12458:	fe010113          	addi	sp,sp,-32
   1245c:	00112e23          	sw	ra,28(sp)
   12460:	00812c23          	sw	s0,24(sp)
   12464:	02010413          	addi	s0,sp,32
   12468:	fea42a23          	sw	a0,-12(s0)
   1246c:	feb42823          	sw	a1,-16(s0)
   12470:	ff442283          	lw	t0,-12(s0)
   12474:	ffc10113          	addi	sp,sp,-4
   12478:	00512023          	sw	t0,0(sp)
   1247c:	00012283          	lw	t0,0(sp)
   12480:	00410113          	addi	sp,sp,4
   12484:	ffc10113          	addi	sp,sp,-4
   12488:	00512023          	sw	t0,0(sp)
   1248c:	00400293          	li	t0,4
   12490:	ffc10113          	addi	sp,sp,-4
   12494:	00512023          	sw	t0,0(sp)
   12498:	00012303          	lw	t1,0(sp)
   1249c:	00412283          	lw	t0,4(sp)
   124a0:	00810113          	addi	sp,sp,8
   124a4:	006282b3          	add	t0,t0,t1
   124a8:	ffc10113          	addi	sp,sp,-4
   124ac:	00512023          	sw	t0,0(sp)
   124b0:	ff042283          	lw	t0,-16(s0)
   124b4:	ffc10113          	addi	sp,sp,-4
   124b8:	00512023          	sw	t0,0(sp)
   124bc:	00200293          	li	t0,2
   124c0:	ffc10113          	addi	sp,sp,-4
   124c4:	00512023          	sw	t0,0(sp)
   124c8:	00012303          	lw	t1,0(sp)
   124cc:	00412283          	lw	t0,4(sp)
   124d0:	00810113          	addi	sp,sp,8
   124d4:	026282b3          	mul	t0,t0,t1
   124d8:	ffc10113          	addi	sp,sp,-4
   124dc:	00512023          	sw	t0,0(sp)
   124e0:	00012283          	lw	t0,0(sp)
   124e4:	00410113          	addi	sp,sp,4
   124e8:	ffc10113          	addi	sp,sp,-4
   124ec:	00512023          	sw	t0,0(sp)
   124f0:	00012303          	lw	t1,0(sp)
   124f4:	00412283          	lw	t0,4(sp)
   124f8:	00810113          	addi	sp,sp,8
   124fc:	006282b3          	add	t0,t0,t1
   12500:	ffc10113          	addi	sp,sp,-4
   12504:	00512023          	sw	t0,0(sp)
   12508:	00012503          	lw	a0,0(sp)
   1250c:	ffffe097          	auipc	ra,0xffffe
   12510:	c10080e7          	jalr	-1008(ra) # 1011c <peek16__u32>
   12514:	00410113          	addi	sp,sp,4
   12518:	ffc10113          	addi	sp,sp,-4
   1251c:	00a12023          	sw	a0,0(sp)
   12520:	00012283          	lw	t0,0(sp)
   12524:	00410113          	addi	sp,sp,4
   12528:	01029293          	slli	t0,t0,0x10
   1252c:	4102d293          	srai	t0,t0,0x10
   12530:	ffc10113          	addi	sp,sp,-4
   12534:	00512023          	sw	t0,0(sp)
   12538:	00012283          	lw	t0,0(sp)
   1253c:	00410113          	addi	sp,sp,4
   12540:	00028513          	mv	a0,t0
   12544:	00040293          	mv	t0,s0
   12548:	ffc2a083          	lw	ra,-4(t0)
   1254c:	ff82a403          	lw	s0,-8(t0)
   12550:	00028113          	mv	sp,t0
   12554:	00008067          	ret
   12558:	00040293          	mv	t0,s0
   1255c:	ffc2a083          	lw	ra,-4(t0)
   12560:	ff82a403          	lw	s0,-8(t0)
   12564:	00028113          	mv	sp,t0
   12568:	00008067          	ret

0001256c <get__I32Array__i32>:
   1256c:	fe010113          	addi	sp,sp,-32
   12570:	00112e23          	sw	ra,28(sp)
   12574:	00812c23          	sw	s0,24(sp)
   12578:	02010413          	addi	s0,sp,32
   1257c:	fea42a23          	sw	a0,-12(s0)
   12580:	feb42823          	sw	a1,-16(s0)
   12584:	ff442283          	lw	t0,-12(s0)
   12588:	ffc10113          	addi	sp,sp,-4
   1258c:	00512023          	sw	t0,0(sp)
   12590:	00012283          	lw	t0,0(sp)
   12594:	00410113          	addi	sp,sp,4
   12598:	ffc10113          	addi	sp,sp,-4
   1259c:	00512023          	sw	t0,0(sp)
   125a0:	00400293          	li	t0,4
   125a4:	ffc10113          	addi	sp,sp,-4
   125a8:	00512023          	sw	t0,0(sp)
   125ac:	00012303          	lw	t1,0(sp)
   125b0:	00412283          	lw	t0,4(sp)
   125b4:	00810113          	addi	sp,sp,8
   125b8:	006282b3          	add	t0,t0,t1
   125bc:	ffc10113          	addi	sp,sp,-4
   125c0:	00512023          	sw	t0,0(sp)
   125c4:	ff042283          	lw	t0,-16(s0)
   125c8:	ffc10113          	addi	sp,sp,-4
   125cc:	00512023          	sw	t0,0(sp)
   125d0:	00400293          	li	t0,4
   125d4:	ffc10113          	addi	sp,sp,-4
   125d8:	00512023          	sw	t0,0(sp)
   125dc:	00012303          	lw	t1,0(sp)
   125e0:	00412283          	lw	t0,4(sp)
   125e4:	00810113          	addi	sp,sp,8
   125e8:	026282b3          	mul	t0,t0,t1
   125ec:	ffc10113          	addi	sp,sp,-4
   125f0:	00512023          	sw	t0,0(sp)
   125f4:	00012283          	lw	t0,0(sp)
   125f8:	00410113          	addi	sp,sp,4
   125fc:	ffc10113          	addi	sp,sp,-4
   12600:	00512023          	sw	t0,0(sp)
   12604:	00012303          	lw	t1,0(sp)
   12608:	00412283          	lw	t0,4(sp)
   1260c:	00810113          	addi	sp,sp,8
   12610:	006282b3          	add	t0,t0,t1
   12614:	ffc10113          	addi	sp,sp,-4
   12618:	00512023          	sw	t0,0(sp)
   1261c:	00012503          	lw	a0,0(sp)
   12620:	ffffe097          	auipc	ra,0xffffe
   12624:	b04080e7          	jalr	-1276(ra) # 10124 <peek32__u32>
   12628:	00410113          	addi	sp,sp,4
   1262c:	ffc10113          	addi	sp,sp,-4
   12630:	00a12023          	sw	a0,0(sp)
   12634:	00012283          	lw	t0,0(sp)
   12638:	00410113          	addi	sp,sp,4
   1263c:	ffc10113          	addi	sp,sp,-4
   12640:	00512023          	sw	t0,0(sp)
   12644:	00012283          	lw	t0,0(sp)
   12648:	00410113          	addi	sp,sp,4
   1264c:	00028513          	mv	a0,t0
   12650:	00040293          	mv	t0,s0
   12654:	ffc2a083          	lw	ra,-4(t0)
   12658:	ff82a403          	lw	s0,-8(t0)
   1265c:	00028113          	mv	sp,t0
   12660:	00008067          	ret
   12664:	00040293          	mv	t0,s0
   12668:	ffc2a083          	lw	ra,-4(t0)
   1266c:	ff82a403          	lw	s0,-8(t0)
   12670:	00028113          	mv	sp,t0
   12674:	00008067          	ret

00012678 <get__StringArray__i32>:
   12678:	fe010113          	addi	sp,sp,-32
   1267c:	00112e23          	sw	ra,28(sp)
   12680:	00812c23          	sw	s0,24(sp)
   12684:	02010413          	addi	s0,sp,32
   12688:	fea42a23          	sw	a0,-12(s0)
   1268c:	feb42823          	sw	a1,-16(s0)
   12690:	ff442283          	lw	t0,-12(s0)
   12694:	ffc10113          	addi	sp,sp,-4
   12698:	00512023          	sw	t0,0(sp)
   1269c:	00012283          	lw	t0,0(sp)
   126a0:	00410113          	addi	sp,sp,4
   126a4:	ffc10113          	addi	sp,sp,-4
   126a8:	00512023          	sw	t0,0(sp)
   126ac:	00400293          	li	t0,4
   126b0:	ffc10113          	addi	sp,sp,-4
   126b4:	00512023          	sw	t0,0(sp)
   126b8:	00012303          	lw	t1,0(sp)
   126bc:	00412283          	lw	t0,4(sp)
   126c0:	00810113          	addi	sp,sp,8
   126c4:	006282b3          	add	t0,t0,t1
   126c8:	ffc10113          	addi	sp,sp,-4
   126cc:	00512023          	sw	t0,0(sp)
   126d0:	ff042283          	lw	t0,-16(s0)
   126d4:	ffc10113          	addi	sp,sp,-4
   126d8:	00512023          	sw	t0,0(sp)
   126dc:	00400293          	li	t0,4
   126e0:	ffc10113          	addi	sp,sp,-4
   126e4:	00512023          	sw	t0,0(sp)
   126e8:	00012303          	lw	t1,0(sp)
   126ec:	00412283          	lw	t0,4(sp)
   126f0:	00810113          	addi	sp,sp,8
   126f4:	026282b3          	mul	t0,t0,t1
   126f8:	ffc10113          	addi	sp,sp,-4
   126fc:	00512023          	sw	t0,0(sp)
   12700:	00012283          	lw	t0,0(sp)
   12704:	00410113          	addi	sp,sp,4
   12708:	ffc10113          	addi	sp,sp,-4
   1270c:	00512023          	sw	t0,0(sp)
   12710:	00012303          	lw	t1,0(sp)
   12714:	00412283          	lw	t0,4(sp)
   12718:	00810113          	addi	sp,sp,8
   1271c:	006282b3          	add	t0,t0,t1
   12720:	ffc10113          	addi	sp,sp,-4
   12724:	00512023          	sw	t0,0(sp)
   12728:	00012503          	lw	a0,0(sp)
   1272c:	ffffe097          	auipc	ra,0xffffe
   12730:	9f8080e7          	jalr	-1544(ra) # 10124 <peek32__u32>
   12734:	00410113          	addi	sp,sp,4
   12738:	ffc10113          	addi	sp,sp,-4
   1273c:	00a12023          	sw	a0,0(sp)
   12740:	00012283          	lw	t0,0(sp)
   12744:	00410113          	addi	sp,sp,4
   12748:	00028513          	mv	a0,t0
   1274c:	00040293          	mv	t0,s0
   12750:	ffc2a083          	lw	ra,-4(t0)
   12754:	ff82a403          	lw	s0,-8(t0)
   12758:	00028113          	mv	sp,t0
   1275c:	00008067          	ret
   12760:	00040293          	mv	t0,s0
   12764:	ffc2a083          	lw	ra,-4(t0)
   12768:	ff82a403          	lw	s0,-8(t0)
   1276c:	00028113          	mv	sp,t0
   12770:	00008067          	ret

00012774 <get__String__i32>:
   12774:	fe010113          	addi	sp,sp,-32
   12778:	00112e23          	sw	ra,28(sp)
   1277c:	00812c23          	sw	s0,24(sp)
   12780:	02010413          	addi	s0,sp,32
   12784:	fea42a23          	sw	a0,-12(s0)
   12788:	feb42823          	sw	a1,-16(s0)
   1278c:	ff442283          	lw	t0,-12(s0)
   12790:	ffc10113          	addi	sp,sp,-4
   12794:	00512023          	sw	t0,0(sp)
   12798:	00012283          	lw	t0,0(sp)
   1279c:	00410113          	addi	sp,sp,4
   127a0:	ffc10113          	addi	sp,sp,-4
   127a4:	00512023          	sw	t0,0(sp)
   127a8:	00400293          	li	t0,4
   127ac:	ffc10113          	addi	sp,sp,-4
   127b0:	00512023          	sw	t0,0(sp)
   127b4:	00012303          	lw	t1,0(sp)
   127b8:	00412283          	lw	t0,4(sp)
   127bc:	00810113          	addi	sp,sp,8
   127c0:	006282b3          	add	t0,t0,t1
   127c4:	ffc10113          	addi	sp,sp,-4
   127c8:	00512023          	sw	t0,0(sp)
   127cc:	ff042283          	lw	t0,-16(s0)
   127d0:	ffc10113          	addi	sp,sp,-4
   127d4:	00512023          	sw	t0,0(sp)
   127d8:	00012283          	lw	t0,0(sp)
   127dc:	00410113          	addi	sp,sp,4
   127e0:	ffc10113          	addi	sp,sp,-4
   127e4:	00512023          	sw	t0,0(sp)
   127e8:	00012303          	lw	t1,0(sp)
   127ec:	00412283          	lw	t0,4(sp)
   127f0:	00810113          	addi	sp,sp,8
   127f4:	006282b3          	add	t0,t0,t1
   127f8:	ffc10113          	addi	sp,sp,-4
   127fc:	00512023          	sw	t0,0(sp)
   12800:	00012503          	lw	a0,0(sp)
   12804:	ffffe097          	auipc	ra,0xffffe
   12808:	910080e7          	jalr	-1776(ra) # 10114 <peek8__u32>
   1280c:	00410113          	addi	sp,sp,4
   12810:	ffc10113          	addi	sp,sp,-4
   12814:	00a12023          	sw	a0,0(sp)
   12818:	00012283          	lw	t0,0(sp)
   1281c:	00410113          	addi	sp,sp,4
   12820:	0ff2f293          	zext.b	t0,t0
   12824:	ffc10113          	addi	sp,sp,-4
   12828:	00512023          	sw	t0,0(sp)
   1282c:	00012283          	lw	t0,0(sp)
   12830:	00410113          	addi	sp,sp,4
   12834:	00028513          	mv	a0,t0
   12838:	00040293          	mv	t0,s0
   1283c:	ffc2a083          	lw	ra,-4(t0)
   12840:	ff82a403          	lw	s0,-8(t0)
   12844:	00028113          	mv	sp,t0
   12848:	00008067          	ret
   1284c:	00040293          	mv	t0,s0
   12850:	ffc2a083          	lw	ra,-4(t0)
   12854:	ff82a403          	lw	s0,-8(t0)
   12858:	00028113          	mv	sp,t0
   1285c:	00008067          	ret

00012860 <get__StringLiteral__i32>:
   12860:	fe010113          	addi	sp,sp,-32
   12864:	00112e23          	sw	ra,28(sp)
   12868:	00812c23          	sw	s0,24(sp)
   1286c:	02010413          	addi	s0,sp,32
   12870:	fea42a23          	sw	a0,-12(s0)
   12874:	feb42823          	sw	a1,-16(s0)
   12878:	ff442283          	lw	t0,-12(s0)
   1287c:	ffc10113          	addi	sp,sp,-4
   12880:	00512023          	sw	t0,0(sp)
   12884:	00012283          	lw	t0,0(sp)
   12888:	00410113          	addi	sp,sp,4
   1288c:	ffc10113          	addi	sp,sp,-4
   12890:	00512023          	sw	t0,0(sp)
   12894:	00400293          	li	t0,4
   12898:	ffc10113          	addi	sp,sp,-4
   1289c:	00512023          	sw	t0,0(sp)
   128a0:	00012303          	lw	t1,0(sp)
   128a4:	00412283          	lw	t0,4(sp)
   128a8:	00810113          	addi	sp,sp,8
   128ac:	006282b3          	add	t0,t0,t1
   128b0:	ffc10113          	addi	sp,sp,-4
   128b4:	00512023          	sw	t0,0(sp)
   128b8:	ff042283          	lw	t0,-16(s0)
   128bc:	ffc10113          	addi	sp,sp,-4
   128c0:	00512023          	sw	t0,0(sp)
   128c4:	00012283          	lw	t0,0(sp)
   128c8:	00410113          	addi	sp,sp,4
   128cc:	ffc10113          	addi	sp,sp,-4
   128d0:	00512023          	sw	t0,0(sp)
   128d4:	00012303          	lw	t1,0(sp)
   128d8:	00412283          	lw	t0,4(sp)
   128dc:	00810113          	addi	sp,sp,8
   128e0:	006282b3          	add	t0,t0,t1
   128e4:	ffc10113          	addi	sp,sp,-4
   128e8:	00512023          	sw	t0,0(sp)
   128ec:	00012503          	lw	a0,0(sp)
   128f0:	ffffe097          	auipc	ra,0xffffe
   128f4:	824080e7          	jalr	-2012(ra) # 10114 <peek8__u32>
   128f8:	00410113          	addi	sp,sp,4
   128fc:	ffc10113          	addi	sp,sp,-4
   12900:	00a12023          	sw	a0,0(sp)
   12904:	00012283          	lw	t0,0(sp)
   12908:	00410113          	addi	sp,sp,4
   1290c:	0ff2f293          	zext.b	t0,t0
   12910:	ffc10113          	addi	sp,sp,-4
   12914:	00512023          	sw	t0,0(sp)
   12918:	00012283          	lw	t0,0(sp)
   1291c:	00410113          	addi	sp,sp,4
   12920:	00028513          	mv	a0,t0
   12924:	00040293          	mv	t0,s0
   12928:	ffc2a083          	lw	ra,-4(t0)
   1292c:	ff82a403          	lw	s0,-8(t0)
   12930:	00028113          	mv	sp,t0
   12934:	00008067          	ret
   12938:	00040293          	mv	t0,s0
   1293c:	ffc2a083          	lw	ra,-4(t0)
   12940:	ff82a403          	lw	s0,-8(t0)
   12944:	00028113          	mv	sp,t0
   12948:	00008067          	ret

0001294c <set__U8Array__i32__u8>:
   1294c:	fe010113          	addi	sp,sp,-32
   12950:	00112e23          	sw	ra,28(sp)
   12954:	00812c23          	sw	s0,24(sp)
   12958:	02010413          	addi	s0,sp,32
   1295c:	fea42a23          	sw	a0,-12(s0)
   12960:	feb42823          	sw	a1,-16(s0)
   12964:	fec42623          	sw	a2,-20(s0)
   12968:	ff442283          	lw	t0,-12(s0)
   1296c:	ffc10113          	addi	sp,sp,-4
   12970:	00512023          	sw	t0,0(sp)
   12974:	00012283          	lw	t0,0(sp)
   12978:	00410113          	addi	sp,sp,4
   1297c:	ffc10113          	addi	sp,sp,-4
   12980:	00512023          	sw	t0,0(sp)
   12984:	00400293          	li	t0,4
   12988:	ffc10113          	addi	sp,sp,-4
   1298c:	00512023          	sw	t0,0(sp)
   12990:	00012303          	lw	t1,0(sp)
   12994:	00412283          	lw	t0,4(sp)
   12998:	00810113          	addi	sp,sp,8
   1299c:	006282b3          	add	t0,t0,t1
   129a0:	ffc10113          	addi	sp,sp,-4
   129a4:	00512023          	sw	t0,0(sp)
   129a8:	ff042283          	lw	t0,-16(s0)
   129ac:	ffc10113          	addi	sp,sp,-4
   129b0:	00512023          	sw	t0,0(sp)
   129b4:	00012283          	lw	t0,0(sp)
   129b8:	00410113          	addi	sp,sp,4
   129bc:	ffc10113          	addi	sp,sp,-4
   129c0:	00512023          	sw	t0,0(sp)
   129c4:	00012303          	lw	t1,0(sp)
   129c8:	00412283          	lw	t0,4(sp)
   129cc:	00810113          	addi	sp,sp,8
   129d0:	006282b3          	add	t0,t0,t1
   129d4:	ffc10113          	addi	sp,sp,-4
   129d8:	00512023          	sw	t0,0(sp)
   129dc:	fec42283          	lw	t0,-20(s0)
   129e0:	ffc10113          	addi	sp,sp,-4
   129e4:	00512023          	sw	t0,0(sp)
   129e8:	00012283          	lw	t0,0(sp)
   129ec:	00410113          	addi	sp,sp,4
   129f0:	0ff2f293          	zext.b	t0,t0
   129f4:	ffc10113          	addi	sp,sp,-4
   129f8:	00512023          	sw	t0,0(sp)
   129fc:	00412503          	lw	a0,4(sp)
   12a00:	00012583          	lw	a1,0(sp)
   12a04:	ffffd097          	auipc	ra,0xffffd
   12a08:	728080e7          	jalr	1832(ra) # 1012c <poke8__u32__u8>
   12a0c:	00810113          	addi	sp,sp,8
   12a10:	ffc10113          	addi	sp,sp,-4
   12a14:	00a12023          	sw	a0,0(sp)
   12a18:	00410113          	addi	sp,sp,4
   12a1c:	00040293          	mv	t0,s0
   12a20:	ffc2a083          	lw	ra,-4(t0)
   12a24:	ff82a403          	lw	s0,-8(t0)
   12a28:	00028113          	mv	sp,t0
   12a2c:	00008067          	ret
   12a30:	00040293          	mv	t0,s0
   12a34:	ffc2a083          	lw	ra,-4(t0)
   12a38:	ff82a403          	lw	s0,-8(t0)
   12a3c:	00028113          	mv	sp,t0
   12a40:	00008067          	ret

00012a44 <set__U16Array__i32__u16>:
   12a44:	fe010113          	addi	sp,sp,-32
   12a48:	00112e23          	sw	ra,28(sp)
   12a4c:	00812c23          	sw	s0,24(sp)
   12a50:	02010413          	addi	s0,sp,32
   12a54:	fea42a23          	sw	a0,-12(s0)
   12a58:	feb42823          	sw	a1,-16(s0)
   12a5c:	fec42623          	sw	a2,-20(s0)
   12a60:	ff442283          	lw	t0,-12(s0)
   12a64:	ffc10113          	addi	sp,sp,-4
   12a68:	00512023          	sw	t0,0(sp)
   12a6c:	00012283          	lw	t0,0(sp)
   12a70:	00410113          	addi	sp,sp,4
   12a74:	ffc10113          	addi	sp,sp,-4
   12a78:	00512023          	sw	t0,0(sp)
   12a7c:	00400293          	li	t0,4
   12a80:	ffc10113          	addi	sp,sp,-4
   12a84:	00512023          	sw	t0,0(sp)
   12a88:	00012303          	lw	t1,0(sp)
   12a8c:	00412283          	lw	t0,4(sp)
   12a90:	00810113          	addi	sp,sp,8
   12a94:	006282b3          	add	t0,t0,t1
   12a98:	ffc10113          	addi	sp,sp,-4
   12a9c:	00512023          	sw	t0,0(sp)
   12aa0:	ff042283          	lw	t0,-16(s0)
   12aa4:	ffc10113          	addi	sp,sp,-4
   12aa8:	00512023          	sw	t0,0(sp)
   12aac:	00200293          	li	t0,2
   12ab0:	ffc10113          	addi	sp,sp,-4
   12ab4:	00512023          	sw	t0,0(sp)
   12ab8:	00012303          	lw	t1,0(sp)
   12abc:	00412283          	lw	t0,4(sp)
   12ac0:	00810113          	addi	sp,sp,8
   12ac4:	026282b3          	mul	t0,t0,t1
   12ac8:	ffc10113          	addi	sp,sp,-4
   12acc:	00512023          	sw	t0,0(sp)
   12ad0:	00012283          	lw	t0,0(sp)
   12ad4:	00410113          	addi	sp,sp,4
   12ad8:	ffc10113          	addi	sp,sp,-4
   12adc:	00512023          	sw	t0,0(sp)
   12ae0:	00012303          	lw	t1,0(sp)
   12ae4:	00412283          	lw	t0,4(sp)
   12ae8:	00810113          	addi	sp,sp,8
   12aec:	006282b3          	add	t0,t0,t1
   12af0:	ffc10113          	addi	sp,sp,-4
   12af4:	00512023          	sw	t0,0(sp)
   12af8:	fec42283          	lw	t0,-20(s0)
   12afc:	ffc10113          	addi	sp,sp,-4
   12b00:	00512023          	sw	t0,0(sp)
   12b04:	00012283          	lw	t0,0(sp)
   12b08:	00410113          	addi	sp,sp,4
   12b0c:	01029293          	slli	t0,t0,0x10
   12b10:	0102d293          	srli	t0,t0,0x10
   12b14:	ffc10113          	addi	sp,sp,-4
   12b18:	00512023          	sw	t0,0(sp)
   12b1c:	00412503          	lw	a0,4(sp)
   12b20:	00012583          	lw	a1,0(sp)
   12b24:	ffffd097          	auipc	ra,0xffffd
   12b28:	610080e7          	jalr	1552(ra) # 10134 <poke16__u32__u16>
   12b2c:	00810113          	addi	sp,sp,8
   12b30:	ffc10113          	addi	sp,sp,-4
   12b34:	00a12023          	sw	a0,0(sp)
   12b38:	00410113          	addi	sp,sp,4
   12b3c:	00040293          	mv	t0,s0
   12b40:	ffc2a083          	lw	ra,-4(t0)
   12b44:	ff82a403          	lw	s0,-8(t0)
   12b48:	00028113          	mv	sp,t0
   12b4c:	00008067          	ret
   12b50:	00040293          	mv	t0,s0
   12b54:	ffc2a083          	lw	ra,-4(t0)
   12b58:	ff82a403          	lw	s0,-8(t0)
   12b5c:	00028113          	mv	sp,t0
   12b60:	00008067          	ret

00012b64 <set__U32Array__i32__u32>:
   12b64:	fe010113          	addi	sp,sp,-32
   12b68:	00112e23          	sw	ra,28(sp)
   12b6c:	00812c23          	sw	s0,24(sp)
   12b70:	02010413          	addi	s0,sp,32
   12b74:	fea42a23          	sw	a0,-12(s0)
   12b78:	feb42823          	sw	a1,-16(s0)
   12b7c:	fec42623          	sw	a2,-20(s0)
   12b80:	ff442283          	lw	t0,-12(s0)
   12b84:	ffc10113          	addi	sp,sp,-4
   12b88:	00512023          	sw	t0,0(sp)
   12b8c:	00012283          	lw	t0,0(sp)
   12b90:	00410113          	addi	sp,sp,4
   12b94:	ffc10113          	addi	sp,sp,-4
   12b98:	00512023          	sw	t0,0(sp)
   12b9c:	00400293          	li	t0,4
   12ba0:	ffc10113          	addi	sp,sp,-4
   12ba4:	00512023          	sw	t0,0(sp)
   12ba8:	00012303          	lw	t1,0(sp)
   12bac:	00412283          	lw	t0,4(sp)
   12bb0:	00810113          	addi	sp,sp,8
   12bb4:	006282b3          	add	t0,t0,t1
   12bb8:	ffc10113          	addi	sp,sp,-4
   12bbc:	00512023          	sw	t0,0(sp)
   12bc0:	ff042283          	lw	t0,-16(s0)
   12bc4:	ffc10113          	addi	sp,sp,-4
   12bc8:	00512023          	sw	t0,0(sp)
   12bcc:	00400293          	li	t0,4
   12bd0:	ffc10113          	addi	sp,sp,-4
   12bd4:	00512023          	sw	t0,0(sp)
   12bd8:	00012303          	lw	t1,0(sp)
   12bdc:	00412283          	lw	t0,4(sp)
   12be0:	00810113          	addi	sp,sp,8
   12be4:	026282b3          	mul	t0,t0,t1
   12be8:	ffc10113          	addi	sp,sp,-4
   12bec:	00512023          	sw	t0,0(sp)
   12bf0:	00012283          	lw	t0,0(sp)
   12bf4:	00410113          	addi	sp,sp,4
   12bf8:	ffc10113          	addi	sp,sp,-4
   12bfc:	00512023          	sw	t0,0(sp)
   12c00:	00012303          	lw	t1,0(sp)
   12c04:	00412283          	lw	t0,4(sp)
   12c08:	00810113          	addi	sp,sp,8
   12c0c:	006282b3          	add	t0,t0,t1
   12c10:	ffc10113          	addi	sp,sp,-4
   12c14:	00512023          	sw	t0,0(sp)
   12c18:	fec42283          	lw	t0,-20(s0)
   12c1c:	ffc10113          	addi	sp,sp,-4
   12c20:	00512023          	sw	t0,0(sp)
   12c24:	00412503          	lw	a0,4(sp)
   12c28:	00012583          	lw	a1,0(sp)
   12c2c:	ffffd097          	auipc	ra,0xffffd
   12c30:	510080e7          	jalr	1296(ra) # 1013c <poke32__u32__u32>
   12c34:	00810113          	addi	sp,sp,8
   12c38:	ffc10113          	addi	sp,sp,-4
   12c3c:	00a12023          	sw	a0,0(sp)
   12c40:	00410113          	addi	sp,sp,4
   12c44:	00040293          	mv	t0,s0
   12c48:	ffc2a083          	lw	ra,-4(t0)
   12c4c:	ff82a403          	lw	s0,-8(t0)
   12c50:	00028113          	mv	sp,t0
   12c54:	00008067          	ret
   12c58:	00040293          	mv	t0,s0
   12c5c:	ffc2a083          	lw	ra,-4(t0)
   12c60:	ff82a403          	lw	s0,-8(t0)
   12c64:	00028113          	mv	sp,t0
   12c68:	00008067          	ret

00012c6c <set__I8Array__i32__i8>:
   12c6c:	fe010113          	addi	sp,sp,-32
   12c70:	00112e23          	sw	ra,28(sp)
   12c74:	00812c23          	sw	s0,24(sp)
   12c78:	02010413          	addi	s0,sp,32
   12c7c:	fea42a23          	sw	a0,-12(s0)
   12c80:	feb42823          	sw	a1,-16(s0)
   12c84:	fec42623          	sw	a2,-20(s0)
   12c88:	ff442283          	lw	t0,-12(s0)
   12c8c:	ffc10113          	addi	sp,sp,-4
   12c90:	00512023          	sw	t0,0(sp)
   12c94:	00012283          	lw	t0,0(sp)
   12c98:	00410113          	addi	sp,sp,4
   12c9c:	ffc10113          	addi	sp,sp,-4
   12ca0:	00512023          	sw	t0,0(sp)
   12ca4:	00400293          	li	t0,4
   12ca8:	ffc10113          	addi	sp,sp,-4
   12cac:	00512023          	sw	t0,0(sp)
   12cb0:	00012303          	lw	t1,0(sp)
   12cb4:	00412283          	lw	t0,4(sp)
   12cb8:	00810113          	addi	sp,sp,8
   12cbc:	006282b3          	add	t0,t0,t1
   12cc0:	ffc10113          	addi	sp,sp,-4
   12cc4:	00512023          	sw	t0,0(sp)
   12cc8:	ff042283          	lw	t0,-16(s0)
   12ccc:	ffc10113          	addi	sp,sp,-4
   12cd0:	00512023          	sw	t0,0(sp)
   12cd4:	00012283          	lw	t0,0(sp)
   12cd8:	00410113          	addi	sp,sp,4
   12cdc:	ffc10113          	addi	sp,sp,-4
   12ce0:	00512023          	sw	t0,0(sp)
   12ce4:	00012303          	lw	t1,0(sp)
   12ce8:	00412283          	lw	t0,4(sp)
   12cec:	00810113          	addi	sp,sp,8
   12cf0:	006282b3          	add	t0,t0,t1
   12cf4:	ffc10113          	addi	sp,sp,-4
   12cf8:	00512023          	sw	t0,0(sp)
   12cfc:	fec42283          	lw	t0,-20(s0)
   12d00:	ffc10113          	addi	sp,sp,-4
   12d04:	00512023          	sw	t0,0(sp)
   12d08:	00012283          	lw	t0,0(sp)
   12d0c:	00410113          	addi	sp,sp,4
   12d10:	0ff2f293          	zext.b	t0,t0
   12d14:	ffc10113          	addi	sp,sp,-4
   12d18:	00512023          	sw	t0,0(sp)
   12d1c:	00412503          	lw	a0,4(sp)
   12d20:	00012583          	lw	a1,0(sp)
   12d24:	ffffd097          	auipc	ra,0xffffd
   12d28:	408080e7          	jalr	1032(ra) # 1012c <poke8__u32__u8>
   12d2c:	00810113          	addi	sp,sp,8
   12d30:	ffc10113          	addi	sp,sp,-4
   12d34:	00a12023          	sw	a0,0(sp)
   12d38:	00410113          	addi	sp,sp,4
   12d3c:	00040293          	mv	t0,s0
   12d40:	ffc2a083          	lw	ra,-4(t0)
   12d44:	ff82a403          	lw	s0,-8(t0)
   12d48:	00028113          	mv	sp,t0
   12d4c:	00008067          	ret
   12d50:	00040293          	mv	t0,s0
   12d54:	ffc2a083          	lw	ra,-4(t0)
   12d58:	ff82a403          	lw	s0,-8(t0)
   12d5c:	00028113          	mv	sp,t0
   12d60:	00008067          	ret

00012d64 <set__I16Array__i32__i16>:
   12d64:	fe010113          	addi	sp,sp,-32
   12d68:	00112e23          	sw	ra,28(sp)
   12d6c:	00812c23          	sw	s0,24(sp)
   12d70:	02010413          	addi	s0,sp,32
   12d74:	fea42a23          	sw	a0,-12(s0)
   12d78:	feb42823          	sw	a1,-16(s0)
   12d7c:	fec42623          	sw	a2,-20(s0)
   12d80:	ff442283          	lw	t0,-12(s0)
   12d84:	ffc10113          	addi	sp,sp,-4
   12d88:	00512023          	sw	t0,0(sp)
   12d8c:	00012283          	lw	t0,0(sp)
   12d90:	00410113          	addi	sp,sp,4
   12d94:	ffc10113          	addi	sp,sp,-4
   12d98:	00512023          	sw	t0,0(sp)
   12d9c:	00400293          	li	t0,4
   12da0:	ffc10113          	addi	sp,sp,-4
   12da4:	00512023          	sw	t0,0(sp)
   12da8:	00012303          	lw	t1,0(sp)
   12dac:	00412283          	lw	t0,4(sp)
   12db0:	00810113          	addi	sp,sp,8
   12db4:	006282b3          	add	t0,t0,t1
   12db8:	ffc10113          	addi	sp,sp,-4
   12dbc:	00512023          	sw	t0,0(sp)
   12dc0:	ff042283          	lw	t0,-16(s0)
   12dc4:	ffc10113          	addi	sp,sp,-4
   12dc8:	00512023          	sw	t0,0(sp)
   12dcc:	00200293          	li	t0,2
   12dd0:	ffc10113          	addi	sp,sp,-4
   12dd4:	00512023          	sw	t0,0(sp)
   12dd8:	00012303          	lw	t1,0(sp)
   12ddc:	00412283          	lw	t0,4(sp)
   12de0:	00810113          	addi	sp,sp,8
   12de4:	026282b3          	mul	t0,t0,t1
   12de8:	ffc10113          	addi	sp,sp,-4
   12dec:	00512023          	sw	t0,0(sp)
   12df0:	00012283          	lw	t0,0(sp)
   12df4:	00410113          	addi	sp,sp,4
   12df8:	ffc10113          	addi	sp,sp,-4
   12dfc:	00512023          	sw	t0,0(sp)
   12e00:	00012303          	lw	t1,0(sp)
   12e04:	00412283          	lw	t0,4(sp)
   12e08:	00810113          	addi	sp,sp,8
   12e0c:	006282b3          	add	t0,t0,t1
   12e10:	ffc10113          	addi	sp,sp,-4
   12e14:	00512023          	sw	t0,0(sp)
   12e18:	fec42283          	lw	t0,-20(s0)
   12e1c:	ffc10113          	addi	sp,sp,-4
   12e20:	00512023          	sw	t0,0(sp)
   12e24:	00012283          	lw	t0,0(sp)
   12e28:	00410113          	addi	sp,sp,4
   12e2c:	01029293          	slli	t0,t0,0x10
   12e30:	0102d293          	srli	t0,t0,0x10
   12e34:	ffc10113          	addi	sp,sp,-4
   12e38:	00512023          	sw	t0,0(sp)
   12e3c:	00412503          	lw	a0,4(sp)
   12e40:	00012583          	lw	a1,0(sp)
   12e44:	ffffd097          	auipc	ra,0xffffd
   12e48:	2f0080e7          	jalr	752(ra) # 10134 <poke16__u32__u16>
   12e4c:	00810113          	addi	sp,sp,8
   12e50:	ffc10113          	addi	sp,sp,-4
   12e54:	00a12023          	sw	a0,0(sp)
   12e58:	00410113          	addi	sp,sp,4
   12e5c:	00040293          	mv	t0,s0
   12e60:	ffc2a083          	lw	ra,-4(t0)
   12e64:	ff82a403          	lw	s0,-8(t0)
   12e68:	00028113          	mv	sp,t0
   12e6c:	00008067          	ret
   12e70:	00040293          	mv	t0,s0
   12e74:	ffc2a083          	lw	ra,-4(t0)
   12e78:	ff82a403          	lw	s0,-8(t0)
   12e7c:	00028113          	mv	sp,t0
   12e80:	00008067          	ret

00012e84 <set__I32Array__i32__i32>:
   12e84:	fe010113          	addi	sp,sp,-32
   12e88:	00112e23          	sw	ra,28(sp)
   12e8c:	00812c23          	sw	s0,24(sp)
   12e90:	02010413          	addi	s0,sp,32
   12e94:	fea42a23          	sw	a0,-12(s0)
   12e98:	feb42823          	sw	a1,-16(s0)
   12e9c:	fec42623          	sw	a2,-20(s0)
   12ea0:	ff442283          	lw	t0,-12(s0)
   12ea4:	ffc10113          	addi	sp,sp,-4
   12ea8:	00512023          	sw	t0,0(sp)
   12eac:	00012283          	lw	t0,0(sp)
   12eb0:	00410113          	addi	sp,sp,4
   12eb4:	ffc10113          	addi	sp,sp,-4
   12eb8:	00512023          	sw	t0,0(sp)
   12ebc:	00400293          	li	t0,4
   12ec0:	ffc10113          	addi	sp,sp,-4
   12ec4:	00512023          	sw	t0,0(sp)
   12ec8:	00012303          	lw	t1,0(sp)
   12ecc:	00412283          	lw	t0,4(sp)
   12ed0:	00810113          	addi	sp,sp,8
   12ed4:	006282b3          	add	t0,t0,t1
   12ed8:	ffc10113          	addi	sp,sp,-4
   12edc:	00512023          	sw	t0,0(sp)
   12ee0:	ff042283          	lw	t0,-16(s0)
   12ee4:	ffc10113          	addi	sp,sp,-4
   12ee8:	00512023          	sw	t0,0(sp)
   12eec:	00400293          	li	t0,4
   12ef0:	ffc10113          	addi	sp,sp,-4
   12ef4:	00512023          	sw	t0,0(sp)
   12ef8:	00012303          	lw	t1,0(sp)
   12efc:	00412283          	lw	t0,4(sp)
   12f00:	00810113          	addi	sp,sp,8
   12f04:	026282b3          	mul	t0,t0,t1
   12f08:	ffc10113          	addi	sp,sp,-4
   12f0c:	00512023          	sw	t0,0(sp)
   12f10:	00012283          	lw	t0,0(sp)
   12f14:	00410113          	addi	sp,sp,4
   12f18:	ffc10113          	addi	sp,sp,-4
   12f1c:	00512023          	sw	t0,0(sp)
   12f20:	00012303          	lw	t1,0(sp)
   12f24:	00412283          	lw	t0,4(sp)
   12f28:	00810113          	addi	sp,sp,8
   12f2c:	006282b3          	add	t0,t0,t1
   12f30:	ffc10113          	addi	sp,sp,-4
   12f34:	00512023          	sw	t0,0(sp)
   12f38:	fec42283          	lw	t0,-20(s0)
   12f3c:	ffc10113          	addi	sp,sp,-4
   12f40:	00512023          	sw	t0,0(sp)
   12f44:	00012283          	lw	t0,0(sp)
   12f48:	00410113          	addi	sp,sp,4
   12f4c:	ffc10113          	addi	sp,sp,-4
   12f50:	00512023          	sw	t0,0(sp)
   12f54:	00412503          	lw	a0,4(sp)
   12f58:	00012583          	lw	a1,0(sp)
   12f5c:	ffffd097          	auipc	ra,0xffffd
   12f60:	1e0080e7          	jalr	480(ra) # 1013c <poke32__u32__u32>
   12f64:	00810113          	addi	sp,sp,8
   12f68:	ffc10113          	addi	sp,sp,-4
   12f6c:	00a12023          	sw	a0,0(sp)
   12f70:	00410113          	addi	sp,sp,4
   12f74:	00040293          	mv	t0,s0
   12f78:	ffc2a083          	lw	ra,-4(t0)
   12f7c:	ff82a403          	lw	s0,-8(t0)
   12f80:	00028113          	mv	sp,t0
   12f84:	00008067          	ret
   12f88:	00040293          	mv	t0,s0
   12f8c:	ffc2a083          	lw	ra,-4(t0)
   12f90:	ff82a403          	lw	s0,-8(t0)
   12f94:	00028113          	mv	sp,t0
   12f98:	00008067          	ret

00012f9c <set__StringArray__i32__String>:
   12f9c:	fe010113          	addi	sp,sp,-32
   12fa0:	00112e23          	sw	ra,28(sp)
   12fa4:	00812c23          	sw	s0,24(sp)
   12fa8:	02010413          	addi	s0,sp,32
   12fac:	fea42a23          	sw	a0,-12(s0)
   12fb0:	feb42823          	sw	a1,-16(s0)
   12fb4:	fec42623          	sw	a2,-20(s0)
   12fb8:	ff442283          	lw	t0,-12(s0)
   12fbc:	ffc10113          	addi	sp,sp,-4
   12fc0:	00512023          	sw	t0,0(sp)
   12fc4:	00012283          	lw	t0,0(sp)
   12fc8:	00410113          	addi	sp,sp,4
   12fcc:	ffc10113          	addi	sp,sp,-4
   12fd0:	00512023          	sw	t0,0(sp)
   12fd4:	00400293          	li	t0,4
   12fd8:	ffc10113          	addi	sp,sp,-4
   12fdc:	00512023          	sw	t0,0(sp)
   12fe0:	00012303          	lw	t1,0(sp)
   12fe4:	00412283          	lw	t0,4(sp)
   12fe8:	00810113          	addi	sp,sp,8
   12fec:	006282b3          	add	t0,t0,t1
   12ff0:	ffc10113          	addi	sp,sp,-4
   12ff4:	00512023          	sw	t0,0(sp)
   12ff8:	ff042283          	lw	t0,-16(s0)
   12ffc:	ffc10113          	addi	sp,sp,-4
   13000:	00512023          	sw	t0,0(sp)
   13004:	00400293          	li	t0,4
   13008:	ffc10113          	addi	sp,sp,-4
   1300c:	00512023          	sw	t0,0(sp)
   13010:	00012303          	lw	t1,0(sp)
   13014:	00412283          	lw	t0,4(sp)
   13018:	00810113          	addi	sp,sp,8
   1301c:	026282b3          	mul	t0,t0,t1
   13020:	ffc10113          	addi	sp,sp,-4
   13024:	00512023          	sw	t0,0(sp)
   13028:	00012283          	lw	t0,0(sp)
   1302c:	00410113          	addi	sp,sp,4
   13030:	ffc10113          	addi	sp,sp,-4
   13034:	00512023          	sw	t0,0(sp)
   13038:	00012303          	lw	t1,0(sp)
   1303c:	00412283          	lw	t0,4(sp)
   13040:	00810113          	addi	sp,sp,8
   13044:	006282b3          	add	t0,t0,t1
   13048:	ffc10113          	addi	sp,sp,-4
   1304c:	00512023          	sw	t0,0(sp)
   13050:	fec42283          	lw	t0,-20(s0)
   13054:	ffc10113          	addi	sp,sp,-4
   13058:	00512023          	sw	t0,0(sp)
   1305c:	00012283          	lw	t0,0(sp)
   13060:	00410113          	addi	sp,sp,4
   13064:	ffc10113          	addi	sp,sp,-4
   13068:	00512023          	sw	t0,0(sp)
   1306c:	00412503          	lw	a0,4(sp)
   13070:	00012583          	lw	a1,0(sp)
   13074:	ffffd097          	auipc	ra,0xffffd
   13078:	0c8080e7          	jalr	200(ra) # 1013c <poke32__u32__u32>
   1307c:	00810113          	addi	sp,sp,8
   13080:	ffc10113          	addi	sp,sp,-4
   13084:	00a12023          	sw	a0,0(sp)
   13088:	00410113          	addi	sp,sp,4
   1308c:	00040293          	mv	t0,s0
   13090:	ffc2a083          	lw	ra,-4(t0)
   13094:	ff82a403          	lw	s0,-8(t0)
   13098:	00028113          	mv	sp,t0
   1309c:	00008067          	ret
   130a0:	00040293          	mv	t0,s0
   130a4:	ffc2a083          	lw	ra,-4(t0)
   130a8:	ff82a403          	lw	s0,-8(t0)
   130ac:	00028113          	mv	sp,t0
   130b0:	00008067          	ret

000130b4 <set__StringArray__i32__StringLiteral>:
   130b4:	fe010113          	addi	sp,sp,-32
   130b8:	00112e23          	sw	ra,28(sp)
   130bc:	00812c23          	sw	s0,24(sp)
   130c0:	02010413          	addi	s0,sp,32
   130c4:	fea42a23          	sw	a0,-12(s0)
   130c8:	feb42823          	sw	a1,-16(s0)
   130cc:	fec42623          	sw	a2,-20(s0)
   130d0:	ff442283          	lw	t0,-12(s0)
   130d4:	ffc10113          	addi	sp,sp,-4
   130d8:	00512023          	sw	t0,0(sp)
   130dc:	00012283          	lw	t0,0(sp)
   130e0:	00410113          	addi	sp,sp,4
   130e4:	ffc10113          	addi	sp,sp,-4
   130e8:	00512023          	sw	t0,0(sp)
   130ec:	00400293          	li	t0,4
   130f0:	ffc10113          	addi	sp,sp,-4
   130f4:	00512023          	sw	t0,0(sp)
   130f8:	00012303          	lw	t1,0(sp)
   130fc:	00412283          	lw	t0,4(sp)
   13100:	00810113          	addi	sp,sp,8
   13104:	006282b3          	add	t0,t0,t1
   13108:	ffc10113          	addi	sp,sp,-4
   1310c:	00512023          	sw	t0,0(sp)
   13110:	ff042283          	lw	t0,-16(s0)
   13114:	ffc10113          	addi	sp,sp,-4
   13118:	00512023          	sw	t0,0(sp)
   1311c:	00400293          	li	t0,4
   13120:	ffc10113          	addi	sp,sp,-4
   13124:	00512023          	sw	t0,0(sp)
   13128:	00012303          	lw	t1,0(sp)
   1312c:	00412283          	lw	t0,4(sp)
   13130:	00810113          	addi	sp,sp,8
   13134:	026282b3          	mul	t0,t0,t1
   13138:	ffc10113          	addi	sp,sp,-4
   1313c:	00512023          	sw	t0,0(sp)
   13140:	00012283          	lw	t0,0(sp)
   13144:	00410113          	addi	sp,sp,4
   13148:	ffc10113          	addi	sp,sp,-4
   1314c:	00512023          	sw	t0,0(sp)
   13150:	00012303          	lw	t1,0(sp)
   13154:	00412283          	lw	t0,4(sp)
   13158:	00810113          	addi	sp,sp,8
   1315c:	006282b3          	add	t0,t0,t1
   13160:	ffc10113          	addi	sp,sp,-4
   13164:	00512023          	sw	t0,0(sp)
   13168:	fec42283          	lw	t0,-20(s0)
   1316c:	ffc10113          	addi	sp,sp,-4
   13170:	00512023          	sw	t0,0(sp)
   13174:	00012283          	lw	t0,0(sp)
   13178:	00410113          	addi	sp,sp,4
   1317c:	ffc10113          	addi	sp,sp,-4
   13180:	00512023          	sw	t0,0(sp)
   13184:	00412503          	lw	a0,4(sp)
   13188:	00012583          	lw	a1,0(sp)
   1318c:	ffffd097          	auipc	ra,0xffffd
   13190:	fb0080e7          	jalr	-80(ra) # 1013c <poke32__u32__u32>
   13194:	00810113          	addi	sp,sp,8
   13198:	ffc10113          	addi	sp,sp,-4
   1319c:	00a12023          	sw	a0,0(sp)
   131a0:	00410113          	addi	sp,sp,4
   131a4:	00040293          	mv	t0,s0
   131a8:	ffc2a083          	lw	ra,-4(t0)
   131ac:	ff82a403          	lw	s0,-8(t0)
   131b0:	00028113          	mv	sp,t0
   131b4:	00008067          	ret
   131b8:	00040293          	mv	t0,s0
   131bc:	ffc2a083          	lw	ra,-4(t0)
   131c0:	ff82a403          	lw	s0,-8(t0)
   131c4:	00028113          	mv	sp,t0
   131c8:	00008067          	ret

000131cc <delete_impl__u32>:
   131cc:	fe010113          	addi	sp,sp,-32
   131d0:	00112e23          	sw	ra,28(sp)
   131d4:	00812c23          	sw	s0,24(sp)
   131d8:	02010413          	addi	s0,sp,32
   131dc:	fea42a23          	sw	a0,-12(s0)
   131e0:	ff442283          	lw	t0,-12(s0)
   131e4:	ffc10113          	addi	sp,sp,-4
   131e8:	00512023          	sw	t0,0(sp)
   131ec:	00000293          	li	t0,0
   131f0:	ffc10113          	addi	sp,sp,-4
   131f4:	00512023          	sw	t0,0(sp)
   131f8:	00012303          	lw	t1,0(sp)
   131fc:	00412283          	lw	t0,4(sp)
   13200:	00810113          	addi	sp,sp,8
   13204:	406282b3          	sub	t0,t0,t1
   13208:	0012b293          	seqz	t0,t0
   1320c:	ffc10113          	addi	sp,sp,-4
   13210:	00512023          	sw	t0,0(sp)
   13214:	00012283          	lw	t0,0(sp)
   13218:	00410113          	addi	sp,sp,4
   1321c:	00028c63          	beqz	t0,13234 <delete_impl__u32+0x68>
   13220:	00040293          	mv	t0,s0
   13224:	ffc2a083          	lw	ra,-4(t0)
   13228:	ff82a403          	lw	s0,-8(t0)
   1322c:	00028113          	mv	sp,t0
   13230:	00008067          	ret
   13234:	ff442283          	lw	t0,-12(s0)
   13238:	ffc10113          	addi	sp,sp,-4
   1323c:	00512023          	sw	t0,0(sp)
   13240:	00012503          	lw	a0,0(sp)
   13244:	ffffe097          	auipc	ra,0xffffe
   13248:	be8080e7          	jalr	-1048(ra) # 10e2c <pool_free_blk__u32>
   1324c:	00410113          	addi	sp,sp,4
   13250:	ffc10113          	addi	sp,sp,-4
   13254:	00a12023          	sw	a0,0(sp)
   13258:	00410113          	addi	sp,sp,4
   1325c:	00040293          	mv	t0,s0
   13260:	ffc2a083          	lw	ra,-4(t0)
   13264:	ff82a403          	lw	s0,-8(t0)
   13268:	00028113          	mv	sp,t0
   1326c:	00008067          	ret
   13270:	00040293          	mv	t0,s0
   13274:	ffc2a083          	lw	ra,-4(t0)
   13278:	ff82a403          	lw	s0,-8(t0)
   1327c:	00028113          	mv	sp,t0
   13280:	00008067          	ret

00013284 <delete__U8Array>:
   13284:	ff010113          	addi	sp,sp,-16
   13288:	00112623          	sw	ra,12(sp)
   1328c:	00812423          	sw	s0,8(sp)
   13290:	01010413          	addi	s0,sp,16
   13294:	fea42a23          	sw	a0,-12(s0)
   13298:	ff442283          	lw	t0,-12(s0)
   1329c:	ffc10113          	addi	sp,sp,-4
   132a0:	00512023          	sw	t0,0(sp)
   132a4:	00012283          	lw	t0,0(sp)
   132a8:	00410113          	addi	sp,sp,4
   132ac:	ffc10113          	addi	sp,sp,-4
   132b0:	00512023          	sw	t0,0(sp)
   132b4:	00012503          	lw	a0,0(sp)
   132b8:	00000097          	auipc	ra,0x0
   132bc:	f14080e7          	jalr	-236(ra) # 131cc <delete_impl__u32>
   132c0:	00410113          	addi	sp,sp,4
   132c4:	ffc10113          	addi	sp,sp,-4
   132c8:	00a12023          	sw	a0,0(sp)
   132cc:	00410113          	addi	sp,sp,4
   132d0:	00040293          	mv	t0,s0
   132d4:	ffc2a083          	lw	ra,-4(t0)
   132d8:	ff82a403          	lw	s0,-8(t0)
   132dc:	00028113          	mv	sp,t0
   132e0:	00008067          	ret
   132e4:	00040293          	mv	t0,s0
   132e8:	ffc2a083          	lw	ra,-4(t0)
   132ec:	ff82a403          	lw	s0,-8(t0)
   132f0:	00028113          	mv	sp,t0
   132f4:	00008067          	ret

000132f8 <delete__U16Array>:
   132f8:	ff010113          	addi	sp,sp,-16
   132fc:	00112623          	sw	ra,12(sp)
   13300:	00812423          	sw	s0,8(sp)
   13304:	01010413          	addi	s0,sp,16
   13308:	fea42a23          	sw	a0,-12(s0)
   1330c:	ff442283          	lw	t0,-12(s0)
   13310:	ffc10113          	addi	sp,sp,-4
   13314:	00512023          	sw	t0,0(sp)
   13318:	00012283          	lw	t0,0(sp)
   1331c:	00410113          	addi	sp,sp,4
   13320:	ffc10113          	addi	sp,sp,-4
   13324:	00512023          	sw	t0,0(sp)
   13328:	00012503          	lw	a0,0(sp)
   1332c:	00000097          	auipc	ra,0x0
   13330:	ea0080e7          	jalr	-352(ra) # 131cc <delete_impl__u32>
   13334:	00410113          	addi	sp,sp,4
   13338:	ffc10113          	addi	sp,sp,-4
   1333c:	00a12023          	sw	a0,0(sp)
   13340:	00410113          	addi	sp,sp,4
   13344:	00040293          	mv	t0,s0
   13348:	ffc2a083          	lw	ra,-4(t0)
   1334c:	ff82a403          	lw	s0,-8(t0)
   13350:	00028113          	mv	sp,t0
   13354:	00008067          	ret
   13358:	00040293          	mv	t0,s0
   1335c:	ffc2a083          	lw	ra,-4(t0)
   13360:	ff82a403          	lw	s0,-8(t0)
   13364:	00028113          	mv	sp,t0
   13368:	00008067          	ret

0001336c <delete__U32Array>:
   1336c:	ff010113          	addi	sp,sp,-16
   13370:	00112623          	sw	ra,12(sp)
   13374:	00812423          	sw	s0,8(sp)
   13378:	01010413          	addi	s0,sp,16
   1337c:	fea42a23          	sw	a0,-12(s0)
   13380:	ff442283          	lw	t0,-12(s0)
   13384:	ffc10113          	addi	sp,sp,-4
   13388:	00512023          	sw	t0,0(sp)
   1338c:	00012283          	lw	t0,0(sp)
   13390:	00410113          	addi	sp,sp,4
   13394:	ffc10113          	addi	sp,sp,-4
   13398:	00512023          	sw	t0,0(sp)
   1339c:	00012503          	lw	a0,0(sp)
   133a0:	00000097          	auipc	ra,0x0
   133a4:	e2c080e7          	jalr	-468(ra) # 131cc <delete_impl__u32>
   133a8:	00410113          	addi	sp,sp,4
   133ac:	ffc10113          	addi	sp,sp,-4
   133b0:	00a12023          	sw	a0,0(sp)
   133b4:	00410113          	addi	sp,sp,4
   133b8:	00040293          	mv	t0,s0
   133bc:	ffc2a083          	lw	ra,-4(t0)
   133c0:	ff82a403          	lw	s0,-8(t0)
   133c4:	00028113          	mv	sp,t0
   133c8:	00008067          	ret
   133cc:	00040293          	mv	t0,s0
   133d0:	ffc2a083          	lw	ra,-4(t0)
   133d4:	ff82a403          	lw	s0,-8(t0)
   133d8:	00028113          	mv	sp,t0
   133dc:	00008067          	ret

000133e0 <delete__I8Array>:
   133e0:	ff010113          	addi	sp,sp,-16
   133e4:	00112623          	sw	ra,12(sp)
   133e8:	00812423          	sw	s0,8(sp)
   133ec:	01010413          	addi	s0,sp,16
   133f0:	fea42a23          	sw	a0,-12(s0)
   133f4:	ff442283          	lw	t0,-12(s0)
   133f8:	ffc10113          	addi	sp,sp,-4
   133fc:	00512023          	sw	t0,0(sp)
   13400:	00012283          	lw	t0,0(sp)
   13404:	00410113          	addi	sp,sp,4
   13408:	ffc10113          	addi	sp,sp,-4
   1340c:	00512023          	sw	t0,0(sp)
   13410:	00012503          	lw	a0,0(sp)
   13414:	00000097          	auipc	ra,0x0
   13418:	db8080e7          	jalr	-584(ra) # 131cc <delete_impl__u32>
   1341c:	00410113          	addi	sp,sp,4
   13420:	ffc10113          	addi	sp,sp,-4
   13424:	00a12023          	sw	a0,0(sp)
   13428:	00410113          	addi	sp,sp,4
   1342c:	00040293          	mv	t0,s0
   13430:	ffc2a083          	lw	ra,-4(t0)
   13434:	ff82a403          	lw	s0,-8(t0)
   13438:	00028113          	mv	sp,t0
   1343c:	00008067          	ret
   13440:	00040293          	mv	t0,s0
   13444:	ffc2a083          	lw	ra,-4(t0)
   13448:	ff82a403          	lw	s0,-8(t0)
   1344c:	00028113          	mv	sp,t0
   13450:	00008067          	ret

00013454 <delete__I16Array>:
   13454:	ff010113          	addi	sp,sp,-16
   13458:	00112623          	sw	ra,12(sp)
   1345c:	00812423          	sw	s0,8(sp)
   13460:	01010413          	addi	s0,sp,16
   13464:	fea42a23          	sw	a0,-12(s0)
   13468:	ff442283          	lw	t0,-12(s0)
   1346c:	ffc10113          	addi	sp,sp,-4
   13470:	00512023          	sw	t0,0(sp)
   13474:	00012283          	lw	t0,0(sp)
   13478:	00410113          	addi	sp,sp,4
   1347c:	ffc10113          	addi	sp,sp,-4
   13480:	00512023          	sw	t0,0(sp)
   13484:	00012503          	lw	a0,0(sp)
   13488:	00000097          	auipc	ra,0x0
   1348c:	d44080e7          	jalr	-700(ra) # 131cc <delete_impl__u32>
   13490:	00410113          	addi	sp,sp,4
   13494:	ffc10113          	addi	sp,sp,-4
   13498:	00a12023          	sw	a0,0(sp)
   1349c:	00410113          	addi	sp,sp,4
   134a0:	00040293          	mv	t0,s0
   134a4:	ffc2a083          	lw	ra,-4(t0)
   134a8:	ff82a403          	lw	s0,-8(t0)
   134ac:	00028113          	mv	sp,t0
   134b0:	00008067          	ret
   134b4:	00040293          	mv	t0,s0
   134b8:	ffc2a083          	lw	ra,-4(t0)
   134bc:	ff82a403          	lw	s0,-8(t0)
   134c0:	00028113          	mv	sp,t0
   134c4:	00008067          	ret

000134c8 <delete__I32Array>:
   134c8:	ff010113          	addi	sp,sp,-16
   134cc:	00112623          	sw	ra,12(sp)
   134d0:	00812423          	sw	s0,8(sp)
   134d4:	01010413          	addi	s0,sp,16
   134d8:	fea42a23          	sw	a0,-12(s0)
   134dc:	ff442283          	lw	t0,-12(s0)
   134e0:	ffc10113          	addi	sp,sp,-4
   134e4:	00512023          	sw	t0,0(sp)
   134e8:	00012283          	lw	t0,0(sp)
   134ec:	00410113          	addi	sp,sp,4
   134f0:	ffc10113          	addi	sp,sp,-4
   134f4:	00512023          	sw	t0,0(sp)
   134f8:	00012503          	lw	a0,0(sp)
   134fc:	00000097          	auipc	ra,0x0
   13500:	cd0080e7          	jalr	-816(ra) # 131cc <delete_impl__u32>
   13504:	00410113          	addi	sp,sp,4
   13508:	ffc10113          	addi	sp,sp,-4
   1350c:	00a12023          	sw	a0,0(sp)
   13510:	00410113          	addi	sp,sp,4
   13514:	00040293          	mv	t0,s0
   13518:	ffc2a083          	lw	ra,-4(t0)
   1351c:	ff82a403          	lw	s0,-8(t0)
   13520:	00028113          	mv	sp,t0
   13524:	00008067          	ret
   13528:	00040293          	mv	t0,s0
   1352c:	ffc2a083          	lw	ra,-4(t0)
   13530:	ff82a403          	lw	s0,-8(t0)
   13534:	00028113          	mv	sp,t0
   13538:	00008067          	ret

0001353c <delete__StringArray>:
   1353c:	ff010113          	addi	sp,sp,-16
   13540:	00112623          	sw	ra,12(sp)
   13544:	00812423          	sw	s0,8(sp)
   13548:	01010413          	addi	s0,sp,16
   1354c:	fea42a23          	sw	a0,-12(s0)
   13550:	ff442283          	lw	t0,-12(s0)
   13554:	ffc10113          	addi	sp,sp,-4
   13558:	00512023          	sw	t0,0(sp)
   1355c:	00012283          	lw	t0,0(sp)
   13560:	00410113          	addi	sp,sp,4
   13564:	ffc10113          	addi	sp,sp,-4
   13568:	00512023          	sw	t0,0(sp)
   1356c:	00012503          	lw	a0,0(sp)
   13570:	00000097          	auipc	ra,0x0
   13574:	c5c080e7          	jalr	-932(ra) # 131cc <delete_impl__u32>
   13578:	00410113          	addi	sp,sp,4
   1357c:	ffc10113          	addi	sp,sp,-4
   13580:	00a12023          	sw	a0,0(sp)
   13584:	00410113          	addi	sp,sp,4
   13588:	00040293          	mv	t0,s0
   1358c:	ffc2a083          	lw	ra,-4(t0)
   13590:	ff82a403          	lw	s0,-8(t0)
   13594:	00028113          	mv	sp,t0
   13598:	00008067          	ret
   1359c:	00040293          	mv	t0,s0
   135a0:	ffc2a083          	lw	ra,-4(t0)
   135a4:	ff82a403          	lw	s0,-8(t0)
   135a8:	00028113          	mv	sp,t0
   135ac:	00008067          	ret

000135b0 <delete__String>:
   135b0:	ff010113          	addi	sp,sp,-16
   135b4:	00112623          	sw	ra,12(sp)
   135b8:	00812423          	sw	s0,8(sp)
   135bc:	01010413          	addi	s0,sp,16
   135c0:	fea42a23          	sw	a0,-12(s0)
   135c4:	ff442283          	lw	t0,-12(s0)
   135c8:	ffc10113          	addi	sp,sp,-4
   135cc:	00512023          	sw	t0,0(sp)
   135d0:	00012283          	lw	t0,0(sp)
   135d4:	00410113          	addi	sp,sp,4
   135d8:	ffc10113          	addi	sp,sp,-4
   135dc:	00512023          	sw	t0,0(sp)
   135e0:	00012503          	lw	a0,0(sp)
   135e4:	00000097          	auipc	ra,0x0
   135e8:	be8080e7          	jalr	-1048(ra) # 131cc <delete_impl__u32>
   135ec:	00410113          	addi	sp,sp,4
   135f0:	ffc10113          	addi	sp,sp,-4
   135f4:	00a12023          	sw	a0,0(sp)
   135f8:	00410113          	addi	sp,sp,4
   135fc:	00040293          	mv	t0,s0
   13600:	ffc2a083          	lw	ra,-4(t0)
   13604:	ff82a403          	lw	s0,-8(t0)
   13608:	00028113          	mv	sp,t0
   1360c:	00008067          	ret
   13610:	00040293          	mv	t0,s0
   13614:	ffc2a083          	lw	ra,-4(t0)
   13618:	ff82a403          	lw	s0,-8(t0)
   1361c:	00028113          	mv	sp,t0
   13620:	00008067          	ret

00013624 <delete__StringLiteral>:
   13624:	ff010113          	addi	sp,sp,-16
   13628:	00112623          	sw	ra,12(sp)
   1362c:	00812423          	sw	s0,8(sp)
   13630:	01010413          	addi	s0,sp,16
   13634:	fea42a23          	sw	a0,-12(s0)
   13638:	00040293          	mv	t0,s0
   1363c:	ffc2a083          	lw	ra,-4(t0)
   13640:	ff82a403          	lw	s0,-8(t0)
   13644:	00028113          	mv	sp,t0
   13648:	00008067          	ret
   1364c:	00040293          	mv	t0,s0
   13650:	ffc2a083          	lw	ra,-4(t0)
   13654:	ff82a403          	lw	s0,-8(t0)
   13658:	00028113          	mv	sp,t0
   1365c:	00008067          	ret

00013660 <heap_mark>:
   13660:	ff010113          	addi	sp,sp,-16
   13664:	00112623          	sw	ra,12(sp)
   13668:	00812423          	sw	s0,8(sp)
   1366c:	01010413          	addi	s0,sp,16
   13670:	00000293          	li	t0,0
   13674:	ffc10113          	addi	sp,sp,-4
   13678:	00512023          	sw	t0,0(sp)
   1367c:	00012283          	lw	t0,0(sp)
   13680:	00410113          	addi	sp,sp,4
   13684:	00028513          	mv	a0,t0
   13688:	00040293          	mv	t0,s0
   1368c:	ffc2a083          	lw	ra,-4(t0)
   13690:	ff82a403          	lw	s0,-8(t0)
   13694:	00028113          	mv	sp,t0
   13698:	00008067          	ret
   1369c:	00040293          	mv	t0,s0
   136a0:	ffc2a083          	lw	ra,-4(t0)
   136a4:	ff82a403          	lw	s0,-8(t0)
   136a8:	00028113          	mv	sp,t0
   136ac:	00008067          	ret

000136b0 <heap_reset__i32>:
   136b0:	ff010113          	addi	sp,sp,-16
   136b4:	00112623          	sw	ra,12(sp)
   136b8:	00812423          	sw	s0,8(sp)
   136bc:	01010413          	addi	s0,sp,16
   136c0:	fea42a23          	sw	a0,-12(s0)
   136c4:	00040293          	mv	t0,s0
   136c8:	ffc2a083          	lw	ra,-4(t0)
   136cc:	ff82a403          	lw	s0,-8(t0)
   136d0:	00028113          	mv	sp,t0
   136d4:	00008067          	ret
   136d8:	00040293          	mv	t0,s0
   136dc:	ffc2a083          	lw	ra,-4(t0)
   136e0:	ff82a403          	lw	s0,-8(t0)
   136e4:	00028113          	mv	sp,t0
   136e8:	00008067          	ret

000136ec <sys_write__i32__U8Array__i32>:
   136ec:	fd010113          	addi	sp,sp,-48
   136f0:	02112623          	sw	ra,44(sp)
   136f4:	02812423          	sw	s0,40(sp)
   136f8:	03010413          	addi	s0,sp,48
   136fc:	fea42a23          	sw	a0,-12(s0)
   13700:	feb42823          	sw	a1,-16(s0)
   13704:	fec42623          	sw	a2,-20(s0)
   13708:	fe042423          	sw	zero,-24(s0)
   1370c:	fe042223          	sw	zero,-28(s0)
   13710:	ff042283          	lw	t0,-16(s0)
   13714:	ffc10113          	addi	sp,sp,-4
   13718:	00512023          	sw	t0,0(sp)
   1371c:	00012283          	lw	t0,0(sp)
   13720:	00410113          	addi	sp,sp,4
   13724:	ffc10113          	addi	sp,sp,-4
   13728:	00512023          	sw	t0,0(sp)
   1372c:	00000293          	li	t0,0
   13730:	ffc10113          	addi	sp,sp,-4
   13734:	00512023          	sw	t0,0(sp)
   13738:	00012303          	lw	t1,0(sp)
   1373c:	00412283          	lw	t0,4(sp)
   13740:	00810113          	addi	sp,sp,8
   13744:	406282b3          	sub	t0,t0,t1
   13748:	0012b293          	seqz	t0,t0
   1374c:	ffc10113          	addi	sp,sp,-4
   13750:	00512023          	sw	t0,0(sp)
   13754:	00012283          	lw	t0,0(sp)
   13758:	00410113          	addi	sp,sp,4
   1375c:	04028a63          	beqz	t0,137b0 <sys_write__i32__U8Array__i32+0xc4>
   13760:	00000293          	li	t0,0
   13764:	ffc10113          	addi	sp,sp,-4
   13768:	00512023          	sw	t0,0(sp)
   1376c:	00100293          	li	t0,1
   13770:	ffc10113          	addi	sp,sp,-4
   13774:	00512023          	sw	t0,0(sp)
   13778:	00012303          	lw	t1,0(sp)
   1377c:	00412283          	lw	t0,4(sp)
   13780:	00810113          	addi	sp,sp,8
   13784:	406282b3          	sub	t0,t0,t1
   13788:	ffc10113          	addi	sp,sp,-4
   1378c:	00512023          	sw	t0,0(sp)
   13790:	00012283          	lw	t0,0(sp)
   13794:	00410113          	addi	sp,sp,4
   13798:	00028513          	mv	a0,t0
   1379c:	00040293          	mv	t0,s0
   137a0:	ffc2a083          	lw	ra,-4(t0)
   137a4:	ff82a403          	lw	s0,-8(t0)
   137a8:	00028113          	mv	sp,t0
   137ac:	00008067          	ret
   137b0:	ff042283          	lw	t0,-16(s0)
   137b4:	ffc10113          	addi	sp,sp,-4
   137b8:	00512023          	sw	t0,0(sp)
   137bc:	00012283          	lw	t0,0(sp)
   137c0:	00410113          	addi	sp,sp,4
   137c4:	ffc10113          	addi	sp,sp,-4
   137c8:	00512023          	sw	t0,0(sp)
   137cc:	00012503          	lw	a0,0(sp)
   137d0:	ffffd097          	auipc	ra,0xffffd
   137d4:	954080e7          	jalr	-1708(ra) # 10124 <peek32__u32>
   137d8:	00410113          	addi	sp,sp,4
   137dc:	ffc10113          	addi	sp,sp,-4
   137e0:	00a12023          	sw	a0,0(sp)
   137e4:	00012283          	lw	t0,0(sp)
   137e8:	00410113          	addi	sp,sp,4
   137ec:	ffc10113          	addi	sp,sp,-4
   137f0:	00512023          	sw	t0,0(sp)
   137f4:	00012283          	lw	t0,0(sp)
   137f8:	00410113          	addi	sp,sp,4
   137fc:	fe542423          	sw	t0,-24(s0)
   13800:	fec42283          	lw	t0,-20(s0)
   13804:	ffc10113          	addi	sp,sp,-4
   13808:	00512023          	sw	t0,0(sp)
   1380c:	fe842283          	lw	t0,-24(s0)
   13810:	ffc10113          	addi	sp,sp,-4
   13814:	00512023          	sw	t0,0(sp)
   13818:	00012303          	lw	t1,0(sp)
   1381c:	00412283          	lw	t0,4(sp)
   13820:	00810113          	addi	sp,sp,8
   13824:	0062a2b3          	slt	t0,t0,t1
   13828:	ffc10113          	addi	sp,sp,-4
   1382c:	00512023          	sw	t0,0(sp)
   13830:	00012283          	lw	t0,0(sp)
   13834:	00410113          	addi	sp,sp,4
   13838:	00028e63          	beqz	t0,13854 <sys_write__i32__U8Array__i32+0x168>
   1383c:	fec42283          	lw	t0,-20(s0)
   13840:	ffc10113          	addi	sp,sp,-4
   13844:	00512023          	sw	t0,0(sp)
   13848:	00012283          	lw	t0,0(sp)
   1384c:	00410113          	addi	sp,sp,4
   13850:	fe542423          	sw	t0,-24(s0)
   13854:	ff042283          	lw	t0,-16(s0)
   13858:	ffc10113          	addi	sp,sp,-4
   1385c:	00512023          	sw	t0,0(sp)
   13860:	00012283          	lw	t0,0(sp)
   13864:	00410113          	addi	sp,sp,4
   13868:	ffc10113          	addi	sp,sp,-4
   1386c:	00512023          	sw	t0,0(sp)
   13870:	00400293          	li	t0,4
   13874:	ffc10113          	addi	sp,sp,-4
   13878:	00512023          	sw	t0,0(sp)
   1387c:	00012303          	lw	t1,0(sp)
   13880:	00412283          	lw	t0,4(sp)
   13884:	00810113          	addi	sp,sp,8
   13888:	006282b3          	add	t0,t0,t1
   1388c:	ffc10113          	addi	sp,sp,-4
   13890:	00512023          	sw	t0,0(sp)
   13894:	00012283          	lw	t0,0(sp)
   13898:	00410113          	addi	sp,sp,4
   1389c:	fe542223          	sw	t0,-28(s0)
   138a0:	ff442283          	lw	t0,-12(s0)
   138a4:	ffc10113          	addi	sp,sp,-4
   138a8:	00512023          	sw	t0,0(sp)
   138ac:	fe442283          	lw	t0,-28(s0)
   138b0:	ffc10113          	addi	sp,sp,-4
   138b4:	00512023          	sw	t0,0(sp)
   138b8:	fe842283          	lw	t0,-24(s0)
   138bc:	ffc10113          	addi	sp,sp,-4
   138c0:	00512023          	sw	t0,0(sp)
   138c4:	00812503          	lw	a0,8(sp)
   138c8:	00412583          	lw	a1,4(sp)
   138cc:	00012603          	lw	a2,0(sp)
   138d0:	ffffd097          	auipc	ra,0xffffd
   138d4:	820080e7          	jalr	-2016(ra) # 100f0 <do_write__i32__u32__i32>
   138d8:	00c10113          	addi	sp,sp,12
   138dc:	ffc10113          	addi	sp,sp,-4
   138e0:	00a12023          	sw	a0,0(sp)
   138e4:	00012283          	lw	t0,0(sp)
   138e8:	00410113          	addi	sp,sp,4
   138ec:	00028513          	mv	a0,t0
   138f0:	00040293          	mv	t0,s0
   138f4:	ffc2a083          	lw	ra,-4(t0)
   138f8:	ff82a403          	lw	s0,-8(t0)
   138fc:	00028113          	mv	sp,t0
   13900:	00008067          	ret
   13904:	00040293          	mv	t0,s0
   13908:	ffc2a083          	lw	ra,-4(t0)
   1390c:	ff82a403          	lw	s0,-8(t0)
   13910:	00028113          	mv	sp,t0
   13914:	00008067          	ret

00013918 <sys_read__i32__U8Array__i32>:
   13918:	fc010113          	addi	sp,sp,-64
   1391c:	02112e23          	sw	ra,60(sp)
   13920:	02812c23          	sw	s0,56(sp)
   13924:	04010413          	addi	s0,sp,64
   13928:	fea42a23          	sw	a0,-12(s0)
   1392c:	feb42823          	sw	a1,-16(s0)
   13930:	fec42623          	sw	a2,-20(s0)
   13934:	fe042423          	sw	zero,-24(s0)
   13938:	fe042223          	sw	zero,-28(s0)
   1393c:	fe042023          	sw	zero,-32(s0)
   13940:	fc042e23          	sw	zero,-36(s0)
   13944:	ff042283          	lw	t0,-16(s0)
   13948:	ffc10113          	addi	sp,sp,-4
   1394c:	00512023          	sw	t0,0(sp)
   13950:	00012283          	lw	t0,0(sp)
   13954:	00410113          	addi	sp,sp,4
   13958:	ffc10113          	addi	sp,sp,-4
   1395c:	00512023          	sw	t0,0(sp)
   13960:	00000293          	li	t0,0
   13964:	ffc10113          	addi	sp,sp,-4
   13968:	00512023          	sw	t0,0(sp)
   1396c:	00012303          	lw	t1,0(sp)
   13970:	00412283          	lw	t0,4(sp)
   13974:	00810113          	addi	sp,sp,8
   13978:	406282b3          	sub	t0,t0,t1
   1397c:	0012b293          	seqz	t0,t0
   13980:	ffc10113          	addi	sp,sp,-4
   13984:	00512023          	sw	t0,0(sp)
   13988:	00012283          	lw	t0,0(sp)
   1398c:	00410113          	addi	sp,sp,4
   13990:	04028a63          	beqz	t0,139e4 <sys_read__i32__U8Array__i32+0xcc>
   13994:	00000293          	li	t0,0
   13998:	ffc10113          	addi	sp,sp,-4
   1399c:	00512023          	sw	t0,0(sp)
   139a0:	00100293          	li	t0,1
   139a4:	ffc10113          	addi	sp,sp,-4
   139a8:	00512023          	sw	t0,0(sp)
   139ac:	00012303          	lw	t1,0(sp)
   139b0:	00412283          	lw	t0,4(sp)
   139b4:	00810113          	addi	sp,sp,8
   139b8:	406282b3          	sub	t0,t0,t1
   139bc:	ffc10113          	addi	sp,sp,-4
   139c0:	00512023          	sw	t0,0(sp)
   139c4:	00012283          	lw	t0,0(sp)
   139c8:	00410113          	addi	sp,sp,4
   139cc:	00028513          	mv	a0,t0
   139d0:	00040293          	mv	t0,s0
   139d4:	ffc2a083          	lw	ra,-4(t0)
   139d8:	ff82a403          	lw	s0,-8(t0)
   139dc:	00028113          	mv	sp,t0
   139e0:	00008067          	ret
   139e4:	ff042283          	lw	t0,-16(s0)
   139e8:	ffc10113          	addi	sp,sp,-4
   139ec:	00512023          	sw	t0,0(sp)
   139f0:	00012283          	lw	t0,0(sp)
   139f4:	00410113          	addi	sp,sp,4
   139f8:	ffc10113          	addi	sp,sp,-4
   139fc:	00512023          	sw	t0,0(sp)
   13a00:	00012503          	lw	a0,0(sp)
   13a04:	ffffc097          	auipc	ra,0xffffc
   13a08:	720080e7          	jalr	1824(ra) # 10124 <peek32__u32>
   13a0c:	00410113          	addi	sp,sp,4
   13a10:	ffc10113          	addi	sp,sp,-4
   13a14:	00a12023          	sw	a0,0(sp)
   13a18:	00012283          	lw	t0,0(sp)
   13a1c:	00410113          	addi	sp,sp,4
   13a20:	ffc10113          	addi	sp,sp,-4
   13a24:	00512023          	sw	t0,0(sp)
   13a28:	00012283          	lw	t0,0(sp)
   13a2c:	00410113          	addi	sp,sp,4
   13a30:	fe542423          	sw	t0,-24(s0)
   13a34:	fec42283          	lw	t0,-20(s0)
   13a38:	ffc10113          	addi	sp,sp,-4
   13a3c:	00512023          	sw	t0,0(sp)
   13a40:	fe842283          	lw	t0,-24(s0)
   13a44:	ffc10113          	addi	sp,sp,-4
   13a48:	00512023          	sw	t0,0(sp)
   13a4c:	00012303          	lw	t1,0(sp)
   13a50:	00412283          	lw	t0,4(sp)
   13a54:	00810113          	addi	sp,sp,8
   13a58:	0062a2b3          	slt	t0,t0,t1
   13a5c:	ffc10113          	addi	sp,sp,-4
   13a60:	00512023          	sw	t0,0(sp)
   13a64:	00012283          	lw	t0,0(sp)
   13a68:	00410113          	addi	sp,sp,4
   13a6c:	00028e63          	beqz	t0,13a88 <sys_read__i32__U8Array__i32+0x170>
   13a70:	fec42283          	lw	t0,-20(s0)
   13a74:	ffc10113          	addi	sp,sp,-4
   13a78:	00512023          	sw	t0,0(sp)
   13a7c:	00012283          	lw	t0,0(sp)
   13a80:	00410113          	addi	sp,sp,4
   13a84:	fe542423          	sw	t0,-24(s0)
   13a88:	ff042283          	lw	t0,-16(s0)
   13a8c:	ffc10113          	addi	sp,sp,-4
   13a90:	00512023          	sw	t0,0(sp)
   13a94:	00012283          	lw	t0,0(sp)
   13a98:	00410113          	addi	sp,sp,4
   13a9c:	ffc10113          	addi	sp,sp,-4
   13aa0:	00512023          	sw	t0,0(sp)
   13aa4:	00400293          	li	t0,4
   13aa8:	ffc10113          	addi	sp,sp,-4
   13aac:	00512023          	sw	t0,0(sp)
   13ab0:	00012303          	lw	t1,0(sp)
   13ab4:	00412283          	lw	t0,4(sp)
   13ab8:	00810113          	addi	sp,sp,8
   13abc:	006282b3          	add	t0,t0,t1
   13ac0:	ffc10113          	addi	sp,sp,-4
   13ac4:	00512023          	sw	t0,0(sp)
   13ac8:	00012283          	lw	t0,0(sp)
   13acc:	00410113          	addi	sp,sp,4
   13ad0:	fe542223          	sw	t0,-28(s0)
   13ad4:	00000293          	li	t0,0
   13ad8:	ffc10113          	addi	sp,sp,-4
   13adc:	00512023          	sw	t0,0(sp)
   13ae0:	00012283          	lw	t0,0(sp)
   13ae4:	00410113          	addi	sp,sp,4
   13ae8:	fe542023          	sw	t0,-32(s0)
   13aec:	fe042283          	lw	t0,-32(s0)
   13af0:	ffc10113          	addi	sp,sp,-4
   13af4:	00512023          	sw	t0,0(sp)
   13af8:	fe842283          	lw	t0,-24(s0)
   13afc:	ffc10113          	addi	sp,sp,-4
   13b00:	00512023          	sw	t0,0(sp)
   13b04:	00012303          	lw	t1,0(sp)
   13b08:	00412283          	lw	t0,4(sp)
   13b0c:	00810113          	addi	sp,sp,8
   13b10:	0062a2b3          	slt	t0,t0,t1
   13b14:	ffc10113          	addi	sp,sp,-4
   13b18:	00512023          	sw	t0,0(sp)
   13b1c:	00012283          	lw	t0,0(sp)
   13b20:	00410113          	addi	sp,sp,4
   13b24:	14028c63          	beqz	t0,13c7c <sys_read__i32__U8Array__i32+0x364>
   13b28:	ff442283          	lw	t0,-12(s0)
   13b2c:	ffc10113          	addi	sp,sp,-4
   13b30:	00512023          	sw	t0,0(sp)
   13b34:	fe442283          	lw	t0,-28(s0)
   13b38:	ffc10113          	addi	sp,sp,-4
   13b3c:	00512023          	sw	t0,0(sp)
   13b40:	fe042283          	lw	t0,-32(s0)
   13b44:	ffc10113          	addi	sp,sp,-4
   13b48:	00512023          	sw	t0,0(sp)
   13b4c:	00012283          	lw	t0,0(sp)
   13b50:	00410113          	addi	sp,sp,4
   13b54:	ffc10113          	addi	sp,sp,-4
   13b58:	00512023          	sw	t0,0(sp)
   13b5c:	00012303          	lw	t1,0(sp)
   13b60:	00412283          	lw	t0,4(sp)
   13b64:	00810113          	addi	sp,sp,8
   13b68:	006282b3          	add	t0,t0,t1
   13b6c:	ffc10113          	addi	sp,sp,-4
   13b70:	00512023          	sw	t0,0(sp)
   13b74:	fe842283          	lw	t0,-24(s0)
   13b78:	ffc10113          	addi	sp,sp,-4
   13b7c:	00512023          	sw	t0,0(sp)
   13b80:	fe042283          	lw	t0,-32(s0)
   13b84:	ffc10113          	addi	sp,sp,-4
   13b88:	00512023          	sw	t0,0(sp)
   13b8c:	00012303          	lw	t1,0(sp)
   13b90:	00412283          	lw	t0,4(sp)
   13b94:	00810113          	addi	sp,sp,8
   13b98:	406282b3          	sub	t0,t0,t1
   13b9c:	ffc10113          	addi	sp,sp,-4
   13ba0:	00512023          	sw	t0,0(sp)
   13ba4:	00812503          	lw	a0,8(sp)
   13ba8:	00412583          	lw	a1,4(sp)
   13bac:	00012603          	lw	a2,0(sp)
   13bb0:	ffffc097          	auipc	ra,0xffffc
   13bb4:	54c080e7          	jalr	1356(ra) # 100fc <do_read__i32__u32__i32>
   13bb8:	00c10113          	addi	sp,sp,12
   13bbc:	ffc10113          	addi	sp,sp,-4
   13bc0:	00a12023          	sw	a0,0(sp)
   13bc4:	00012283          	lw	t0,0(sp)
   13bc8:	00410113          	addi	sp,sp,4
   13bcc:	fc542e23          	sw	t0,-36(s0)
   13bd0:	fdc42283          	lw	t0,-36(s0)
   13bd4:	ffc10113          	addi	sp,sp,-4
   13bd8:	00512023          	sw	t0,0(sp)
   13bdc:	00000293          	li	t0,0
   13be0:	ffc10113          	addi	sp,sp,-4
   13be4:	00512023          	sw	t0,0(sp)
   13be8:	00012303          	lw	t1,0(sp)
   13bec:	00412283          	lw	t0,4(sp)
   13bf0:	00810113          	addi	sp,sp,8
   13bf4:	005322b3          	slt	t0,t1,t0
   13bf8:	0012c293          	xori	t0,t0,1
   13bfc:	ffc10113          	addi	sp,sp,-4
   13c00:	00512023          	sw	t0,0(sp)
   13c04:	00012283          	lw	t0,0(sp)
   13c08:	00410113          	addi	sp,sp,4
   13c0c:	02028863          	beqz	t0,13c3c <sys_read__i32__U8Array__i32+0x324>
   13c10:	fe042283          	lw	t0,-32(s0)
   13c14:	ffc10113          	addi	sp,sp,-4
   13c18:	00512023          	sw	t0,0(sp)
   13c1c:	00012283          	lw	t0,0(sp)
   13c20:	00410113          	addi	sp,sp,4
   13c24:	00028513          	mv	a0,t0
   13c28:	00040293          	mv	t0,s0
   13c2c:	ffc2a083          	lw	ra,-4(t0)
   13c30:	ff82a403          	lw	s0,-8(t0)
   13c34:	00028113          	mv	sp,t0
   13c38:	00008067          	ret
   13c3c:	fe042283          	lw	t0,-32(s0)
   13c40:	ffc10113          	addi	sp,sp,-4
   13c44:	00512023          	sw	t0,0(sp)
   13c48:	fdc42283          	lw	t0,-36(s0)
   13c4c:	ffc10113          	addi	sp,sp,-4
   13c50:	00512023          	sw	t0,0(sp)
   13c54:	00012303          	lw	t1,0(sp)
   13c58:	00412283          	lw	t0,4(sp)
   13c5c:	00810113          	addi	sp,sp,8
   13c60:	006282b3          	add	t0,t0,t1
   13c64:	ffc10113          	addi	sp,sp,-4
   13c68:	00512023          	sw	t0,0(sp)
   13c6c:	00012283          	lw	t0,0(sp)
   13c70:	00410113          	addi	sp,sp,4
   13c74:	fe542023          	sw	t0,-32(s0)
   13c78:	e75ff06f          	j	13aec <sys_read__i32__U8Array__i32+0x1d4>
   13c7c:	fe042283          	lw	t0,-32(s0)
   13c80:	ffc10113          	addi	sp,sp,-4
   13c84:	00512023          	sw	t0,0(sp)
   13c88:	00012283          	lw	t0,0(sp)
   13c8c:	00410113          	addi	sp,sp,4
   13c90:	00028513          	mv	a0,t0
   13c94:	00040293          	mv	t0,s0
   13c98:	ffc2a083          	lw	ra,-4(t0)
   13c9c:	ff82a403          	lw	s0,-8(t0)
   13ca0:	00028113          	mv	sp,t0
   13ca4:	00008067          	ret
   13ca8:	00040293          	mv	t0,s0
   13cac:	ffc2a083          	lw	ra,-4(t0)
   13cb0:	ff82a403          	lw	s0,-8(t0)
   13cb4:	00028113          	mv	sp,t0
   13cb8:	00008067          	ret

00013cbc <sys_exit__i32>:
   13cbc:	ff010113          	addi	sp,sp,-16
   13cc0:	00112623          	sw	ra,12(sp)
   13cc4:	00812423          	sw	s0,8(sp)
   13cc8:	01010413          	addi	s0,sp,16
   13ccc:	fea42a23          	sw	a0,-12(s0)
   13cd0:	ff442283          	lw	t0,-12(s0)
   13cd4:	ffc10113          	addi	sp,sp,-4
   13cd8:	00512023          	sw	t0,0(sp)
   13cdc:	00012503          	lw	a0,0(sp)
   13ce0:	ffffc097          	auipc	ra,0xffffc
   13ce4:	428080e7          	jalr	1064(ra) # 10108 <do_exit__i32>
   13ce8:	00410113          	addi	sp,sp,4
   13cec:	ffc10113          	addi	sp,sp,-4
   13cf0:	00a12023          	sw	a0,0(sp)
   13cf4:	00410113          	addi	sp,sp,4
   13cf8:	00040293          	mv	t0,s0
   13cfc:	ffc2a083          	lw	ra,-4(t0)
   13d00:	ff82a403          	lw	s0,-8(t0)
   13d04:	00028113          	mv	sp,t0
   13d08:	00008067          	ret
   13d0c:	00040293          	mv	t0,s0
   13d10:	ffc2a083          	lw	ra,-4(t0)
   13d14:	ff82a403          	lw	s0,-8(t0)
   13d18:	00028113          	mv	sp,t0
   13d1c:	00008067          	ret

00013d20 <print_i32__i32>:
   13d20:	fc010113          	addi	sp,sp,-64
   13d24:	02112e23          	sw	ra,60(sp)
   13d28:	02812c23          	sw	s0,56(sp)
   13d2c:	04010413          	addi	s0,sp,64
   13d30:	fea42a23          	sw	a0,-12(s0)
   13d34:	fe042823          	sw	zero,-16(s0)
   13d38:	fe042623          	sw	zero,-20(s0)
   13d3c:	fe042423          	sw	zero,-24(s0)
   13d40:	fe042223          	sw	zero,-28(s0)
   13d44:	fe042023          	sw	zero,-32(s0)
   13d48:	fc042e23          	sw	zero,-36(s0)
   13d4c:	01000293          	li	t0,16
   13d50:	ffc10113          	addi	sp,sp,-4
   13d54:	00512023          	sw	t0,0(sp)
   13d58:	00012503          	lw	a0,0(sp)
   13d5c:	ffffd097          	auipc	ra,0xffffd
   13d60:	5b0080e7          	jalr	1456(ra) # 1130c <U8Array__i32>
   13d64:	00410113          	addi	sp,sp,4
   13d68:	ffc10113          	addi	sp,sp,-4
   13d6c:	00a12023          	sw	a0,0(sp)
   13d70:	00012283          	lw	t0,0(sp)
   13d74:	00410113          	addi	sp,sp,4
   13d78:	fe542823          	sw	t0,-16(s0)
   13d7c:	00000293          	li	t0,0
   13d80:	ffc10113          	addi	sp,sp,-4
   13d84:	00512023          	sw	t0,0(sp)
   13d88:	00012283          	lw	t0,0(sp)
   13d8c:	00410113          	addi	sp,sp,4
   13d90:	fe542623          	sw	t0,-20(s0)
   13d94:	ff442283          	lw	t0,-12(s0)
   13d98:	ffc10113          	addi	sp,sp,-4
   13d9c:	00512023          	sw	t0,0(sp)
   13da0:	00000293          	li	t0,0
   13da4:	ffc10113          	addi	sp,sp,-4
   13da8:	00512023          	sw	t0,0(sp)
   13dac:	00012303          	lw	t1,0(sp)
   13db0:	00412283          	lw	t0,4(sp)
   13db4:	00810113          	addi	sp,sp,8
   13db8:	0062a2b3          	slt	t0,t0,t1
   13dbc:	ffc10113          	addi	sp,sp,-4
   13dc0:	00512023          	sw	t0,0(sp)
   13dc4:	00012283          	lw	t0,0(sp)
   13dc8:	00410113          	addi	sp,sp,4
   13dcc:	04028c63          	beqz	t0,13e24 <print_i32__i32+0x104>
   13dd0:	00100293          	li	t0,1
   13dd4:	ffc10113          	addi	sp,sp,-4
   13dd8:	00512023          	sw	t0,0(sp)
   13ddc:	00012283          	lw	t0,0(sp)
   13de0:	00410113          	addi	sp,sp,4
   13de4:	fe542623          	sw	t0,-20(s0)
   13de8:	00000293          	li	t0,0
   13dec:	ffc10113          	addi	sp,sp,-4
   13df0:	00512023          	sw	t0,0(sp)
   13df4:	ff442283          	lw	t0,-12(s0)
   13df8:	ffc10113          	addi	sp,sp,-4
   13dfc:	00512023          	sw	t0,0(sp)
   13e00:	00012303          	lw	t1,0(sp)
   13e04:	00412283          	lw	t0,4(sp)
   13e08:	00810113          	addi	sp,sp,8
   13e0c:	406282b3          	sub	t0,t0,t1
   13e10:	ffc10113          	addi	sp,sp,-4
   13e14:	00512023          	sw	t0,0(sp)
   13e18:	00012283          	lw	t0,0(sp)
   13e1c:	00410113          	addi	sp,sp,4
   13e20:	fe542a23          	sw	t0,-12(s0)
   13e24:	ff442283          	lw	t0,-12(s0)
   13e28:	ffc10113          	addi	sp,sp,-4
   13e2c:	00512023          	sw	t0,0(sp)
   13e30:	00000293          	li	t0,0
   13e34:	ffc10113          	addi	sp,sp,-4
   13e38:	00512023          	sw	t0,0(sp)
   13e3c:	00012303          	lw	t1,0(sp)
   13e40:	00412283          	lw	t0,4(sp)
   13e44:	00810113          	addi	sp,sp,8
   13e48:	406282b3          	sub	t0,t0,t1
   13e4c:	0012b293          	seqz	t0,t0
   13e50:	ffc10113          	addi	sp,sp,-4
   13e54:	00512023          	sw	t0,0(sp)
   13e58:	00012283          	lw	t0,0(sp)
   13e5c:	00410113          	addi	sp,sp,4
   13e60:	20028063          	beqz	t0,14060 <print_i32__i32+0x340>
   13e64:	ff042283          	lw	t0,-16(s0)
   13e68:	ffc10113          	addi	sp,sp,-4
   13e6c:	00512023          	sw	t0,0(sp)
   13e70:	00012283          	lw	t0,0(sp)
   13e74:	00410113          	addi	sp,sp,4
   13e78:	ffc10113          	addi	sp,sp,-4
   13e7c:	00512023          	sw	t0,0(sp)
   13e80:	00400293          	li	t0,4
   13e84:	ffc10113          	addi	sp,sp,-4
   13e88:	00512023          	sw	t0,0(sp)
   13e8c:	00012303          	lw	t1,0(sp)
   13e90:	00412283          	lw	t0,4(sp)
   13e94:	00810113          	addi	sp,sp,8
   13e98:	006282b3          	add	t0,t0,t1
   13e9c:	ffc10113          	addi	sp,sp,-4
   13ea0:	00512023          	sw	t0,0(sp)
   13ea4:	00000293          	li	t0,0
   13ea8:	ffc10113          	addi	sp,sp,-4
   13eac:	00512023          	sw	t0,0(sp)
   13eb0:	00012283          	lw	t0,0(sp)
   13eb4:	00410113          	addi	sp,sp,4
   13eb8:	ffc10113          	addi	sp,sp,-4
   13ebc:	00512023          	sw	t0,0(sp)
   13ec0:	00012303          	lw	t1,0(sp)
   13ec4:	00412283          	lw	t0,4(sp)
   13ec8:	00810113          	addi	sp,sp,8
   13ecc:	006282b3          	add	t0,t0,t1
   13ed0:	ffc10113          	addi	sp,sp,-4
   13ed4:	00512023          	sw	t0,0(sp)
   13ed8:	03000293          	li	t0,48
   13edc:	ffc10113          	addi	sp,sp,-4
   13ee0:	00512023          	sw	t0,0(sp)
   13ee4:	00012283          	lw	t0,0(sp)
   13ee8:	00410113          	addi	sp,sp,4
   13eec:	0ff2f293          	zext.b	t0,t0
   13ef0:	ffc10113          	addi	sp,sp,-4
   13ef4:	00512023          	sw	t0,0(sp)
   13ef8:	00412503          	lw	a0,4(sp)
   13efc:	00012583          	lw	a1,0(sp)
   13f00:	ffffc097          	auipc	ra,0xffffc
   13f04:	22c080e7          	jalr	556(ra) # 1012c <poke8__u32__u8>
   13f08:	00810113          	addi	sp,sp,8
   13f0c:	ffc10113          	addi	sp,sp,-4
   13f10:	00a12023          	sw	a0,0(sp)
   13f14:	00410113          	addi	sp,sp,4
   13f18:	ff042283          	lw	t0,-16(s0)
   13f1c:	ffc10113          	addi	sp,sp,-4
   13f20:	00512023          	sw	t0,0(sp)
   13f24:	00012283          	lw	t0,0(sp)
   13f28:	00410113          	addi	sp,sp,4
   13f2c:	ffc10113          	addi	sp,sp,-4
   13f30:	00512023          	sw	t0,0(sp)
   13f34:	00400293          	li	t0,4
   13f38:	ffc10113          	addi	sp,sp,-4
   13f3c:	00512023          	sw	t0,0(sp)
   13f40:	00012303          	lw	t1,0(sp)
   13f44:	00412283          	lw	t0,4(sp)
   13f48:	00810113          	addi	sp,sp,8
   13f4c:	006282b3          	add	t0,t0,t1
   13f50:	ffc10113          	addi	sp,sp,-4
   13f54:	00512023          	sw	t0,0(sp)
   13f58:	00100293          	li	t0,1
   13f5c:	ffc10113          	addi	sp,sp,-4
   13f60:	00512023          	sw	t0,0(sp)
   13f64:	00012283          	lw	t0,0(sp)
   13f68:	00410113          	addi	sp,sp,4
   13f6c:	ffc10113          	addi	sp,sp,-4
   13f70:	00512023          	sw	t0,0(sp)
   13f74:	00012303          	lw	t1,0(sp)
   13f78:	00412283          	lw	t0,4(sp)
   13f7c:	00810113          	addi	sp,sp,8
   13f80:	006282b3          	add	t0,t0,t1
   13f84:	ffc10113          	addi	sp,sp,-4
   13f88:	00512023          	sw	t0,0(sp)
   13f8c:	00a00293          	li	t0,10
   13f90:	ffc10113          	addi	sp,sp,-4
   13f94:	00512023          	sw	t0,0(sp)
   13f98:	00012283          	lw	t0,0(sp)
   13f9c:	00410113          	addi	sp,sp,4
   13fa0:	0ff2f293          	zext.b	t0,t0
   13fa4:	ffc10113          	addi	sp,sp,-4
   13fa8:	00512023          	sw	t0,0(sp)
   13fac:	00412503          	lw	a0,4(sp)
   13fb0:	00012583          	lw	a1,0(sp)
   13fb4:	ffffc097          	auipc	ra,0xffffc
   13fb8:	178080e7          	jalr	376(ra) # 1012c <poke8__u32__u8>
   13fbc:	00810113          	addi	sp,sp,8
   13fc0:	ffc10113          	addi	sp,sp,-4
   13fc4:	00a12023          	sw	a0,0(sp)
   13fc8:	00410113          	addi	sp,sp,4
   13fcc:	00100293          	li	t0,1
   13fd0:	ffc10113          	addi	sp,sp,-4
   13fd4:	00512023          	sw	t0,0(sp)
   13fd8:	ff042283          	lw	t0,-16(s0)
   13fdc:	ffc10113          	addi	sp,sp,-4
   13fe0:	00512023          	sw	t0,0(sp)
   13fe4:	00200293          	li	t0,2
   13fe8:	ffc10113          	addi	sp,sp,-4
   13fec:	00512023          	sw	t0,0(sp)
   13ff0:	00812503          	lw	a0,8(sp)
   13ff4:	00412583          	lw	a1,4(sp)
   13ff8:	00012603          	lw	a2,0(sp)
   13ffc:	fffff097          	auipc	ra,0xfffff
   14000:	6f0080e7          	jalr	1776(ra) # 136ec <sys_write__i32__U8Array__i32>
   14004:	00c10113          	addi	sp,sp,12
   14008:	ffc10113          	addi	sp,sp,-4
   1400c:	00a12023          	sw	a0,0(sp)
   14010:	00410113          	addi	sp,sp,4
   14014:	ff042283          	lw	t0,-16(s0)
   14018:	ffc10113          	addi	sp,sp,-4
   1401c:	00512023          	sw	t0,0(sp)
   14020:	00012283          	lw	t0,0(sp)
   14024:	00410113          	addi	sp,sp,4
   14028:	ffc10113          	addi	sp,sp,-4
   1402c:	00512023          	sw	t0,0(sp)
   14030:	00012503          	lw	a0,0(sp)
   14034:	fffff097          	auipc	ra,0xfffff
   14038:	198080e7          	jalr	408(ra) # 131cc <delete_impl__u32>
   1403c:	00410113          	addi	sp,sp,4
   14040:	ffc10113          	addi	sp,sp,-4
   14044:	00a12023          	sw	a0,0(sp)
   14048:	00410113          	addi	sp,sp,4
   1404c:	00040293          	mv	t0,s0
   14050:	ffc2a083          	lw	ra,-4(t0)
   14054:	ff82a403          	lw	s0,-8(t0)
   14058:	00028113          	mv	sp,t0
   1405c:	00008067          	ret
   14060:	00c00293          	li	t0,12
   14064:	ffc10113          	addi	sp,sp,-4
   14068:	00512023          	sw	t0,0(sp)
   1406c:	00012503          	lw	a0,0(sp)
   14070:	ffffd097          	auipc	ra,0xffffd
   14074:	29c080e7          	jalr	668(ra) # 1130c <U8Array__i32>
   14078:	00410113          	addi	sp,sp,4
   1407c:	ffc10113          	addi	sp,sp,-4
   14080:	00a12023          	sw	a0,0(sp)
   14084:	00012283          	lw	t0,0(sp)
   14088:	00410113          	addi	sp,sp,4
   1408c:	fe542423          	sw	t0,-24(s0)
   14090:	00000293          	li	t0,0
   14094:	ffc10113          	addi	sp,sp,-4
   14098:	00512023          	sw	t0,0(sp)
   1409c:	00012283          	lw	t0,0(sp)
   140a0:	00410113          	addi	sp,sp,4
   140a4:	fe542223          	sw	t0,-28(s0)
   140a8:	ff442283          	lw	t0,-12(s0)
   140ac:	ffc10113          	addi	sp,sp,-4
   140b0:	00512023          	sw	t0,0(sp)
   140b4:	00000293          	li	t0,0
   140b8:	ffc10113          	addi	sp,sp,-4
   140bc:	00512023          	sw	t0,0(sp)
   140c0:	00012303          	lw	t1,0(sp)
   140c4:	00412283          	lw	t0,4(sp)
   140c8:	00810113          	addi	sp,sp,8
   140cc:	005322b3          	slt	t0,t1,t0
   140d0:	ffc10113          	addi	sp,sp,-4
   140d4:	00512023          	sw	t0,0(sp)
   140d8:	00012283          	lw	t0,0(sp)
   140dc:	00410113          	addi	sp,sp,4
   140e0:	18028863          	beqz	t0,14270 <print_i32__i32+0x550>
   140e4:	fe842283          	lw	t0,-24(s0)
   140e8:	ffc10113          	addi	sp,sp,-4
   140ec:	00512023          	sw	t0,0(sp)
   140f0:	00012283          	lw	t0,0(sp)
   140f4:	00410113          	addi	sp,sp,4
   140f8:	ffc10113          	addi	sp,sp,-4
   140fc:	00512023          	sw	t0,0(sp)
   14100:	00400293          	li	t0,4
   14104:	ffc10113          	addi	sp,sp,-4
   14108:	00512023          	sw	t0,0(sp)
   1410c:	00012303          	lw	t1,0(sp)
   14110:	00412283          	lw	t0,4(sp)
   14114:	00810113          	addi	sp,sp,8
   14118:	006282b3          	add	t0,t0,t1
   1411c:	ffc10113          	addi	sp,sp,-4
   14120:	00512023          	sw	t0,0(sp)
   14124:	fe442283          	lw	t0,-28(s0)
   14128:	ffc10113          	addi	sp,sp,-4
   1412c:	00512023          	sw	t0,0(sp)
   14130:	00012283          	lw	t0,0(sp)
   14134:	00410113          	addi	sp,sp,4
   14138:	ffc10113          	addi	sp,sp,-4
   1413c:	00512023          	sw	t0,0(sp)
   14140:	00012303          	lw	t1,0(sp)
   14144:	00412283          	lw	t0,4(sp)
   14148:	00810113          	addi	sp,sp,8
   1414c:	006282b3          	add	t0,t0,t1
   14150:	ffc10113          	addi	sp,sp,-4
   14154:	00512023          	sw	t0,0(sp)
   14158:	03000293          	li	t0,48
   1415c:	ffc10113          	addi	sp,sp,-4
   14160:	00512023          	sw	t0,0(sp)
   14164:	ff442283          	lw	t0,-12(s0)
   14168:	ffc10113          	addi	sp,sp,-4
   1416c:	00512023          	sw	t0,0(sp)
   14170:	00a00293          	li	t0,10
   14174:	ffc10113          	addi	sp,sp,-4
   14178:	00512023          	sw	t0,0(sp)
   1417c:	00012303          	lw	t1,0(sp)
   14180:	00412283          	lw	t0,4(sp)
   14184:	00810113          	addi	sp,sp,8
   14188:	0262e2b3          	rem	t0,t0,t1
   1418c:	ffc10113          	addi	sp,sp,-4
   14190:	00512023          	sw	t0,0(sp)
   14194:	00012303          	lw	t1,0(sp)
   14198:	00412283          	lw	t0,4(sp)
   1419c:	00810113          	addi	sp,sp,8
   141a0:	006282b3          	add	t0,t0,t1
   141a4:	ffc10113          	addi	sp,sp,-4
   141a8:	00512023          	sw	t0,0(sp)
   141ac:	00012283          	lw	t0,0(sp)
   141b0:	00410113          	addi	sp,sp,4
   141b4:	0ff2f293          	zext.b	t0,t0
   141b8:	ffc10113          	addi	sp,sp,-4
   141bc:	00512023          	sw	t0,0(sp)
   141c0:	00012283          	lw	t0,0(sp)
   141c4:	00410113          	addi	sp,sp,4
   141c8:	0ff2f293          	zext.b	t0,t0
   141cc:	ffc10113          	addi	sp,sp,-4
   141d0:	00512023          	sw	t0,0(sp)
   141d4:	00412503          	lw	a0,4(sp)
   141d8:	00012583          	lw	a1,0(sp)
   141dc:	ffffc097          	auipc	ra,0xffffc
   141e0:	f50080e7          	jalr	-176(ra) # 1012c <poke8__u32__u8>
   141e4:	00810113          	addi	sp,sp,8
   141e8:	ffc10113          	addi	sp,sp,-4
   141ec:	00a12023          	sw	a0,0(sp)
   141f0:	00410113          	addi	sp,sp,4
   141f4:	fe442283          	lw	t0,-28(s0)
   141f8:	ffc10113          	addi	sp,sp,-4
   141fc:	00512023          	sw	t0,0(sp)
   14200:	00100293          	li	t0,1
   14204:	ffc10113          	addi	sp,sp,-4
   14208:	00512023          	sw	t0,0(sp)
   1420c:	00012303          	lw	t1,0(sp)
   14210:	00412283          	lw	t0,4(sp)
   14214:	00810113          	addi	sp,sp,8
   14218:	006282b3          	add	t0,t0,t1
   1421c:	ffc10113          	addi	sp,sp,-4
   14220:	00512023          	sw	t0,0(sp)
   14224:	00012283          	lw	t0,0(sp)
   14228:	00410113          	addi	sp,sp,4
   1422c:	fe542223          	sw	t0,-28(s0)
   14230:	ff442283          	lw	t0,-12(s0)
   14234:	ffc10113          	addi	sp,sp,-4
   14238:	00512023          	sw	t0,0(sp)
   1423c:	00a00293          	li	t0,10
   14240:	ffc10113          	addi	sp,sp,-4
   14244:	00512023          	sw	t0,0(sp)
   14248:	00012303          	lw	t1,0(sp)
   1424c:	00412283          	lw	t0,4(sp)
   14250:	00810113          	addi	sp,sp,8
   14254:	0262c2b3          	div	t0,t0,t1
   14258:	ffc10113          	addi	sp,sp,-4
   1425c:	00512023          	sw	t0,0(sp)
   14260:	00012283          	lw	t0,0(sp)
   14264:	00410113          	addi	sp,sp,4
   14268:	fe542a23          	sw	t0,-12(s0)
   1426c:	e3dff06f          	j	140a8 <print_i32__i32+0x388>
   14270:	00000293          	li	t0,0
   14274:	ffc10113          	addi	sp,sp,-4
   14278:	00512023          	sw	t0,0(sp)
   1427c:	00012283          	lw	t0,0(sp)
   14280:	00410113          	addi	sp,sp,4
   14284:	fe542023          	sw	t0,-32(s0)
   14288:	fec42283          	lw	t0,-20(s0)
   1428c:	ffc10113          	addi	sp,sp,-4
   14290:	00512023          	sw	t0,0(sp)
   14294:	00100293          	li	t0,1
   14298:	ffc10113          	addi	sp,sp,-4
   1429c:	00512023          	sw	t0,0(sp)
   142a0:	00012303          	lw	t1,0(sp)
   142a4:	00412283          	lw	t0,4(sp)
   142a8:	00810113          	addi	sp,sp,8
   142ac:	406282b3          	sub	t0,t0,t1
   142b0:	0012b293          	seqz	t0,t0
   142b4:	ffc10113          	addi	sp,sp,-4
   142b8:	00512023          	sw	t0,0(sp)
   142bc:	00012283          	lw	t0,0(sp)
   142c0:	00410113          	addi	sp,sp,4
   142c4:	0e028a63          	beqz	t0,143b8 <print_i32__i32+0x698>
   142c8:	ff042283          	lw	t0,-16(s0)
   142cc:	ffc10113          	addi	sp,sp,-4
   142d0:	00512023          	sw	t0,0(sp)
   142d4:	00012283          	lw	t0,0(sp)
   142d8:	00410113          	addi	sp,sp,4
   142dc:	ffc10113          	addi	sp,sp,-4
   142e0:	00512023          	sw	t0,0(sp)
   142e4:	00400293          	li	t0,4
   142e8:	ffc10113          	addi	sp,sp,-4
   142ec:	00512023          	sw	t0,0(sp)
   142f0:	00012303          	lw	t1,0(sp)
   142f4:	00412283          	lw	t0,4(sp)
   142f8:	00810113          	addi	sp,sp,8
   142fc:	006282b3          	add	t0,t0,t1
   14300:	ffc10113          	addi	sp,sp,-4
   14304:	00512023          	sw	t0,0(sp)
   14308:	fe042283          	lw	t0,-32(s0)
   1430c:	ffc10113          	addi	sp,sp,-4
   14310:	00512023          	sw	t0,0(sp)
   14314:	00012283          	lw	t0,0(sp)
   14318:	00410113          	addi	sp,sp,4
   1431c:	ffc10113          	addi	sp,sp,-4
   14320:	00512023          	sw	t0,0(sp)
   14324:	00012303          	lw	t1,0(sp)
   14328:	00412283          	lw	t0,4(sp)
   1432c:	00810113          	addi	sp,sp,8
   14330:	006282b3          	add	t0,t0,t1
   14334:	ffc10113          	addi	sp,sp,-4
   14338:	00512023          	sw	t0,0(sp)
   1433c:	02d00293          	li	t0,45
   14340:	ffc10113          	addi	sp,sp,-4
   14344:	00512023          	sw	t0,0(sp)
   14348:	00012283          	lw	t0,0(sp)
   1434c:	00410113          	addi	sp,sp,4
   14350:	0ff2f293          	zext.b	t0,t0
   14354:	ffc10113          	addi	sp,sp,-4
   14358:	00512023          	sw	t0,0(sp)
   1435c:	00412503          	lw	a0,4(sp)
   14360:	00012583          	lw	a1,0(sp)
   14364:	ffffc097          	auipc	ra,0xffffc
   14368:	dc8080e7          	jalr	-568(ra) # 1012c <poke8__u32__u8>
   1436c:	00810113          	addi	sp,sp,8
   14370:	ffc10113          	addi	sp,sp,-4
   14374:	00a12023          	sw	a0,0(sp)
   14378:	00410113          	addi	sp,sp,4
   1437c:	fe042283          	lw	t0,-32(s0)
   14380:	ffc10113          	addi	sp,sp,-4
   14384:	00512023          	sw	t0,0(sp)
   14388:	00100293          	li	t0,1
   1438c:	ffc10113          	addi	sp,sp,-4
   14390:	00512023          	sw	t0,0(sp)
   14394:	00012303          	lw	t1,0(sp)
   14398:	00412283          	lw	t0,4(sp)
   1439c:	00810113          	addi	sp,sp,8
   143a0:	006282b3          	add	t0,t0,t1
   143a4:	ffc10113          	addi	sp,sp,-4
   143a8:	00512023          	sw	t0,0(sp)
   143ac:	00012283          	lw	t0,0(sp)
   143b0:	00410113          	addi	sp,sp,4
   143b4:	fe542023          	sw	t0,-32(s0)
   143b8:	fe442283          	lw	t0,-28(s0)
   143bc:	ffc10113          	addi	sp,sp,-4
   143c0:	00512023          	sw	t0,0(sp)
   143c4:	00100293          	li	t0,1
   143c8:	ffc10113          	addi	sp,sp,-4
   143cc:	00512023          	sw	t0,0(sp)
   143d0:	00012303          	lw	t1,0(sp)
   143d4:	00412283          	lw	t0,4(sp)
   143d8:	00810113          	addi	sp,sp,8
   143dc:	406282b3          	sub	t0,t0,t1
   143e0:	ffc10113          	addi	sp,sp,-4
   143e4:	00512023          	sw	t0,0(sp)
   143e8:	00012283          	lw	t0,0(sp)
   143ec:	00410113          	addi	sp,sp,4
   143f0:	fc542e23          	sw	t0,-36(s0)
   143f4:	fdc42283          	lw	t0,-36(s0)
   143f8:	ffc10113          	addi	sp,sp,-4
   143fc:	00512023          	sw	t0,0(sp)
   14400:	00000293          	li	t0,0
   14404:	ffc10113          	addi	sp,sp,-4
   14408:	00512023          	sw	t0,0(sp)
   1440c:	00012303          	lw	t1,0(sp)
   14410:	00412283          	lw	t0,4(sp)
   14414:	00810113          	addi	sp,sp,8
   14418:	0062a2b3          	slt	t0,t0,t1
   1441c:	0012c293          	xori	t0,t0,1
   14420:	ffc10113          	addi	sp,sp,-4
   14424:	00512023          	sw	t0,0(sp)
   14428:	00012283          	lw	t0,0(sp)
   1442c:	00410113          	addi	sp,sp,4
   14430:	1c028463          	beqz	t0,145f8 <print_i32__i32+0x8d8>
   14434:	ff042283          	lw	t0,-16(s0)
   14438:	ffc10113          	addi	sp,sp,-4
   1443c:	00512023          	sw	t0,0(sp)
   14440:	00012283          	lw	t0,0(sp)
   14444:	00410113          	addi	sp,sp,4
   14448:	ffc10113          	addi	sp,sp,-4
   1444c:	00512023          	sw	t0,0(sp)
   14450:	00400293          	li	t0,4
   14454:	ffc10113          	addi	sp,sp,-4
   14458:	00512023          	sw	t0,0(sp)
   1445c:	00012303          	lw	t1,0(sp)
   14460:	00412283          	lw	t0,4(sp)
   14464:	00810113          	addi	sp,sp,8
   14468:	006282b3          	add	t0,t0,t1
   1446c:	ffc10113          	addi	sp,sp,-4
   14470:	00512023          	sw	t0,0(sp)
   14474:	fe042283          	lw	t0,-32(s0)
   14478:	ffc10113          	addi	sp,sp,-4
   1447c:	00512023          	sw	t0,0(sp)
   14480:	00012283          	lw	t0,0(sp)
   14484:	00410113          	addi	sp,sp,4
   14488:	ffc10113          	addi	sp,sp,-4
   1448c:	00512023          	sw	t0,0(sp)
   14490:	00012303          	lw	t1,0(sp)
   14494:	00412283          	lw	t0,4(sp)
   14498:	00810113          	addi	sp,sp,8
   1449c:	006282b3          	add	t0,t0,t1
   144a0:	ffc10113          	addi	sp,sp,-4
   144a4:	00512023          	sw	t0,0(sp)
   144a8:	fe842283          	lw	t0,-24(s0)
   144ac:	ffc10113          	addi	sp,sp,-4
   144b0:	00512023          	sw	t0,0(sp)
   144b4:	00012283          	lw	t0,0(sp)
   144b8:	00410113          	addi	sp,sp,4
   144bc:	ffc10113          	addi	sp,sp,-4
   144c0:	00512023          	sw	t0,0(sp)
   144c4:	00400293          	li	t0,4
   144c8:	ffc10113          	addi	sp,sp,-4
   144cc:	00512023          	sw	t0,0(sp)
   144d0:	00012303          	lw	t1,0(sp)
   144d4:	00412283          	lw	t0,4(sp)
   144d8:	00810113          	addi	sp,sp,8
   144dc:	006282b3          	add	t0,t0,t1
   144e0:	ffc10113          	addi	sp,sp,-4
   144e4:	00512023          	sw	t0,0(sp)
   144e8:	fdc42283          	lw	t0,-36(s0)
   144ec:	ffc10113          	addi	sp,sp,-4
   144f0:	00512023          	sw	t0,0(sp)
   144f4:	00012283          	lw	t0,0(sp)
   144f8:	00410113          	addi	sp,sp,4
   144fc:	ffc10113          	addi	sp,sp,-4
   14500:	00512023          	sw	t0,0(sp)
   14504:	00012303          	lw	t1,0(sp)
   14508:	00412283          	lw	t0,4(sp)
   1450c:	00810113          	addi	sp,sp,8
   14510:	006282b3          	add	t0,t0,t1
   14514:	ffc10113          	addi	sp,sp,-4
   14518:	00512023          	sw	t0,0(sp)
   1451c:	00012503          	lw	a0,0(sp)
   14520:	ffffc097          	auipc	ra,0xffffc
   14524:	bf4080e7          	jalr	-1036(ra) # 10114 <peek8__u32>
   14528:	00410113          	addi	sp,sp,4
   1452c:	ffc10113          	addi	sp,sp,-4
   14530:	00a12023          	sw	a0,0(sp)
   14534:	00012283          	lw	t0,0(sp)
   14538:	00410113          	addi	sp,sp,4
   1453c:	0ff2f293          	zext.b	t0,t0
   14540:	ffc10113          	addi	sp,sp,-4
   14544:	00512023          	sw	t0,0(sp)
   14548:	00012283          	lw	t0,0(sp)
   1454c:	00410113          	addi	sp,sp,4
   14550:	0ff2f293          	zext.b	t0,t0
   14554:	ffc10113          	addi	sp,sp,-4
   14558:	00512023          	sw	t0,0(sp)
   1455c:	00412503          	lw	a0,4(sp)
   14560:	00012583          	lw	a1,0(sp)
   14564:	ffffc097          	auipc	ra,0xffffc
   14568:	bc8080e7          	jalr	-1080(ra) # 1012c <poke8__u32__u8>
   1456c:	00810113          	addi	sp,sp,8
   14570:	ffc10113          	addi	sp,sp,-4
   14574:	00a12023          	sw	a0,0(sp)
   14578:	00410113          	addi	sp,sp,4
   1457c:	fe042283          	lw	t0,-32(s0)
   14580:	ffc10113          	addi	sp,sp,-4
   14584:	00512023          	sw	t0,0(sp)
   14588:	00100293          	li	t0,1
   1458c:	ffc10113          	addi	sp,sp,-4
   14590:	00512023          	sw	t0,0(sp)
   14594:	00012303          	lw	t1,0(sp)
   14598:	00412283          	lw	t0,4(sp)
   1459c:	00810113          	addi	sp,sp,8
   145a0:	006282b3          	add	t0,t0,t1
   145a4:	ffc10113          	addi	sp,sp,-4
   145a8:	00512023          	sw	t0,0(sp)
   145ac:	00012283          	lw	t0,0(sp)
   145b0:	00410113          	addi	sp,sp,4
   145b4:	fe542023          	sw	t0,-32(s0)
   145b8:	fdc42283          	lw	t0,-36(s0)
   145bc:	ffc10113          	addi	sp,sp,-4
   145c0:	00512023          	sw	t0,0(sp)
   145c4:	00100293          	li	t0,1
   145c8:	ffc10113          	addi	sp,sp,-4
   145cc:	00512023          	sw	t0,0(sp)
   145d0:	00012303          	lw	t1,0(sp)
   145d4:	00412283          	lw	t0,4(sp)
   145d8:	00810113          	addi	sp,sp,8
   145dc:	406282b3          	sub	t0,t0,t1
   145e0:	ffc10113          	addi	sp,sp,-4
   145e4:	00512023          	sw	t0,0(sp)
   145e8:	00012283          	lw	t0,0(sp)
   145ec:	00410113          	addi	sp,sp,4
   145f0:	fc542e23          	sw	t0,-36(s0)
   145f4:	e01ff06f          	j	143f4 <print_i32__i32+0x6d4>
   145f8:	ff042283          	lw	t0,-16(s0)
   145fc:	ffc10113          	addi	sp,sp,-4
   14600:	00512023          	sw	t0,0(sp)
   14604:	00012283          	lw	t0,0(sp)
   14608:	00410113          	addi	sp,sp,4
   1460c:	ffc10113          	addi	sp,sp,-4
   14610:	00512023          	sw	t0,0(sp)
   14614:	00400293          	li	t0,4
   14618:	ffc10113          	addi	sp,sp,-4
   1461c:	00512023          	sw	t0,0(sp)
   14620:	00012303          	lw	t1,0(sp)
   14624:	00412283          	lw	t0,4(sp)
   14628:	00810113          	addi	sp,sp,8
   1462c:	006282b3          	add	t0,t0,t1
   14630:	ffc10113          	addi	sp,sp,-4
   14634:	00512023          	sw	t0,0(sp)
   14638:	fe042283          	lw	t0,-32(s0)
   1463c:	ffc10113          	addi	sp,sp,-4
   14640:	00512023          	sw	t0,0(sp)
   14644:	00012283          	lw	t0,0(sp)
   14648:	00410113          	addi	sp,sp,4
   1464c:	ffc10113          	addi	sp,sp,-4
   14650:	00512023          	sw	t0,0(sp)
   14654:	00012303          	lw	t1,0(sp)
   14658:	00412283          	lw	t0,4(sp)
   1465c:	00810113          	addi	sp,sp,8
   14660:	006282b3          	add	t0,t0,t1
   14664:	ffc10113          	addi	sp,sp,-4
   14668:	00512023          	sw	t0,0(sp)
   1466c:	00a00293          	li	t0,10
   14670:	ffc10113          	addi	sp,sp,-4
   14674:	00512023          	sw	t0,0(sp)
   14678:	00012283          	lw	t0,0(sp)
   1467c:	00410113          	addi	sp,sp,4
   14680:	0ff2f293          	zext.b	t0,t0
   14684:	ffc10113          	addi	sp,sp,-4
   14688:	00512023          	sw	t0,0(sp)
   1468c:	00412503          	lw	a0,4(sp)
   14690:	00012583          	lw	a1,0(sp)
   14694:	ffffc097          	auipc	ra,0xffffc
   14698:	a98080e7          	jalr	-1384(ra) # 1012c <poke8__u32__u8>
   1469c:	00810113          	addi	sp,sp,8
   146a0:	ffc10113          	addi	sp,sp,-4
   146a4:	00a12023          	sw	a0,0(sp)
   146a8:	00410113          	addi	sp,sp,4
   146ac:	fe042283          	lw	t0,-32(s0)
   146b0:	ffc10113          	addi	sp,sp,-4
   146b4:	00512023          	sw	t0,0(sp)
   146b8:	00100293          	li	t0,1
   146bc:	ffc10113          	addi	sp,sp,-4
   146c0:	00512023          	sw	t0,0(sp)
   146c4:	00012303          	lw	t1,0(sp)
   146c8:	00412283          	lw	t0,4(sp)
   146cc:	00810113          	addi	sp,sp,8
   146d0:	006282b3          	add	t0,t0,t1
   146d4:	ffc10113          	addi	sp,sp,-4
   146d8:	00512023          	sw	t0,0(sp)
   146dc:	00012283          	lw	t0,0(sp)
   146e0:	00410113          	addi	sp,sp,4
   146e4:	fe542023          	sw	t0,-32(s0)
   146e8:	00100293          	li	t0,1
   146ec:	ffc10113          	addi	sp,sp,-4
   146f0:	00512023          	sw	t0,0(sp)
   146f4:	ff042283          	lw	t0,-16(s0)
   146f8:	ffc10113          	addi	sp,sp,-4
   146fc:	00512023          	sw	t0,0(sp)
   14700:	fe042283          	lw	t0,-32(s0)
   14704:	ffc10113          	addi	sp,sp,-4
   14708:	00512023          	sw	t0,0(sp)
   1470c:	00812503          	lw	a0,8(sp)
   14710:	00412583          	lw	a1,4(sp)
   14714:	00012603          	lw	a2,0(sp)
   14718:	fffff097          	auipc	ra,0xfffff
   1471c:	fd4080e7          	jalr	-44(ra) # 136ec <sys_write__i32__U8Array__i32>
   14720:	00c10113          	addi	sp,sp,12
   14724:	ffc10113          	addi	sp,sp,-4
   14728:	00a12023          	sw	a0,0(sp)
   1472c:	00410113          	addi	sp,sp,4
   14730:	fe842283          	lw	t0,-24(s0)
   14734:	ffc10113          	addi	sp,sp,-4
   14738:	00512023          	sw	t0,0(sp)
   1473c:	00012283          	lw	t0,0(sp)
   14740:	00410113          	addi	sp,sp,4
   14744:	ffc10113          	addi	sp,sp,-4
   14748:	00512023          	sw	t0,0(sp)
   1474c:	00012503          	lw	a0,0(sp)
   14750:	fffff097          	auipc	ra,0xfffff
   14754:	a7c080e7          	jalr	-1412(ra) # 131cc <delete_impl__u32>
   14758:	00410113          	addi	sp,sp,4
   1475c:	ffc10113          	addi	sp,sp,-4
   14760:	00a12023          	sw	a0,0(sp)
   14764:	00410113          	addi	sp,sp,4
   14768:	ff042283          	lw	t0,-16(s0)
   1476c:	ffc10113          	addi	sp,sp,-4
   14770:	00512023          	sw	t0,0(sp)
   14774:	00012283          	lw	t0,0(sp)
   14778:	00410113          	addi	sp,sp,4
   1477c:	ffc10113          	addi	sp,sp,-4
   14780:	00512023          	sw	t0,0(sp)
   14784:	00012503          	lw	a0,0(sp)
   14788:	fffff097          	auipc	ra,0xfffff
   1478c:	a44080e7          	jalr	-1468(ra) # 131cc <delete_impl__u32>
   14790:	00410113          	addi	sp,sp,4
   14794:	ffc10113          	addi	sp,sp,-4
   14798:	00a12023          	sw	a0,0(sp)
   1479c:	00410113          	addi	sp,sp,4
   147a0:	00040293          	mv	t0,s0
   147a4:	ffc2a083          	lw	ra,-4(t0)
   147a8:	ff82a403          	lw	s0,-8(t0)
   147ac:	00028113          	mv	sp,t0
   147b0:	00008067          	ret
   147b4:	00040293          	mv	t0,s0
   147b8:	ffc2a083          	lw	ra,-4(t0)
   147bc:	ff82a403          	lw	s0,-8(t0)
   147c0:	00028113          	mv	sp,t0
   147c4:	00008067          	ret

000147c8 <print_u32__u32>:
   147c8:	ff010113          	addi	sp,sp,-16
   147cc:	00112623          	sw	ra,12(sp)
   147d0:	00812423          	sw	s0,8(sp)
   147d4:	01010413          	addi	s0,sp,16
   147d8:	fea42a23          	sw	a0,-12(s0)
   147dc:	ff442283          	lw	t0,-12(s0)
   147e0:	ffc10113          	addi	sp,sp,-4
   147e4:	00512023          	sw	t0,0(sp)
   147e8:	00012283          	lw	t0,0(sp)
   147ec:	00410113          	addi	sp,sp,4
   147f0:	ffc10113          	addi	sp,sp,-4
   147f4:	00512023          	sw	t0,0(sp)
   147f8:	00012503          	lw	a0,0(sp)
   147fc:	fffff097          	auipc	ra,0xfffff
   14800:	524080e7          	jalr	1316(ra) # 13d20 <print_i32__i32>
   14804:	00410113          	addi	sp,sp,4
   14808:	ffc10113          	addi	sp,sp,-4
   1480c:	00a12023          	sw	a0,0(sp)
   14810:	00410113          	addi	sp,sp,4
   14814:	00040293          	mv	t0,s0
   14818:	ffc2a083          	lw	ra,-4(t0)
   1481c:	ff82a403          	lw	s0,-8(t0)
   14820:	00028113          	mv	sp,t0
   14824:	00008067          	ret
   14828:	00040293          	mv	t0,s0
   1482c:	ffc2a083          	lw	ra,-4(t0)
   14830:	ff82a403          	lw	s0,-8(t0)
   14834:	00028113          	mv	sp,t0
   14838:	00008067          	ret

0001483c <print_bool__bool>:
   1483c:	ff010113          	addi	sp,sp,-16
   14840:	00112623          	sw	ra,12(sp)
   14844:	00812423          	sw	s0,8(sp)
   14848:	01010413          	addi	s0,sp,16
   1484c:	fea42a23          	sw	a0,-12(s0)
   14850:	ff442283          	lw	t0,-12(s0)
   14854:	ffc10113          	addi	sp,sp,-4
   14858:	00512023          	sw	t0,0(sp)
   1485c:	00012283          	lw	t0,0(sp)
   14860:	00410113          	addi	sp,sp,4
   14864:	02028863          	beqz	t0,14894 <print_bool__bool+0x58>
   14868:	00100293          	li	t0,1
   1486c:	ffc10113          	addi	sp,sp,-4
   14870:	00512023          	sw	t0,0(sp)
   14874:	00012503          	lw	a0,0(sp)
   14878:	fffff097          	auipc	ra,0xfffff
   1487c:	4a8080e7          	jalr	1192(ra) # 13d20 <print_i32__i32>
   14880:	00410113          	addi	sp,sp,4
   14884:	ffc10113          	addi	sp,sp,-4
   14888:	00a12023          	sw	a0,0(sp)
   1488c:	00410113          	addi	sp,sp,4
   14890:	02c0006f          	j	148bc <print_bool__bool+0x80>
   14894:	00000293          	li	t0,0
   14898:	ffc10113          	addi	sp,sp,-4
   1489c:	00512023          	sw	t0,0(sp)
   148a0:	00012503          	lw	a0,0(sp)
   148a4:	fffff097          	auipc	ra,0xfffff
   148a8:	47c080e7          	jalr	1148(ra) # 13d20 <print_i32__i32>
   148ac:	00410113          	addi	sp,sp,4
   148b0:	ffc10113          	addi	sp,sp,-4
   148b4:	00a12023          	sw	a0,0(sp)
   148b8:	00410113          	addi	sp,sp,4
   148bc:	00040293          	mv	t0,s0
   148c0:	ffc2a083          	lw	ra,-4(t0)
   148c4:	ff82a403          	lw	s0,-8(t0)
   148c8:	00028113          	mv	sp,t0
   148cc:	00008067          	ret
   148d0:	00040293          	mv	t0,s0
   148d4:	ffc2a083          	lw	ra,-4(t0)
   148d8:	ff82a403          	lw	s0,-8(t0)
   148dc:	00028113          	mv	sp,t0
   148e0:	00008067          	ret

000148e4 <print_str__String>:
   148e4:	fe010113          	addi	sp,sp,-32
   148e8:	00112e23          	sw	ra,28(sp)
   148ec:	00812c23          	sw	s0,24(sp)
   148f0:	02010413          	addi	s0,sp,32
   148f4:	fea42a23          	sw	a0,-12(s0)
   148f8:	fe042823          	sw	zero,-16(s0)
   148fc:	fe042623          	sw	zero,-20(s0)
   14900:	ff442283          	lw	t0,-12(s0)
   14904:	ffc10113          	addi	sp,sp,-4
   14908:	00512023          	sw	t0,0(sp)
   1490c:	00012283          	lw	t0,0(sp)
   14910:	00410113          	addi	sp,sp,4
   14914:	ffc10113          	addi	sp,sp,-4
   14918:	00512023          	sw	t0,0(sp)
   1491c:	00000293          	li	t0,0
   14920:	ffc10113          	addi	sp,sp,-4
   14924:	00512023          	sw	t0,0(sp)
   14928:	00012303          	lw	t1,0(sp)
   1492c:	00412283          	lw	t0,4(sp)
   14930:	00810113          	addi	sp,sp,8
   14934:	406282b3          	sub	t0,t0,t1
   14938:	005032b3          	snez	t0,t0
   1493c:	ffc10113          	addi	sp,sp,-4
   14940:	00512023          	sw	t0,0(sp)
   14944:	00012283          	lw	t0,0(sp)
   14948:	00410113          	addi	sp,sp,4
   1494c:	0c028863          	beqz	t0,14a1c <print_str__String+0x138>
   14950:	ff442283          	lw	t0,-12(s0)
   14954:	ffc10113          	addi	sp,sp,-4
   14958:	00512023          	sw	t0,0(sp)
   1495c:	00012283          	lw	t0,0(sp)
   14960:	00410113          	addi	sp,sp,4
   14964:	ffc10113          	addi	sp,sp,-4
   14968:	00512023          	sw	t0,0(sp)
   1496c:	00012503          	lw	a0,0(sp)
   14970:	ffffb097          	auipc	ra,0xffffb
   14974:	7b4080e7          	jalr	1972(ra) # 10124 <peek32__u32>
   14978:	00410113          	addi	sp,sp,4
   1497c:	ffc10113          	addi	sp,sp,-4
   14980:	00a12023          	sw	a0,0(sp)
   14984:	00012283          	lw	t0,0(sp)
   14988:	00410113          	addi	sp,sp,4
   1498c:	ffc10113          	addi	sp,sp,-4
   14990:	00512023          	sw	t0,0(sp)
   14994:	00012283          	lw	t0,0(sp)
   14998:	00410113          	addi	sp,sp,4
   1499c:	fe542823          	sw	t0,-16(s0)
   149a0:	00100293          	li	t0,1
   149a4:	ffc10113          	addi	sp,sp,-4
   149a8:	00512023          	sw	t0,0(sp)
   149ac:	ff442283          	lw	t0,-12(s0)
   149b0:	ffc10113          	addi	sp,sp,-4
   149b4:	00512023          	sw	t0,0(sp)
   149b8:	00012283          	lw	t0,0(sp)
   149bc:	00410113          	addi	sp,sp,4
   149c0:	ffc10113          	addi	sp,sp,-4
   149c4:	00512023          	sw	t0,0(sp)
   149c8:	00400293          	li	t0,4
   149cc:	ffc10113          	addi	sp,sp,-4
   149d0:	00512023          	sw	t0,0(sp)
   149d4:	00012303          	lw	t1,0(sp)
   149d8:	00412283          	lw	t0,4(sp)
   149dc:	00810113          	addi	sp,sp,8
   149e0:	006282b3          	add	t0,t0,t1
   149e4:	ffc10113          	addi	sp,sp,-4
   149e8:	00512023          	sw	t0,0(sp)
   149ec:	ff042283          	lw	t0,-16(s0)
   149f0:	ffc10113          	addi	sp,sp,-4
   149f4:	00512023          	sw	t0,0(sp)
   149f8:	00812503          	lw	a0,8(sp)
   149fc:	00412583          	lw	a1,4(sp)
   14a00:	00012603          	lw	a2,0(sp)
   14a04:	ffffb097          	auipc	ra,0xffffb
   14a08:	6ec080e7          	jalr	1772(ra) # 100f0 <do_write__i32__u32__i32>
   14a0c:	00c10113          	addi	sp,sp,12
   14a10:	ffc10113          	addi	sp,sp,-4
   14a14:	00a12023          	sw	a0,0(sp)
   14a18:	00410113          	addi	sp,sp,4
   14a1c:	00100293          	li	t0,1
   14a20:	ffc10113          	addi	sp,sp,-4
   14a24:	00512023          	sw	t0,0(sp)
   14a28:	00000293          	li	t0,0
   14a2c:	ffc10113          	addi	sp,sp,-4
   14a30:	00512023          	sw	t0,0(sp)
   14a34:	00000293          	li	t0,0
   14a38:	ffc10113          	addi	sp,sp,-4
   14a3c:	00512023          	sw	t0,0(sp)
   14a40:	00812503          	lw	a0,8(sp)
   14a44:	00412583          	lw	a1,4(sp)
   14a48:	00012603          	lw	a2,0(sp)
   14a4c:	ffffb097          	auipc	ra,0xffffb
   14a50:	6a4080e7          	jalr	1700(ra) # 100f0 <do_write__i32__u32__i32>
   14a54:	00c10113          	addi	sp,sp,12
   14a58:	ffc10113          	addi	sp,sp,-4
   14a5c:	00a12023          	sw	a0,0(sp)
   14a60:	00410113          	addi	sp,sp,4
   14a64:	00100293          	li	t0,1
   14a68:	ffc10113          	addi	sp,sp,-4
   14a6c:	00512023          	sw	t0,0(sp)
   14a70:	00012503          	lw	a0,0(sp)
   14a74:	ffffd097          	auipc	ra,0xffffd
   14a78:	898080e7          	jalr	-1896(ra) # 1130c <U8Array__i32>
   14a7c:	00410113          	addi	sp,sp,4
   14a80:	ffc10113          	addi	sp,sp,-4
   14a84:	00a12023          	sw	a0,0(sp)
   14a88:	00012283          	lw	t0,0(sp)
   14a8c:	00410113          	addi	sp,sp,4
   14a90:	fe542623          	sw	t0,-20(s0)
   14a94:	fec42283          	lw	t0,-20(s0)
   14a98:	ffc10113          	addi	sp,sp,-4
   14a9c:	00512023          	sw	t0,0(sp)
   14aa0:	00012283          	lw	t0,0(sp)
   14aa4:	00410113          	addi	sp,sp,4
   14aa8:	ffc10113          	addi	sp,sp,-4
   14aac:	00512023          	sw	t0,0(sp)
   14ab0:	00400293          	li	t0,4
   14ab4:	ffc10113          	addi	sp,sp,-4
   14ab8:	00512023          	sw	t0,0(sp)
   14abc:	00012303          	lw	t1,0(sp)
   14ac0:	00412283          	lw	t0,4(sp)
   14ac4:	00810113          	addi	sp,sp,8
   14ac8:	006282b3          	add	t0,t0,t1
   14acc:	ffc10113          	addi	sp,sp,-4
   14ad0:	00512023          	sw	t0,0(sp)
   14ad4:	00000293          	li	t0,0
   14ad8:	ffc10113          	addi	sp,sp,-4
   14adc:	00512023          	sw	t0,0(sp)
   14ae0:	00012283          	lw	t0,0(sp)
   14ae4:	00410113          	addi	sp,sp,4
   14ae8:	ffc10113          	addi	sp,sp,-4
   14aec:	00512023          	sw	t0,0(sp)
   14af0:	00012303          	lw	t1,0(sp)
   14af4:	00412283          	lw	t0,4(sp)
   14af8:	00810113          	addi	sp,sp,8
   14afc:	006282b3          	add	t0,t0,t1
   14b00:	ffc10113          	addi	sp,sp,-4
   14b04:	00512023          	sw	t0,0(sp)
   14b08:	00a00293          	li	t0,10
   14b0c:	ffc10113          	addi	sp,sp,-4
   14b10:	00512023          	sw	t0,0(sp)
   14b14:	00012283          	lw	t0,0(sp)
   14b18:	00410113          	addi	sp,sp,4
   14b1c:	0ff2f293          	zext.b	t0,t0
   14b20:	ffc10113          	addi	sp,sp,-4
   14b24:	00512023          	sw	t0,0(sp)
   14b28:	00412503          	lw	a0,4(sp)
   14b2c:	00012583          	lw	a1,0(sp)
   14b30:	ffffb097          	auipc	ra,0xffffb
   14b34:	5fc080e7          	jalr	1532(ra) # 1012c <poke8__u32__u8>
   14b38:	00810113          	addi	sp,sp,8
   14b3c:	ffc10113          	addi	sp,sp,-4
   14b40:	00a12023          	sw	a0,0(sp)
   14b44:	00410113          	addi	sp,sp,4
   14b48:	00100293          	li	t0,1
   14b4c:	ffc10113          	addi	sp,sp,-4
   14b50:	00512023          	sw	t0,0(sp)
   14b54:	fec42283          	lw	t0,-20(s0)
   14b58:	ffc10113          	addi	sp,sp,-4
   14b5c:	00512023          	sw	t0,0(sp)
   14b60:	00100293          	li	t0,1
   14b64:	ffc10113          	addi	sp,sp,-4
   14b68:	00512023          	sw	t0,0(sp)
   14b6c:	00812503          	lw	a0,8(sp)
   14b70:	00412583          	lw	a1,4(sp)
   14b74:	00012603          	lw	a2,0(sp)
   14b78:	fffff097          	auipc	ra,0xfffff
   14b7c:	b74080e7          	jalr	-1164(ra) # 136ec <sys_write__i32__U8Array__i32>
   14b80:	00c10113          	addi	sp,sp,12
   14b84:	ffc10113          	addi	sp,sp,-4
   14b88:	00a12023          	sw	a0,0(sp)
   14b8c:	00410113          	addi	sp,sp,4
   14b90:	fec42283          	lw	t0,-20(s0)
   14b94:	ffc10113          	addi	sp,sp,-4
   14b98:	00512023          	sw	t0,0(sp)
   14b9c:	00012283          	lw	t0,0(sp)
   14ba0:	00410113          	addi	sp,sp,4
   14ba4:	ffc10113          	addi	sp,sp,-4
   14ba8:	00512023          	sw	t0,0(sp)
   14bac:	00012503          	lw	a0,0(sp)
   14bb0:	ffffe097          	auipc	ra,0xffffe
   14bb4:	61c080e7          	jalr	1564(ra) # 131cc <delete_impl__u32>
   14bb8:	00410113          	addi	sp,sp,4
   14bbc:	ffc10113          	addi	sp,sp,-4
   14bc0:	00a12023          	sw	a0,0(sp)
   14bc4:	00410113          	addi	sp,sp,4
   14bc8:	00040293          	mv	t0,s0
   14bcc:	ffc2a083          	lw	ra,-4(t0)
   14bd0:	ff82a403          	lw	s0,-8(t0)
   14bd4:	00028113          	mv	sp,t0
   14bd8:	00008067          	ret
   14bdc:	00040293          	mv	t0,s0
   14be0:	ffc2a083          	lw	ra,-4(t0)
   14be4:	ff82a403          	lw	s0,-8(t0)
   14be8:	00028113          	mv	sp,t0
   14bec:	00008067          	ret

00014bf0 <print_str__StringLiteral>:
   14bf0:	ff010113          	addi	sp,sp,-16
   14bf4:	00112623          	sw	ra,12(sp)
   14bf8:	00812423          	sw	s0,8(sp)
   14bfc:	01010413          	addi	s0,sp,16
   14c00:	fea42a23          	sw	a0,-12(s0)
   14c04:	ff442283          	lw	t0,-12(s0)
   14c08:	ffc10113          	addi	sp,sp,-4
   14c0c:	00512023          	sw	t0,0(sp)
   14c10:	00012503          	lw	a0,0(sp)
   14c14:	00000097          	auipc	ra,0x0
   14c18:	cd0080e7          	jalr	-816(ra) # 148e4 <print_str__String>
   14c1c:	00410113          	addi	sp,sp,4
   14c20:	ffc10113          	addi	sp,sp,-4
   14c24:	00a12023          	sw	a0,0(sp)
   14c28:	00410113          	addi	sp,sp,4
   14c2c:	00040293          	mv	t0,s0
   14c30:	ffc2a083          	lw	ra,-4(t0)
   14c34:	ff82a403          	lw	s0,-8(t0)
   14c38:	00028113          	mv	sp,t0
   14c3c:	00008067          	ret
   14c40:	00040293          	mv	t0,s0
   14c44:	ffc2a083          	lw	ra,-4(t0)
   14c48:	ff82a403          	lw	s0,-8(t0)
   14c4c:	00028113          	mv	sp,t0
   14c50:	00008067          	ret

00014c54 <append__String__u8>:
   14c54:	fd010113          	addi	sp,sp,-48
   14c58:	02112623          	sw	ra,44(sp)
   14c5c:	02812423          	sw	s0,40(sp)
   14c60:	03010413          	addi	s0,sp,48
   14c64:	fea42a23          	sw	a0,-12(s0)
   14c68:	feb42823          	sw	a1,-16(s0)
   14c6c:	fe042623          	sw	zero,-20(s0)
   14c70:	fe042423          	sw	zero,-24(s0)
   14c74:	fe042223          	sw	zero,-28(s0)
   14c78:	00000293          	li	t0,0
   14c7c:	ffc10113          	addi	sp,sp,-4
   14c80:	00512023          	sw	t0,0(sp)
   14c84:	00012283          	lw	t0,0(sp)
   14c88:	00410113          	addi	sp,sp,4
   14c8c:	fe542623          	sw	t0,-20(s0)
   14c90:	ff442283          	lw	t0,-12(s0)
   14c94:	ffc10113          	addi	sp,sp,-4
   14c98:	00512023          	sw	t0,0(sp)
   14c9c:	00012283          	lw	t0,0(sp)
   14ca0:	00410113          	addi	sp,sp,4
   14ca4:	ffc10113          	addi	sp,sp,-4
   14ca8:	00512023          	sw	t0,0(sp)
   14cac:	00000293          	li	t0,0
   14cb0:	ffc10113          	addi	sp,sp,-4
   14cb4:	00512023          	sw	t0,0(sp)
   14cb8:	00012303          	lw	t1,0(sp)
   14cbc:	00412283          	lw	t0,4(sp)
   14cc0:	00810113          	addi	sp,sp,8
   14cc4:	406282b3          	sub	t0,t0,t1
   14cc8:	005032b3          	snez	t0,t0
   14ccc:	ffc10113          	addi	sp,sp,-4
   14cd0:	00512023          	sw	t0,0(sp)
   14cd4:	00012283          	lw	t0,0(sp)
   14cd8:	00410113          	addi	sp,sp,4
   14cdc:	04028a63          	beqz	t0,14d30 <append__String__u8+0xdc>
   14ce0:	ff442283          	lw	t0,-12(s0)
   14ce4:	ffc10113          	addi	sp,sp,-4
   14ce8:	00512023          	sw	t0,0(sp)
   14cec:	00012283          	lw	t0,0(sp)
   14cf0:	00410113          	addi	sp,sp,4
   14cf4:	ffc10113          	addi	sp,sp,-4
   14cf8:	00512023          	sw	t0,0(sp)
   14cfc:	00012503          	lw	a0,0(sp)
   14d00:	ffffb097          	auipc	ra,0xffffb
   14d04:	424080e7          	jalr	1060(ra) # 10124 <peek32__u32>
   14d08:	00410113          	addi	sp,sp,4
   14d0c:	ffc10113          	addi	sp,sp,-4
   14d10:	00a12023          	sw	a0,0(sp)
   14d14:	00012283          	lw	t0,0(sp)
   14d18:	00410113          	addi	sp,sp,4
   14d1c:	ffc10113          	addi	sp,sp,-4
   14d20:	00512023          	sw	t0,0(sp)
   14d24:	00012283          	lw	t0,0(sp)
   14d28:	00410113          	addi	sp,sp,4
   14d2c:	fe542623          	sw	t0,-20(s0)
   14d30:	fec42283          	lw	t0,-20(s0)
   14d34:	ffc10113          	addi	sp,sp,-4
   14d38:	00512023          	sw	t0,0(sp)
   14d3c:	00100293          	li	t0,1
   14d40:	ffc10113          	addi	sp,sp,-4
   14d44:	00512023          	sw	t0,0(sp)
   14d48:	00012303          	lw	t1,0(sp)
   14d4c:	00412283          	lw	t0,4(sp)
   14d50:	00810113          	addi	sp,sp,8
   14d54:	006282b3          	add	t0,t0,t1
   14d58:	ffc10113          	addi	sp,sp,-4
   14d5c:	00512023          	sw	t0,0(sp)
   14d60:	fec42283          	lw	t0,-20(s0)
   14d64:	ffc10113          	addi	sp,sp,-4
   14d68:	00512023          	sw	t0,0(sp)
   14d6c:	00200293          	li	t0,2
   14d70:	ffc10113          	addi	sp,sp,-4
   14d74:	00512023          	sw	t0,0(sp)
   14d78:	00012303          	lw	t1,0(sp)
   14d7c:	00412283          	lw	t0,4(sp)
   14d80:	00810113          	addi	sp,sp,8
   14d84:	006282b3          	add	t0,t0,t1
   14d88:	ffc10113          	addi	sp,sp,-4
   14d8c:	00512023          	sw	t0,0(sp)
   14d90:	00412503          	lw	a0,4(sp)
   14d94:	00012583          	lw	a1,0(sp)
   14d98:	ffffc097          	auipc	ra,0xffffc
   14d9c:	40c080e7          	jalr	1036(ra) # 111a4 <new_array__i32__i32>
   14da0:	00810113          	addi	sp,sp,8
   14da4:	ffc10113          	addi	sp,sp,-4
   14da8:	00a12023          	sw	a0,0(sp)
   14dac:	00012283          	lw	t0,0(sp)
   14db0:	00410113          	addi	sp,sp,4
   14db4:	fe542423          	sw	t0,-24(s0)
   14db8:	00000293          	li	t0,0
   14dbc:	ffc10113          	addi	sp,sp,-4
   14dc0:	00512023          	sw	t0,0(sp)
   14dc4:	00012283          	lw	t0,0(sp)
   14dc8:	00410113          	addi	sp,sp,4
   14dcc:	fe542223          	sw	t0,-28(s0)
   14dd0:	fe442283          	lw	t0,-28(s0)
   14dd4:	ffc10113          	addi	sp,sp,-4
   14dd8:	00512023          	sw	t0,0(sp)
   14ddc:	fec42283          	lw	t0,-20(s0)
   14de0:	ffc10113          	addi	sp,sp,-4
   14de4:	00512023          	sw	t0,0(sp)
   14de8:	00012303          	lw	t1,0(sp)
   14dec:	00412283          	lw	t0,4(sp)
   14df0:	00810113          	addi	sp,sp,8
   14df4:	0062a2b3          	slt	t0,t0,t1
   14df8:	ffc10113          	addi	sp,sp,-4
   14dfc:	00512023          	sw	t0,0(sp)
   14e00:	00012283          	lw	t0,0(sp)
   14e04:	00410113          	addi	sp,sp,4
   14e08:	16028463          	beqz	t0,14f70 <append__String__u8+0x31c>
   14e0c:	fe842283          	lw	t0,-24(s0)
   14e10:	ffc10113          	addi	sp,sp,-4
   14e14:	00512023          	sw	t0,0(sp)
   14e18:	00400293          	li	t0,4
   14e1c:	ffc10113          	addi	sp,sp,-4
   14e20:	00512023          	sw	t0,0(sp)
   14e24:	00012303          	lw	t1,0(sp)
   14e28:	00412283          	lw	t0,4(sp)
   14e2c:	00810113          	addi	sp,sp,8
   14e30:	006282b3          	add	t0,t0,t1
   14e34:	ffc10113          	addi	sp,sp,-4
   14e38:	00512023          	sw	t0,0(sp)
   14e3c:	fe442283          	lw	t0,-28(s0)
   14e40:	ffc10113          	addi	sp,sp,-4
   14e44:	00512023          	sw	t0,0(sp)
   14e48:	00012283          	lw	t0,0(sp)
   14e4c:	00410113          	addi	sp,sp,4
   14e50:	ffc10113          	addi	sp,sp,-4
   14e54:	00512023          	sw	t0,0(sp)
   14e58:	00012303          	lw	t1,0(sp)
   14e5c:	00412283          	lw	t0,4(sp)
   14e60:	00810113          	addi	sp,sp,8
   14e64:	006282b3          	add	t0,t0,t1
   14e68:	ffc10113          	addi	sp,sp,-4
   14e6c:	00512023          	sw	t0,0(sp)
   14e70:	ff442283          	lw	t0,-12(s0)
   14e74:	ffc10113          	addi	sp,sp,-4
   14e78:	00512023          	sw	t0,0(sp)
   14e7c:	00012283          	lw	t0,0(sp)
   14e80:	00410113          	addi	sp,sp,4
   14e84:	ffc10113          	addi	sp,sp,-4
   14e88:	00512023          	sw	t0,0(sp)
   14e8c:	00400293          	li	t0,4
   14e90:	ffc10113          	addi	sp,sp,-4
   14e94:	00512023          	sw	t0,0(sp)
   14e98:	00012303          	lw	t1,0(sp)
   14e9c:	00412283          	lw	t0,4(sp)
   14ea0:	00810113          	addi	sp,sp,8
   14ea4:	006282b3          	add	t0,t0,t1
   14ea8:	ffc10113          	addi	sp,sp,-4
   14eac:	00512023          	sw	t0,0(sp)
   14eb0:	fe442283          	lw	t0,-28(s0)
   14eb4:	ffc10113          	addi	sp,sp,-4
   14eb8:	00512023          	sw	t0,0(sp)
   14ebc:	00012283          	lw	t0,0(sp)
   14ec0:	00410113          	addi	sp,sp,4
   14ec4:	ffc10113          	addi	sp,sp,-4
   14ec8:	00512023          	sw	t0,0(sp)
   14ecc:	00012303          	lw	t1,0(sp)
   14ed0:	00412283          	lw	t0,4(sp)
   14ed4:	00810113          	addi	sp,sp,8
   14ed8:	006282b3          	add	t0,t0,t1
   14edc:	ffc10113          	addi	sp,sp,-4
   14ee0:	00512023          	sw	t0,0(sp)
   14ee4:	00012503          	lw	a0,0(sp)
   14ee8:	ffffb097          	auipc	ra,0xffffb
   14eec:	22c080e7          	jalr	556(ra) # 10114 <peek8__u32>
   14ef0:	00410113          	addi	sp,sp,4
   14ef4:	ffc10113          	addi	sp,sp,-4
   14ef8:	00a12023          	sw	a0,0(sp)
   14efc:	00012283          	lw	t0,0(sp)
   14f00:	00410113          	addi	sp,sp,4
   14f04:	0ff2f293          	zext.b	t0,t0
   14f08:	ffc10113          	addi	sp,sp,-4
   14f0c:	00512023          	sw	t0,0(sp)
   14f10:	00412503          	lw	a0,4(sp)
   14f14:	00012583          	lw	a1,0(sp)
   14f18:	ffffb097          	auipc	ra,0xffffb
   14f1c:	214080e7          	jalr	532(ra) # 1012c <poke8__u32__u8>
   14f20:	00810113          	addi	sp,sp,8
   14f24:	ffc10113          	addi	sp,sp,-4
   14f28:	00a12023          	sw	a0,0(sp)
   14f2c:	00410113          	addi	sp,sp,4
   14f30:	fe442283          	lw	t0,-28(s0)
   14f34:	ffc10113          	addi	sp,sp,-4
   14f38:	00512023          	sw	t0,0(sp)
   14f3c:	00100293          	li	t0,1
   14f40:	ffc10113          	addi	sp,sp,-4
   14f44:	00512023          	sw	t0,0(sp)
   14f48:	00012303          	lw	t1,0(sp)
   14f4c:	00412283          	lw	t0,4(sp)
   14f50:	00810113          	addi	sp,sp,8
   14f54:	006282b3          	add	t0,t0,t1
   14f58:	ffc10113          	addi	sp,sp,-4
   14f5c:	00512023          	sw	t0,0(sp)
   14f60:	00012283          	lw	t0,0(sp)
   14f64:	00410113          	addi	sp,sp,4
   14f68:	fe542223          	sw	t0,-28(s0)
   14f6c:	e65ff06f          	j	14dd0 <append__String__u8+0x17c>
   14f70:	fe842283          	lw	t0,-24(s0)
   14f74:	ffc10113          	addi	sp,sp,-4
   14f78:	00512023          	sw	t0,0(sp)
   14f7c:	00400293          	li	t0,4
   14f80:	ffc10113          	addi	sp,sp,-4
   14f84:	00512023          	sw	t0,0(sp)
   14f88:	00012303          	lw	t1,0(sp)
   14f8c:	00412283          	lw	t0,4(sp)
   14f90:	00810113          	addi	sp,sp,8
   14f94:	006282b3          	add	t0,t0,t1
   14f98:	ffc10113          	addi	sp,sp,-4
   14f9c:	00512023          	sw	t0,0(sp)
   14fa0:	fec42283          	lw	t0,-20(s0)
   14fa4:	ffc10113          	addi	sp,sp,-4
   14fa8:	00512023          	sw	t0,0(sp)
   14fac:	00012283          	lw	t0,0(sp)
   14fb0:	00410113          	addi	sp,sp,4
   14fb4:	ffc10113          	addi	sp,sp,-4
   14fb8:	00512023          	sw	t0,0(sp)
   14fbc:	00012303          	lw	t1,0(sp)
   14fc0:	00412283          	lw	t0,4(sp)
   14fc4:	00810113          	addi	sp,sp,8
   14fc8:	006282b3          	add	t0,t0,t1
   14fcc:	ffc10113          	addi	sp,sp,-4
   14fd0:	00512023          	sw	t0,0(sp)
   14fd4:	ff042283          	lw	t0,-16(s0)
   14fd8:	ffc10113          	addi	sp,sp,-4
   14fdc:	00512023          	sw	t0,0(sp)
   14fe0:	00012283          	lw	t0,0(sp)
   14fe4:	00410113          	addi	sp,sp,4
   14fe8:	0ff2f293          	zext.b	t0,t0
   14fec:	ffc10113          	addi	sp,sp,-4
   14ff0:	00512023          	sw	t0,0(sp)
   14ff4:	00412503          	lw	a0,4(sp)
   14ff8:	00012583          	lw	a1,0(sp)
   14ffc:	ffffb097          	auipc	ra,0xffffb
   15000:	130080e7          	jalr	304(ra) # 1012c <poke8__u32__u8>
   15004:	00810113          	addi	sp,sp,8
   15008:	ffc10113          	addi	sp,sp,-4
   1500c:	00a12023          	sw	a0,0(sp)
   15010:	00410113          	addi	sp,sp,4
   15014:	fe842283          	lw	t0,-24(s0)
   15018:	ffc10113          	addi	sp,sp,-4
   1501c:	00512023          	sw	t0,0(sp)
   15020:	00400293          	li	t0,4
   15024:	ffc10113          	addi	sp,sp,-4
   15028:	00512023          	sw	t0,0(sp)
   1502c:	00012303          	lw	t1,0(sp)
   15030:	00412283          	lw	t0,4(sp)
   15034:	00810113          	addi	sp,sp,8
   15038:	006282b3          	add	t0,t0,t1
   1503c:	ffc10113          	addi	sp,sp,-4
   15040:	00512023          	sw	t0,0(sp)
   15044:	fec42283          	lw	t0,-20(s0)
   15048:	ffc10113          	addi	sp,sp,-4
   1504c:	00512023          	sw	t0,0(sp)
   15050:	00100293          	li	t0,1
   15054:	ffc10113          	addi	sp,sp,-4
   15058:	00512023          	sw	t0,0(sp)
   1505c:	00012303          	lw	t1,0(sp)
   15060:	00412283          	lw	t0,4(sp)
   15064:	00810113          	addi	sp,sp,8
   15068:	006282b3          	add	t0,t0,t1
   1506c:	ffc10113          	addi	sp,sp,-4
   15070:	00512023          	sw	t0,0(sp)
   15074:	00012283          	lw	t0,0(sp)
   15078:	00410113          	addi	sp,sp,4
   1507c:	ffc10113          	addi	sp,sp,-4
   15080:	00512023          	sw	t0,0(sp)
   15084:	00012303          	lw	t1,0(sp)
   15088:	00412283          	lw	t0,4(sp)
   1508c:	00810113          	addi	sp,sp,8
   15090:	006282b3          	add	t0,t0,t1
   15094:	ffc10113          	addi	sp,sp,-4
   15098:	00512023          	sw	t0,0(sp)
   1509c:	00000293          	li	t0,0
   150a0:	ffc10113          	addi	sp,sp,-4
   150a4:	00512023          	sw	t0,0(sp)
   150a8:	00412503          	lw	a0,4(sp)
   150ac:	00012583          	lw	a1,0(sp)
   150b0:	ffffb097          	auipc	ra,0xffffb
   150b4:	07c080e7          	jalr	124(ra) # 1012c <poke8__u32__u8>
   150b8:	00810113          	addi	sp,sp,8
   150bc:	ffc10113          	addi	sp,sp,-4
   150c0:	00a12023          	sw	a0,0(sp)
   150c4:	00410113          	addi	sp,sp,4
   150c8:	fe842283          	lw	t0,-24(s0)
   150cc:	ffc10113          	addi	sp,sp,-4
   150d0:	00512023          	sw	t0,0(sp)
   150d4:	00012283          	lw	t0,0(sp)
   150d8:	00410113          	addi	sp,sp,4
   150dc:	00028513          	mv	a0,t0
   150e0:	00040293          	mv	t0,s0
   150e4:	ffc2a083          	lw	ra,-4(t0)
   150e8:	ff82a403          	lw	s0,-8(t0)
   150ec:	00028113          	mv	sp,t0
   150f0:	00008067          	ret
   150f4:	00040293          	mv	t0,s0
   150f8:	ffc2a083          	lw	ra,-4(t0)
   150fc:	ff82a403          	lw	s0,-8(t0)
   15100:	00028113          	mv	sp,t0
   15104:	00008067          	ret

00015108 <append__String__String>:
   15108:	fd010113          	addi	sp,sp,-48
   1510c:	02112623          	sw	ra,44(sp)
   15110:	02812423          	sw	s0,40(sp)
   15114:	03010413          	addi	s0,sp,48
   15118:	fea42a23          	sw	a0,-12(s0)
   1511c:	feb42823          	sw	a1,-16(s0)
   15120:	fe042623          	sw	zero,-20(s0)
   15124:	fe042423          	sw	zero,-24(s0)
   15128:	fe042223          	sw	zero,-28(s0)
   1512c:	fe042023          	sw	zero,-32(s0)
   15130:	00000293          	li	t0,0
   15134:	ffc10113          	addi	sp,sp,-4
   15138:	00512023          	sw	t0,0(sp)
   1513c:	00012283          	lw	t0,0(sp)
   15140:	00410113          	addi	sp,sp,4
   15144:	fe542623          	sw	t0,-20(s0)
   15148:	00000293          	li	t0,0
   1514c:	ffc10113          	addi	sp,sp,-4
   15150:	00512023          	sw	t0,0(sp)
   15154:	00012283          	lw	t0,0(sp)
   15158:	00410113          	addi	sp,sp,4
   1515c:	fe542423          	sw	t0,-24(s0)
   15160:	ff442283          	lw	t0,-12(s0)
   15164:	ffc10113          	addi	sp,sp,-4
   15168:	00512023          	sw	t0,0(sp)
   1516c:	00012283          	lw	t0,0(sp)
   15170:	00410113          	addi	sp,sp,4
   15174:	ffc10113          	addi	sp,sp,-4
   15178:	00512023          	sw	t0,0(sp)
   1517c:	00000293          	li	t0,0
   15180:	ffc10113          	addi	sp,sp,-4
   15184:	00512023          	sw	t0,0(sp)
   15188:	00012303          	lw	t1,0(sp)
   1518c:	00412283          	lw	t0,4(sp)
   15190:	00810113          	addi	sp,sp,8
   15194:	406282b3          	sub	t0,t0,t1
   15198:	005032b3          	snez	t0,t0
   1519c:	ffc10113          	addi	sp,sp,-4
   151a0:	00512023          	sw	t0,0(sp)
   151a4:	00012283          	lw	t0,0(sp)
   151a8:	00410113          	addi	sp,sp,4
   151ac:	04028a63          	beqz	t0,15200 <append__String__String+0xf8>
   151b0:	ff442283          	lw	t0,-12(s0)
   151b4:	ffc10113          	addi	sp,sp,-4
   151b8:	00512023          	sw	t0,0(sp)
   151bc:	00012283          	lw	t0,0(sp)
   151c0:	00410113          	addi	sp,sp,4
   151c4:	ffc10113          	addi	sp,sp,-4
   151c8:	00512023          	sw	t0,0(sp)
   151cc:	00012503          	lw	a0,0(sp)
   151d0:	ffffb097          	auipc	ra,0xffffb
   151d4:	f54080e7          	jalr	-172(ra) # 10124 <peek32__u32>
   151d8:	00410113          	addi	sp,sp,4
   151dc:	ffc10113          	addi	sp,sp,-4
   151e0:	00a12023          	sw	a0,0(sp)
   151e4:	00012283          	lw	t0,0(sp)
   151e8:	00410113          	addi	sp,sp,4
   151ec:	ffc10113          	addi	sp,sp,-4
   151f0:	00512023          	sw	t0,0(sp)
   151f4:	00012283          	lw	t0,0(sp)
   151f8:	00410113          	addi	sp,sp,4
   151fc:	fe542623          	sw	t0,-20(s0)
   15200:	ff042283          	lw	t0,-16(s0)
   15204:	ffc10113          	addi	sp,sp,-4
   15208:	00512023          	sw	t0,0(sp)
   1520c:	00012283          	lw	t0,0(sp)
   15210:	00410113          	addi	sp,sp,4
   15214:	ffc10113          	addi	sp,sp,-4
   15218:	00512023          	sw	t0,0(sp)
   1521c:	00000293          	li	t0,0
   15220:	ffc10113          	addi	sp,sp,-4
   15224:	00512023          	sw	t0,0(sp)
   15228:	00012303          	lw	t1,0(sp)
   1522c:	00412283          	lw	t0,4(sp)
   15230:	00810113          	addi	sp,sp,8
   15234:	406282b3          	sub	t0,t0,t1
   15238:	005032b3          	snez	t0,t0
   1523c:	ffc10113          	addi	sp,sp,-4
   15240:	00512023          	sw	t0,0(sp)
   15244:	00012283          	lw	t0,0(sp)
   15248:	00410113          	addi	sp,sp,4
   1524c:	04028a63          	beqz	t0,152a0 <append__String__String+0x198>
   15250:	ff042283          	lw	t0,-16(s0)
   15254:	ffc10113          	addi	sp,sp,-4
   15258:	00512023          	sw	t0,0(sp)
   1525c:	00012283          	lw	t0,0(sp)
   15260:	00410113          	addi	sp,sp,4
   15264:	ffc10113          	addi	sp,sp,-4
   15268:	00512023          	sw	t0,0(sp)
   1526c:	00012503          	lw	a0,0(sp)
   15270:	ffffb097          	auipc	ra,0xffffb
   15274:	eb4080e7          	jalr	-332(ra) # 10124 <peek32__u32>
   15278:	00410113          	addi	sp,sp,4
   1527c:	ffc10113          	addi	sp,sp,-4
   15280:	00a12023          	sw	a0,0(sp)
   15284:	00012283          	lw	t0,0(sp)
   15288:	00410113          	addi	sp,sp,4
   1528c:	ffc10113          	addi	sp,sp,-4
   15290:	00512023          	sw	t0,0(sp)
   15294:	00012283          	lw	t0,0(sp)
   15298:	00410113          	addi	sp,sp,4
   1529c:	fe542423          	sw	t0,-24(s0)
   152a0:	fec42283          	lw	t0,-20(s0)
   152a4:	ffc10113          	addi	sp,sp,-4
   152a8:	00512023          	sw	t0,0(sp)
   152ac:	fe842283          	lw	t0,-24(s0)
   152b0:	ffc10113          	addi	sp,sp,-4
   152b4:	00512023          	sw	t0,0(sp)
   152b8:	00012303          	lw	t1,0(sp)
   152bc:	00412283          	lw	t0,4(sp)
   152c0:	00810113          	addi	sp,sp,8
   152c4:	006282b3          	add	t0,t0,t1
   152c8:	ffc10113          	addi	sp,sp,-4
   152cc:	00512023          	sw	t0,0(sp)
   152d0:	fec42283          	lw	t0,-20(s0)
   152d4:	ffc10113          	addi	sp,sp,-4
   152d8:	00512023          	sw	t0,0(sp)
   152dc:	fe842283          	lw	t0,-24(s0)
   152e0:	ffc10113          	addi	sp,sp,-4
   152e4:	00512023          	sw	t0,0(sp)
   152e8:	00012303          	lw	t1,0(sp)
   152ec:	00412283          	lw	t0,4(sp)
   152f0:	00810113          	addi	sp,sp,8
   152f4:	006282b3          	add	t0,t0,t1
   152f8:	ffc10113          	addi	sp,sp,-4
   152fc:	00512023          	sw	t0,0(sp)
   15300:	00100293          	li	t0,1
   15304:	ffc10113          	addi	sp,sp,-4
   15308:	00512023          	sw	t0,0(sp)
   1530c:	00012303          	lw	t1,0(sp)
   15310:	00412283          	lw	t0,4(sp)
   15314:	00810113          	addi	sp,sp,8
   15318:	006282b3          	add	t0,t0,t1
   1531c:	ffc10113          	addi	sp,sp,-4
   15320:	00512023          	sw	t0,0(sp)
   15324:	00412503          	lw	a0,4(sp)
   15328:	00012583          	lw	a1,0(sp)
   1532c:	ffffc097          	auipc	ra,0xffffc
   15330:	e78080e7          	jalr	-392(ra) # 111a4 <new_array__i32__i32>
   15334:	00810113          	addi	sp,sp,8
   15338:	ffc10113          	addi	sp,sp,-4
   1533c:	00a12023          	sw	a0,0(sp)
   15340:	00012283          	lw	t0,0(sp)
   15344:	00410113          	addi	sp,sp,4
   15348:	fe542223          	sw	t0,-28(s0)
   1534c:	00000293          	li	t0,0
   15350:	ffc10113          	addi	sp,sp,-4
   15354:	00512023          	sw	t0,0(sp)
   15358:	00012283          	lw	t0,0(sp)
   1535c:	00410113          	addi	sp,sp,4
   15360:	fe542023          	sw	t0,-32(s0)
   15364:	fe042283          	lw	t0,-32(s0)
   15368:	ffc10113          	addi	sp,sp,-4
   1536c:	00512023          	sw	t0,0(sp)
   15370:	fec42283          	lw	t0,-20(s0)
   15374:	ffc10113          	addi	sp,sp,-4
   15378:	00512023          	sw	t0,0(sp)
   1537c:	00012303          	lw	t1,0(sp)
   15380:	00412283          	lw	t0,4(sp)
   15384:	00810113          	addi	sp,sp,8
   15388:	0062a2b3          	slt	t0,t0,t1
   1538c:	ffc10113          	addi	sp,sp,-4
   15390:	00512023          	sw	t0,0(sp)
   15394:	00012283          	lw	t0,0(sp)
   15398:	00410113          	addi	sp,sp,4
   1539c:	16028463          	beqz	t0,15504 <append__String__String+0x3fc>
   153a0:	fe442283          	lw	t0,-28(s0)
   153a4:	ffc10113          	addi	sp,sp,-4
   153a8:	00512023          	sw	t0,0(sp)
   153ac:	00400293          	li	t0,4
   153b0:	ffc10113          	addi	sp,sp,-4
   153b4:	00512023          	sw	t0,0(sp)
   153b8:	00012303          	lw	t1,0(sp)
   153bc:	00412283          	lw	t0,4(sp)
   153c0:	00810113          	addi	sp,sp,8
   153c4:	006282b3          	add	t0,t0,t1
   153c8:	ffc10113          	addi	sp,sp,-4
   153cc:	00512023          	sw	t0,0(sp)
   153d0:	fe042283          	lw	t0,-32(s0)
   153d4:	ffc10113          	addi	sp,sp,-4
   153d8:	00512023          	sw	t0,0(sp)
   153dc:	00012283          	lw	t0,0(sp)
   153e0:	00410113          	addi	sp,sp,4
   153e4:	ffc10113          	addi	sp,sp,-4
   153e8:	00512023          	sw	t0,0(sp)
   153ec:	00012303          	lw	t1,0(sp)
   153f0:	00412283          	lw	t0,4(sp)
   153f4:	00810113          	addi	sp,sp,8
   153f8:	006282b3          	add	t0,t0,t1
   153fc:	ffc10113          	addi	sp,sp,-4
   15400:	00512023          	sw	t0,0(sp)
   15404:	ff442283          	lw	t0,-12(s0)
   15408:	ffc10113          	addi	sp,sp,-4
   1540c:	00512023          	sw	t0,0(sp)
   15410:	00012283          	lw	t0,0(sp)
   15414:	00410113          	addi	sp,sp,4
   15418:	ffc10113          	addi	sp,sp,-4
   1541c:	00512023          	sw	t0,0(sp)
   15420:	00400293          	li	t0,4
   15424:	ffc10113          	addi	sp,sp,-4
   15428:	00512023          	sw	t0,0(sp)
   1542c:	00012303          	lw	t1,0(sp)
   15430:	00412283          	lw	t0,4(sp)
   15434:	00810113          	addi	sp,sp,8
   15438:	006282b3          	add	t0,t0,t1
   1543c:	ffc10113          	addi	sp,sp,-4
   15440:	00512023          	sw	t0,0(sp)
   15444:	fe042283          	lw	t0,-32(s0)
   15448:	ffc10113          	addi	sp,sp,-4
   1544c:	00512023          	sw	t0,0(sp)
   15450:	00012283          	lw	t0,0(sp)
   15454:	00410113          	addi	sp,sp,4
   15458:	ffc10113          	addi	sp,sp,-4
   1545c:	00512023          	sw	t0,0(sp)
   15460:	00012303          	lw	t1,0(sp)
   15464:	00412283          	lw	t0,4(sp)
   15468:	00810113          	addi	sp,sp,8
   1546c:	006282b3          	add	t0,t0,t1
   15470:	ffc10113          	addi	sp,sp,-4
   15474:	00512023          	sw	t0,0(sp)
   15478:	00012503          	lw	a0,0(sp)
   1547c:	ffffb097          	auipc	ra,0xffffb
   15480:	c98080e7          	jalr	-872(ra) # 10114 <peek8__u32>
   15484:	00410113          	addi	sp,sp,4
   15488:	ffc10113          	addi	sp,sp,-4
   1548c:	00a12023          	sw	a0,0(sp)
   15490:	00012283          	lw	t0,0(sp)
   15494:	00410113          	addi	sp,sp,4
   15498:	0ff2f293          	zext.b	t0,t0
   1549c:	ffc10113          	addi	sp,sp,-4
   154a0:	00512023          	sw	t0,0(sp)
   154a4:	00412503          	lw	a0,4(sp)
   154a8:	00012583          	lw	a1,0(sp)
   154ac:	ffffb097          	auipc	ra,0xffffb
   154b0:	c80080e7          	jalr	-896(ra) # 1012c <poke8__u32__u8>
   154b4:	00810113          	addi	sp,sp,8
   154b8:	ffc10113          	addi	sp,sp,-4
   154bc:	00a12023          	sw	a0,0(sp)
   154c0:	00410113          	addi	sp,sp,4
   154c4:	fe042283          	lw	t0,-32(s0)
   154c8:	ffc10113          	addi	sp,sp,-4
   154cc:	00512023          	sw	t0,0(sp)
   154d0:	00100293          	li	t0,1
   154d4:	ffc10113          	addi	sp,sp,-4
   154d8:	00512023          	sw	t0,0(sp)
   154dc:	00012303          	lw	t1,0(sp)
   154e0:	00412283          	lw	t0,4(sp)
   154e4:	00810113          	addi	sp,sp,8
   154e8:	006282b3          	add	t0,t0,t1
   154ec:	ffc10113          	addi	sp,sp,-4
   154f0:	00512023          	sw	t0,0(sp)
   154f4:	00012283          	lw	t0,0(sp)
   154f8:	00410113          	addi	sp,sp,4
   154fc:	fe542023          	sw	t0,-32(s0)
   15500:	e65ff06f          	j	15364 <append__String__String+0x25c>
   15504:	00000293          	li	t0,0
   15508:	ffc10113          	addi	sp,sp,-4
   1550c:	00512023          	sw	t0,0(sp)
   15510:	00012283          	lw	t0,0(sp)
   15514:	00410113          	addi	sp,sp,4
   15518:	fe542023          	sw	t0,-32(s0)
   1551c:	fe042283          	lw	t0,-32(s0)
   15520:	ffc10113          	addi	sp,sp,-4
   15524:	00512023          	sw	t0,0(sp)
   15528:	fe842283          	lw	t0,-24(s0)
   1552c:	ffc10113          	addi	sp,sp,-4
   15530:	00512023          	sw	t0,0(sp)
   15534:	00012303          	lw	t1,0(sp)
   15538:	00412283          	lw	t0,4(sp)
   1553c:	00810113          	addi	sp,sp,8
   15540:	0062a2b3          	slt	t0,t0,t1
   15544:	ffc10113          	addi	sp,sp,-4
   15548:	00512023          	sw	t0,0(sp)
   1554c:	00012283          	lw	t0,0(sp)
   15550:	00410113          	addi	sp,sp,4
   15554:	18028663          	beqz	t0,156e0 <append__String__String+0x5d8>
   15558:	fe442283          	lw	t0,-28(s0)
   1555c:	ffc10113          	addi	sp,sp,-4
   15560:	00512023          	sw	t0,0(sp)
   15564:	00400293          	li	t0,4
   15568:	ffc10113          	addi	sp,sp,-4
   1556c:	00512023          	sw	t0,0(sp)
   15570:	00012303          	lw	t1,0(sp)
   15574:	00412283          	lw	t0,4(sp)
   15578:	00810113          	addi	sp,sp,8
   1557c:	006282b3          	add	t0,t0,t1
   15580:	ffc10113          	addi	sp,sp,-4
   15584:	00512023          	sw	t0,0(sp)
   15588:	fec42283          	lw	t0,-20(s0)
   1558c:	ffc10113          	addi	sp,sp,-4
   15590:	00512023          	sw	t0,0(sp)
   15594:	fe042283          	lw	t0,-32(s0)
   15598:	ffc10113          	addi	sp,sp,-4
   1559c:	00512023          	sw	t0,0(sp)
   155a0:	00012303          	lw	t1,0(sp)
   155a4:	00412283          	lw	t0,4(sp)
   155a8:	00810113          	addi	sp,sp,8
   155ac:	006282b3          	add	t0,t0,t1
   155b0:	ffc10113          	addi	sp,sp,-4
   155b4:	00512023          	sw	t0,0(sp)
   155b8:	00012283          	lw	t0,0(sp)
   155bc:	00410113          	addi	sp,sp,4
   155c0:	ffc10113          	addi	sp,sp,-4
   155c4:	00512023          	sw	t0,0(sp)
   155c8:	00012303          	lw	t1,0(sp)
   155cc:	00412283          	lw	t0,4(sp)
   155d0:	00810113          	addi	sp,sp,8
   155d4:	006282b3          	add	t0,t0,t1
   155d8:	ffc10113          	addi	sp,sp,-4
   155dc:	00512023          	sw	t0,0(sp)
   155e0:	ff042283          	lw	t0,-16(s0)
   155e4:	ffc10113          	addi	sp,sp,-4
   155e8:	00512023          	sw	t0,0(sp)
   155ec:	00012283          	lw	t0,0(sp)
   155f0:	00410113          	addi	sp,sp,4
   155f4:	ffc10113          	addi	sp,sp,-4
   155f8:	00512023          	sw	t0,0(sp)
   155fc:	00400293          	li	t0,4
   15600:	ffc10113          	addi	sp,sp,-4
   15604:	00512023          	sw	t0,0(sp)
   15608:	00012303          	lw	t1,0(sp)
   1560c:	00412283          	lw	t0,4(sp)
   15610:	00810113          	addi	sp,sp,8
   15614:	006282b3          	add	t0,t0,t1
   15618:	ffc10113          	addi	sp,sp,-4
   1561c:	00512023          	sw	t0,0(sp)
   15620:	fe042283          	lw	t0,-32(s0)
   15624:	ffc10113          	addi	sp,sp,-4
   15628:	00512023          	sw	t0,0(sp)
   1562c:	00012283          	lw	t0,0(sp)
   15630:	00410113          	addi	sp,sp,4
   15634:	ffc10113          	addi	sp,sp,-4
   15638:	00512023          	sw	t0,0(sp)
   1563c:	00012303          	lw	t1,0(sp)
   15640:	00412283          	lw	t0,4(sp)
   15644:	00810113          	addi	sp,sp,8
   15648:	006282b3          	add	t0,t0,t1
   1564c:	ffc10113          	addi	sp,sp,-4
   15650:	00512023          	sw	t0,0(sp)
   15654:	00012503          	lw	a0,0(sp)
   15658:	ffffb097          	auipc	ra,0xffffb
   1565c:	abc080e7          	jalr	-1348(ra) # 10114 <peek8__u32>
   15660:	00410113          	addi	sp,sp,4
   15664:	ffc10113          	addi	sp,sp,-4
   15668:	00a12023          	sw	a0,0(sp)
   1566c:	00012283          	lw	t0,0(sp)
   15670:	00410113          	addi	sp,sp,4
   15674:	0ff2f293          	zext.b	t0,t0
   15678:	ffc10113          	addi	sp,sp,-4
   1567c:	00512023          	sw	t0,0(sp)
   15680:	00412503          	lw	a0,4(sp)
   15684:	00012583          	lw	a1,0(sp)
   15688:	ffffb097          	auipc	ra,0xffffb
   1568c:	aa4080e7          	jalr	-1372(ra) # 1012c <poke8__u32__u8>
   15690:	00810113          	addi	sp,sp,8
   15694:	ffc10113          	addi	sp,sp,-4
   15698:	00a12023          	sw	a0,0(sp)
   1569c:	00410113          	addi	sp,sp,4
   156a0:	fe042283          	lw	t0,-32(s0)
   156a4:	ffc10113          	addi	sp,sp,-4
   156a8:	00512023          	sw	t0,0(sp)
   156ac:	00100293          	li	t0,1
   156b0:	ffc10113          	addi	sp,sp,-4
   156b4:	00512023          	sw	t0,0(sp)
   156b8:	00012303          	lw	t1,0(sp)
   156bc:	00412283          	lw	t0,4(sp)
   156c0:	00810113          	addi	sp,sp,8
   156c4:	006282b3          	add	t0,t0,t1
   156c8:	ffc10113          	addi	sp,sp,-4
   156cc:	00512023          	sw	t0,0(sp)
   156d0:	00012283          	lw	t0,0(sp)
   156d4:	00410113          	addi	sp,sp,4
   156d8:	fe542023          	sw	t0,-32(s0)
   156dc:	e41ff06f          	j	1551c <append__String__String+0x414>
   156e0:	fe442283          	lw	t0,-28(s0)
   156e4:	ffc10113          	addi	sp,sp,-4
   156e8:	00512023          	sw	t0,0(sp)
   156ec:	00400293          	li	t0,4
   156f0:	ffc10113          	addi	sp,sp,-4
   156f4:	00512023          	sw	t0,0(sp)
   156f8:	00012303          	lw	t1,0(sp)
   156fc:	00412283          	lw	t0,4(sp)
   15700:	00810113          	addi	sp,sp,8
   15704:	006282b3          	add	t0,t0,t1
   15708:	ffc10113          	addi	sp,sp,-4
   1570c:	00512023          	sw	t0,0(sp)
   15710:	fec42283          	lw	t0,-20(s0)
   15714:	ffc10113          	addi	sp,sp,-4
   15718:	00512023          	sw	t0,0(sp)
   1571c:	fe842283          	lw	t0,-24(s0)
   15720:	ffc10113          	addi	sp,sp,-4
   15724:	00512023          	sw	t0,0(sp)
   15728:	00012303          	lw	t1,0(sp)
   1572c:	00412283          	lw	t0,4(sp)
   15730:	00810113          	addi	sp,sp,8
   15734:	006282b3          	add	t0,t0,t1
   15738:	ffc10113          	addi	sp,sp,-4
   1573c:	00512023          	sw	t0,0(sp)
   15740:	00012283          	lw	t0,0(sp)
   15744:	00410113          	addi	sp,sp,4
   15748:	ffc10113          	addi	sp,sp,-4
   1574c:	00512023          	sw	t0,0(sp)
   15750:	00012303          	lw	t1,0(sp)
   15754:	00412283          	lw	t0,4(sp)
   15758:	00810113          	addi	sp,sp,8
   1575c:	006282b3          	add	t0,t0,t1
   15760:	ffc10113          	addi	sp,sp,-4
   15764:	00512023          	sw	t0,0(sp)
   15768:	00000293          	li	t0,0
   1576c:	ffc10113          	addi	sp,sp,-4
   15770:	00512023          	sw	t0,0(sp)
   15774:	00412503          	lw	a0,4(sp)
   15778:	00012583          	lw	a1,0(sp)
   1577c:	ffffb097          	auipc	ra,0xffffb
   15780:	9b0080e7          	jalr	-1616(ra) # 1012c <poke8__u32__u8>
   15784:	00810113          	addi	sp,sp,8
   15788:	ffc10113          	addi	sp,sp,-4
   1578c:	00a12023          	sw	a0,0(sp)
   15790:	00410113          	addi	sp,sp,4
   15794:	fe442283          	lw	t0,-28(s0)
   15798:	ffc10113          	addi	sp,sp,-4
   1579c:	00512023          	sw	t0,0(sp)
   157a0:	00012283          	lw	t0,0(sp)
   157a4:	00410113          	addi	sp,sp,4
   157a8:	00028513          	mv	a0,t0
   157ac:	00040293          	mv	t0,s0
   157b0:	ffc2a083          	lw	ra,-4(t0)
   157b4:	ff82a403          	lw	s0,-8(t0)
   157b8:	00028113          	mv	sp,t0
   157bc:	00008067          	ret
   157c0:	00040293          	mv	t0,s0
   157c4:	ffc2a083          	lw	ra,-4(t0)
   157c8:	ff82a403          	lw	s0,-8(t0)
   157cc:	00028113          	mv	sp,t0
   157d0:	00008067          	ret

000157d4 <append__StringLiteral__u8>:
   157d4:	fe010113          	addi	sp,sp,-32
   157d8:	00112e23          	sw	ra,28(sp)
   157dc:	00812c23          	sw	s0,24(sp)
   157e0:	02010413          	addi	s0,sp,32
   157e4:	fea42a23          	sw	a0,-12(s0)
   157e8:	feb42823          	sw	a1,-16(s0)
   157ec:	ff442283          	lw	t0,-12(s0)
   157f0:	ffc10113          	addi	sp,sp,-4
   157f4:	00512023          	sw	t0,0(sp)
   157f8:	ff042283          	lw	t0,-16(s0)
   157fc:	ffc10113          	addi	sp,sp,-4
   15800:	00512023          	sw	t0,0(sp)
   15804:	00412503          	lw	a0,4(sp)
   15808:	00012583          	lw	a1,0(sp)
   1580c:	fffff097          	auipc	ra,0xfffff
   15810:	448080e7          	jalr	1096(ra) # 14c54 <append__String__u8>
   15814:	00810113          	addi	sp,sp,8
   15818:	ffc10113          	addi	sp,sp,-4
   1581c:	00a12023          	sw	a0,0(sp)
   15820:	00012283          	lw	t0,0(sp)
   15824:	00410113          	addi	sp,sp,4
   15828:	00028513          	mv	a0,t0
   1582c:	00040293          	mv	t0,s0
   15830:	ffc2a083          	lw	ra,-4(t0)
   15834:	ff82a403          	lw	s0,-8(t0)
   15838:	00028113          	mv	sp,t0
   1583c:	00008067          	ret
   15840:	00040293          	mv	t0,s0
   15844:	ffc2a083          	lw	ra,-4(t0)
   15848:	ff82a403          	lw	s0,-8(t0)
   1584c:	00028113          	mv	sp,t0
   15850:	00008067          	ret

00015854 <append__StringLiteral__StringLiteral>:
   15854:	fe010113          	addi	sp,sp,-32
   15858:	00112e23          	sw	ra,28(sp)
   1585c:	00812c23          	sw	s0,24(sp)
   15860:	02010413          	addi	s0,sp,32
   15864:	fea42a23          	sw	a0,-12(s0)
   15868:	feb42823          	sw	a1,-16(s0)
   1586c:	ff442283          	lw	t0,-12(s0)
   15870:	ffc10113          	addi	sp,sp,-4
   15874:	00512023          	sw	t0,0(sp)
   15878:	ff042283          	lw	t0,-16(s0)
   1587c:	ffc10113          	addi	sp,sp,-4
   15880:	00512023          	sw	t0,0(sp)
   15884:	00412503          	lw	a0,4(sp)
   15888:	00012583          	lw	a1,0(sp)
   1588c:	00000097          	auipc	ra,0x0
   15890:	87c080e7          	jalr	-1924(ra) # 15108 <append__String__String>
   15894:	00810113          	addi	sp,sp,8
   15898:	ffc10113          	addi	sp,sp,-4
   1589c:	00a12023          	sw	a0,0(sp)
   158a0:	00012283          	lw	t0,0(sp)
   158a4:	00410113          	addi	sp,sp,4
   158a8:	00028513          	mv	a0,t0
   158ac:	00040293          	mv	t0,s0
   158b0:	ffc2a083          	lw	ra,-4(t0)
   158b4:	ff82a403          	lw	s0,-8(t0)
   158b8:	00028113          	mv	sp,t0
   158bc:	00008067          	ret
   158c0:	00040293          	mv	t0,s0
   158c4:	ffc2a083          	lw	ra,-4(t0)
   158c8:	ff82a403          	lw	s0,-8(t0)
   158cc:	00028113          	mv	sp,t0
   158d0:	00008067          	ret

000158d4 <append__StringLiteral__String>:
   158d4:	fe010113          	addi	sp,sp,-32
   158d8:	00112e23          	sw	ra,28(sp)
   158dc:	00812c23          	sw	s0,24(sp)
   158e0:	02010413          	addi	s0,sp,32
   158e4:	fea42a23          	sw	a0,-12(s0)
   158e8:	feb42823          	sw	a1,-16(s0)
   158ec:	ff442283          	lw	t0,-12(s0)
   158f0:	ffc10113          	addi	sp,sp,-4
   158f4:	00512023          	sw	t0,0(sp)
   158f8:	ff042283          	lw	t0,-16(s0)
   158fc:	ffc10113          	addi	sp,sp,-4
   15900:	00512023          	sw	t0,0(sp)
   15904:	00412503          	lw	a0,4(sp)
   15908:	00012583          	lw	a1,0(sp)
   1590c:	fffff097          	auipc	ra,0xfffff
   15910:	7fc080e7          	jalr	2044(ra) # 15108 <append__String__String>
   15914:	00810113          	addi	sp,sp,8
   15918:	ffc10113          	addi	sp,sp,-4
   1591c:	00a12023          	sw	a0,0(sp)
   15920:	00012283          	lw	t0,0(sp)
   15924:	00410113          	addi	sp,sp,4
   15928:	00028513          	mv	a0,t0
   1592c:	00040293          	mv	t0,s0
   15930:	ffc2a083          	lw	ra,-4(t0)
   15934:	ff82a403          	lw	s0,-8(t0)
   15938:	00028113          	mv	sp,t0
   1593c:	00008067          	ret
   15940:	00040293          	mv	t0,s0
   15944:	ffc2a083          	lw	ra,-4(t0)
   15948:	ff82a403          	lw	s0,-8(t0)
   1594c:	00028113          	mv	sp,t0
   15950:	00008067          	ret

00015954 <append__String__StringLiteral>:
   15954:	fe010113          	addi	sp,sp,-32
   15958:	00112e23          	sw	ra,28(sp)
   1595c:	00812c23          	sw	s0,24(sp)
   15960:	02010413          	addi	s0,sp,32
   15964:	fea42a23          	sw	a0,-12(s0)
   15968:	feb42823          	sw	a1,-16(s0)
   1596c:	ff442283          	lw	t0,-12(s0)
   15970:	ffc10113          	addi	sp,sp,-4
   15974:	00512023          	sw	t0,0(sp)
   15978:	ff042283          	lw	t0,-16(s0)
   1597c:	ffc10113          	addi	sp,sp,-4
   15980:	00512023          	sw	t0,0(sp)
   15984:	00412503          	lw	a0,4(sp)
   15988:	00012583          	lw	a1,0(sp)
   1598c:	fffff097          	auipc	ra,0xfffff
   15990:	77c080e7          	jalr	1916(ra) # 15108 <append__String__String>
   15994:	00810113          	addi	sp,sp,8
   15998:	ffc10113          	addi	sp,sp,-4
   1599c:	00a12023          	sw	a0,0(sp)
   159a0:	00012283          	lw	t0,0(sp)
   159a4:	00410113          	addi	sp,sp,4
   159a8:	00028513          	mv	a0,t0
   159ac:	00040293          	mv	t0,s0
   159b0:	ffc2a083          	lw	ra,-4(t0)
   159b4:	ff82a403          	lw	s0,-8(t0)
   159b8:	00028113          	mv	sp,t0
   159bc:	00008067          	ret
   159c0:	00040293          	mv	t0,s0
   159c4:	ffc2a083          	lw	ra,-4(t0)
   159c8:	ff82a403          	lw	s0,-8(t0)
   159cc:	00028113          	mv	sp,t0
   159d0:	00008067          	ret

000159d4 <equals__String__String>:
   159d4:	fd010113          	addi	sp,sp,-48
   159d8:	02112623          	sw	ra,44(sp)
   159dc:	02812423          	sw	s0,40(sp)
   159e0:	03010413          	addi	s0,sp,48
   159e4:	fea42a23          	sw	a0,-12(s0)
   159e8:	feb42823          	sw	a1,-16(s0)
   159ec:	fe042623          	sw	zero,-20(s0)
   159f0:	fe042423          	sw	zero,-24(s0)
   159f4:	fe042223          	sw	zero,-28(s0)
   159f8:	ff442283          	lw	t0,-12(s0)
   159fc:	ffc10113          	addi	sp,sp,-4
   15a00:	00512023          	sw	t0,0(sp)
   15a04:	00012283          	lw	t0,0(sp)
   15a08:	00410113          	addi	sp,sp,4
   15a0c:	ffc10113          	addi	sp,sp,-4
   15a10:	00512023          	sw	t0,0(sp)
   15a14:	00000293          	li	t0,0
   15a18:	ffc10113          	addi	sp,sp,-4
   15a1c:	00512023          	sw	t0,0(sp)
   15a20:	00012303          	lw	t1,0(sp)
   15a24:	00412283          	lw	t0,4(sp)
   15a28:	00810113          	addi	sp,sp,8
   15a2c:	406282b3          	sub	t0,t0,t1
   15a30:	0012b293          	seqz	t0,t0
   15a34:	ffc10113          	addi	sp,sp,-4
   15a38:	00512023          	sw	t0,0(sp)
   15a3c:	00012283          	lw	t0,0(sp)
   15a40:	00410113          	addi	sp,sp,4
   15a44:	06029263          	bnez	t0,15aa8 <equals__String__String+0xd4>
   15a48:	ff042283          	lw	t0,-16(s0)
   15a4c:	ffc10113          	addi	sp,sp,-4
   15a50:	00512023          	sw	t0,0(sp)
   15a54:	00012283          	lw	t0,0(sp)
   15a58:	00410113          	addi	sp,sp,4
   15a5c:	ffc10113          	addi	sp,sp,-4
   15a60:	00512023          	sw	t0,0(sp)
   15a64:	00000293          	li	t0,0
   15a68:	ffc10113          	addi	sp,sp,-4
   15a6c:	00512023          	sw	t0,0(sp)
   15a70:	00012303          	lw	t1,0(sp)
   15a74:	00412283          	lw	t0,4(sp)
   15a78:	00810113          	addi	sp,sp,8
   15a7c:	406282b3          	sub	t0,t0,t1
   15a80:	0012b293          	seqz	t0,t0
   15a84:	ffc10113          	addi	sp,sp,-4
   15a88:	00512023          	sw	t0,0(sp)
   15a8c:	00012283          	lw	t0,0(sp)
   15a90:	00410113          	addi	sp,sp,4
   15a94:	00029a63          	bnez	t0,15aa8 <equals__String__String+0xd4>
   15a98:	00000293          	li	t0,0
   15a9c:	ffc10113          	addi	sp,sp,-4
   15aa0:	00512023          	sw	t0,0(sp)
   15aa4:	0100006f          	j	15ab4 <equals__String__String+0xe0>
   15aa8:	00100293          	li	t0,1
   15aac:	ffc10113          	addi	sp,sp,-4
   15ab0:	00512023          	sw	t0,0(sp)
   15ab4:	00012283          	lw	t0,0(sp)
   15ab8:	00410113          	addi	sp,sp,4
   15abc:	06028c63          	beqz	t0,15b34 <equals__String__String+0x160>
   15ac0:	ff442283          	lw	t0,-12(s0)
   15ac4:	ffc10113          	addi	sp,sp,-4
   15ac8:	00512023          	sw	t0,0(sp)
   15acc:	00012283          	lw	t0,0(sp)
   15ad0:	00410113          	addi	sp,sp,4
   15ad4:	ffc10113          	addi	sp,sp,-4
   15ad8:	00512023          	sw	t0,0(sp)
   15adc:	ff042283          	lw	t0,-16(s0)
   15ae0:	ffc10113          	addi	sp,sp,-4
   15ae4:	00512023          	sw	t0,0(sp)
   15ae8:	00012283          	lw	t0,0(sp)
   15aec:	00410113          	addi	sp,sp,4
   15af0:	ffc10113          	addi	sp,sp,-4
   15af4:	00512023          	sw	t0,0(sp)
   15af8:	00012303          	lw	t1,0(sp)
   15afc:	00412283          	lw	t0,4(sp)
   15b00:	00810113          	addi	sp,sp,8
   15b04:	406282b3          	sub	t0,t0,t1
   15b08:	0012b293          	seqz	t0,t0
   15b0c:	ffc10113          	addi	sp,sp,-4
   15b10:	00512023          	sw	t0,0(sp)
   15b14:	00012283          	lw	t0,0(sp)
   15b18:	00410113          	addi	sp,sp,4
   15b1c:	00028513          	mv	a0,t0
   15b20:	00040293          	mv	t0,s0
   15b24:	ffc2a083          	lw	ra,-4(t0)
   15b28:	ff82a403          	lw	s0,-8(t0)
   15b2c:	00028113          	mv	sp,t0
   15b30:	00008067          	ret
   15b34:	ff442283          	lw	t0,-12(s0)
   15b38:	ffc10113          	addi	sp,sp,-4
   15b3c:	00512023          	sw	t0,0(sp)
   15b40:	00012283          	lw	t0,0(sp)
   15b44:	00410113          	addi	sp,sp,4
   15b48:	ffc10113          	addi	sp,sp,-4
   15b4c:	00512023          	sw	t0,0(sp)
   15b50:	00012503          	lw	a0,0(sp)
   15b54:	ffffa097          	auipc	ra,0xffffa
   15b58:	5d0080e7          	jalr	1488(ra) # 10124 <peek32__u32>
   15b5c:	00410113          	addi	sp,sp,4
   15b60:	ffc10113          	addi	sp,sp,-4
   15b64:	00a12023          	sw	a0,0(sp)
   15b68:	00012283          	lw	t0,0(sp)
   15b6c:	00410113          	addi	sp,sp,4
   15b70:	ffc10113          	addi	sp,sp,-4
   15b74:	00512023          	sw	t0,0(sp)
   15b78:	00012283          	lw	t0,0(sp)
   15b7c:	00410113          	addi	sp,sp,4
   15b80:	fe542623          	sw	t0,-20(s0)
   15b84:	ff042283          	lw	t0,-16(s0)
   15b88:	ffc10113          	addi	sp,sp,-4
   15b8c:	00512023          	sw	t0,0(sp)
   15b90:	00012283          	lw	t0,0(sp)
   15b94:	00410113          	addi	sp,sp,4
   15b98:	ffc10113          	addi	sp,sp,-4
   15b9c:	00512023          	sw	t0,0(sp)
   15ba0:	00012503          	lw	a0,0(sp)
   15ba4:	ffffa097          	auipc	ra,0xffffa
   15ba8:	580080e7          	jalr	1408(ra) # 10124 <peek32__u32>
   15bac:	00410113          	addi	sp,sp,4
   15bb0:	ffc10113          	addi	sp,sp,-4
   15bb4:	00a12023          	sw	a0,0(sp)
   15bb8:	00012283          	lw	t0,0(sp)
   15bbc:	00410113          	addi	sp,sp,4
   15bc0:	ffc10113          	addi	sp,sp,-4
   15bc4:	00512023          	sw	t0,0(sp)
   15bc8:	00012283          	lw	t0,0(sp)
   15bcc:	00410113          	addi	sp,sp,4
