
00010000 <_start>:
  00010000:	0049f117	auipc	sp, 0x49f	# 0x4af000
  00010004:	57010113	addi	sp, sp, 1392
  00010008:	00020517	auipc	a0, 0x20	# 0x30008
  0001000c:	56850513	addi	a0, a0, 1384
  00010010:	00020597	auipc	a1, 0x20	# 0x30010
  00010014:	40058593	addi	a1, a1, 1024
  00010018:	00020617	auipc	a2, 0x20	# 0x30018
  0001001c:	43c60613	addi	a2, a2, 1084
  00010020:	00020697	auipc	a3, 0x20	# 0x30020
  00010024:	48068693	addi	a3, a3, 1152
  00010028:	00020717	auipc	a4, 0x20	# 0x30028
  0001002c:	4bc70713	addi	a4, a4, 1212
  00010030:	00020797	auipc	a5, 0x20	# 0x30030
  00010034:	4f878793	addi	a5, a5, 1272
  00010038:	00020817	auipc	a6, 0x20	# 0x30038
  0001003c:	53480813	addi	a6, a6, 1332
  00010040:	00000097	auipc	ra, 0x0	# 0x10040
  00010044:	310080e7	jalr	ra, 784(ra)
  00010048:	0001f097	auipc	ra, 0x1f	# 0x2f048
  0001004c:	0b4080e7	jalr	ra, 180(ra)
  00010050:	05d00893	addi	a7, zero, 93
  00010054:	00000073	ecall
  00010058:	0000006f	jal	zero, 0x10058

0001005c <do_write__i32__u32__i32>:
  0001005c:	04000893	addi	a7, zero, 64
  00010060:	00000073	ecall
  00010064:	00008067	ret

00010068 <do_read__i32__u32__i32>:
  00010068:	03f00893	addi	a7, zero, 63
  0001006c:	00000073	ecall
  00010070:	00008067	ret

00010074 <do_exit__i32>:
  00010074:	05d00893	addi	a7, zero, 93
  00010078:	00000073	ecall
  0001007c:	00008067	ret

00010080 <peek8__u32>:
  00010080:	00054503	lbu	a0, 0(a0)
  00010084:	00008067	ret

00010088 <peek16__u32>:
  00010088:	00055503	lhu	a0, 0(a0)
  0001008c:	00008067	ret

00010090 <peek32__u32>:
  00010090:	00052503	lw	a0, 0(a0)
  00010094:	00008067	ret

00010098 <poke8__u32__u8>:
  00010098:	00b50023	sb	a1, 0(a0)
  0001009c:	00008067	ret

000100a0 <poke16__u32__u16>:
  000100a0:	00b51023	sh	a1, 0(a0)
  000100a4:	00008067	ret

000100a8 <poke32__u32__u32>:
  000100a8:	00b52023	sw	a1, 0(a0)
  000100ac:	00008067	ret

000100b0 <NPOOLS>:
  000100b0:	00000011	.word	0x00000011

000100b4 <g_pool_sizes_addr>:
  000100b4:	00000000	.word	0x00000000

000100b8 <g_pool_counts_addr>:
  000100b8:	00000000	.word	0x00000000

000100bc <g_pool_free_addr>:
  000100bc:	00000000	.word	0x00000000

000100c0 <g_pool_base_addr>:
  000100c0:	00000000	.word	0x00000000

000100c4 <g_pool_end_addr>:
  000100c4:	00000000	.word	0x00000000

000100c8 <g_pools_ready_addr>:
  000100c8:	00000000	.word	0x00000000

000100cc <g_arena_addr>:
  000100cc:	00000000	.word	0x00000000

000100d0 <NK_PROGRAM>:
  000100d0:	00000000	.word	0x00000000

000100d4 <NK_FN>:
  000100d4:	00000001	.word	0x00000001

000100d8 <NK_STRUCT>:
  000100d8:	00000002	.word	0x00000002

000100dc <NK_PARAMS>:
  000100dc:	00000003	lb	zero, 0(zero)

000100e0 <NK_PARAM>:
  000100e0:	00000004	.word	0x00000004

000100e4 <NK_RET>:
  000100e4:	00000005	.word	0x00000005

000100e8 <NK_TYPE>:
  000100e8:	00000006	.word	0x00000006

000100ec <NK_BLOCK>:
  000100ec:	00000007	.word	0x00000007

000100f0 <NK_VAR_DECL>:
  000100f0:	00000008	.word	0x00000008

000100f4 <NK_ASSIGN>:
  000100f4:	00000009	.word	0x00000009

000100f8 <NK_CALL_STMT>:
  000100f8:	0000000a	.word	0x0000000a

000100fc <NK_CALL>:
  000100fc:	0000000b	.word	0x0000000b

00010100 <NK_IF>:
  00010100:	0000000c	.word	0x0000000c

00010104 <NK_WHILE>:
  00010104:	0000000d	.word	0x0000000d

00010108 <NK_RETURN>:
  00010108:	0000000e	.word	0x0000000e

0001010c <NK_BINOP>:
  0001010c:	0000000f	.word	0x0000000f

00010110 <NK_UNARY>:
  00010110:	00000010	.word	0x00000010

00010114 <NK_INT>:
  00010114:	00000011	.word	0x00000011

00010118 <NK_STR>:
  00010118:	00000012	.word	0x00000012

0001011c <NK_BOOL>:
  0001011c:	00000013	addi	zero, zero, 0

00010120 <NK_VAR>:
  00010120:	00000014	.word	0x00000014

00010124 <NK_CAST>:
  00010124:	00000015	.word	0x00000015

00010128 <NK_IMPORT>:
  00010128:	00000016	.word	0x00000016

0001012c <NK_FIELD>:
  0001012c:	00000017	auipc	zero, 0x0	# 0x1012c

00010130 <NK_BREAK>:
  00010130:	00000018	.word	0x00000018

00010134 <NK_CONTINUE>:
  00010134:	00000019	.word	0x00000019

00010138 <NK_COMMENT>:
  00010138:	0000001a	.word	0x0000001a

0001013c <NK_UNKNOWN>:
  0001013c:	00000063	beq	zero, zero, 0x1013c

00010140 <g_reader>:
  00010140:	00000000	.word	0x00000000

00010144 <g_nc>:
  00010144:	00000000	.word	0x00000000

00010148 <g_sp>:
  00010148:	00000000	.word	0x00000000

0001014c <g_lc>:
  0001014c:	00000000	.word	0x00000000

00010150 <g_slc>:
  00010150:	00000000	.word	0x00000000

00010154 <g_locc>:
  00010154:	00000000	.word	0x00000000

00010158 <g_loop_depth>:
  00010158:	00000000	.word	0x00000000

0001015c <ps_get__u32__i32>:
  0001015c:	fe010113	addi	sp, sp, -32
  00010160:	00112e23	sw	ra, 28(sp)
  00010164:	00812c23	sw	s0, 24(sp)
  00010168:	02010413	addi	s0, sp, 32
  0001016c:	fea42a23	sw	a0, -12(s0)
  00010170:	feb42823	sw	a1, -16(s0)
  00010174:	ff442283	lw	t0, -12(s0)
  00010178:	ffc10113	addi	sp, sp, -4
  0001017c:	00512023	sw	t0, 0(sp)
  00010180:	ff042283	lw	t0, -16(s0)
  00010184:	ffc10113	addi	sp, sp, -4
  00010188:	00512023	sw	t0, 0(sp)
  0001018c:	00400293	addi	t0, zero, 4
  00010190:	ffc10113	addi	sp, sp, -4
  00010194:	00512023	sw	t0, 0(sp)
  00010198:	00012303	lw	t1, 0(sp)
  0001019c:	00412283	lw	t0, 4(sp)
  000101a0:	00810113	addi	sp, sp, 8
  000101a4:	026282b3	mul	t0, t0, t1
  000101a8:	ffc10113	addi	sp, sp, -4
  000101ac:	00512023	sw	t0, 0(sp)
  000101b0:	00012283	lw	t0, 0(sp)
  000101b4:	00410113	addi	sp, sp, 4
  000101b8:	ffc10113	addi	sp, sp, -4
  000101bc:	00512023	sw	t0, 0(sp)
  000101c0:	00012303	lw	t1, 0(sp)
  000101c4:	00412283	lw	t0, 4(sp)
  000101c8:	00810113	addi	sp, sp, 8
  000101cc:	006282b3	add	t0, t0, t1
  000101d0:	ffc10113	addi	sp, sp, -4
  000101d4:	00512023	sw	t0, 0(sp)
  000101d8:	00012503	lw	a0, 0(sp)
  000101dc:	00000097	auipc	ra, 0x0	# 0x101dc
  000101e0:	eb4080e7	jalr	ra, -332(ra)
  000101e4:	00410113	addi	sp, sp, 4
  000101e8:	ffc10113	addi	sp, sp, -4
  000101ec:	00a12023	sw	a0, 0(sp)
  000101f0:	00012283	lw	t0, 0(sp)
  000101f4:	00410113	addi	sp, sp, 4
  000101f8:	ffc10113	addi	sp, sp, -4
  000101fc:	00512023	sw	t0, 0(sp)
  00010200:	00012283	lw	t0, 0(sp)
  00010204:	00410113	addi	sp, sp, 4
  00010208:	00028513	addi	a0, t0, 0
  0001020c:	00040293	addi	t0, s0, 0
  00010210:	ffc2a083	lw	ra, -4(t0)
  00010214:	ff82a403	lw	s0, -8(t0)
  00010218:	00028113	addi	sp, t0, 0
  0001021c:	00008067	ret
  00010220:	00040293	addi	t0, s0, 0
  00010224:	ffc2a083	lw	ra, -4(t0)
  00010228:	ff82a403	lw	s0, -8(t0)
  0001022c:	00028113	addi	sp, t0, 0
  00010230:	00008067	ret

00010234 <ps_set__u32__i32__i32>:
  00010234:	fe010113	addi	sp, sp, -32
  00010238:	00112e23	sw	ra, 28(sp)
  0001023c:	00812c23	sw	s0, 24(sp)
  00010240:	02010413	addi	s0, sp, 32
  00010244:	fea42a23	sw	a0, -12(s0)
  00010248:	feb42823	sw	a1, -16(s0)
  0001024c:	fec42623	sw	a2, -20(s0)
  00010250:	ff442283	lw	t0, -12(s0)
  00010254:	ffc10113	addi	sp, sp, -4
  00010258:	00512023	sw	t0, 0(sp)
  0001025c:	ff042283	lw	t0, -16(s0)
  00010260:	ffc10113	addi	sp, sp, -4
  00010264:	00512023	sw	t0, 0(sp)
  00010268:	00400293	addi	t0, zero, 4
  0001026c:	ffc10113	addi	sp, sp, -4
  00010270:	00512023	sw	t0, 0(sp)
  00010274:	00012303	lw	t1, 0(sp)
  00010278:	00412283	lw	t0, 4(sp)
  0001027c:	00810113	addi	sp, sp, 8
  00010280:	026282b3	mul	t0, t0, t1
  00010284:	ffc10113	addi	sp, sp, -4
  00010288:	00512023	sw	t0, 0(sp)
  0001028c:	00012283	lw	t0, 0(sp)
  00010290:	00410113	addi	sp, sp, 4
  00010294:	ffc10113	addi	sp, sp, -4
  00010298:	00512023	sw	t0, 0(sp)
  0001029c:	00012303	lw	t1, 0(sp)
  000102a0:	00412283	lw	t0, 4(sp)
  000102a4:	00810113	addi	sp, sp, 8
  000102a8:	006282b3	add	t0, t0, t1
  000102ac:	ffc10113	addi	sp, sp, -4
  000102b0:	00512023	sw	t0, 0(sp)
  000102b4:	fec42283	lw	t0, -20(s0)
  000102b8:	ffc10113	addi	sp, sp, -4
  000102bc:	00512023	sw	t0, 0(sp)
  000102c0:	00012283	lw	t0, 0(sp)
  000102c4:	00410113	addi	sp, sp, 4
  000102c8:	ffc10113	addi	sp, sp, -4
  000102cc:	00512023	sw	t0, 0(sp)
  000102d0:	00412503	lw	a0, 4(sp)
  000102d4:	00012583	lw	a1, 0(sp)
  000102d8:	00000097	auipc	ra, 0x0	# 0x102d8
  000102dc:	dd0080e7	jalr	ra, -560(ra)
  000102e0:	00810113	addi	sp, sp, 8
  000102e4:	ffc10113	addi	sp, sp, -4
  000102e8:	00a12023	sw	a0, 0(sp)
  000102ec:	00410113	addi	sp, sp, 4
  000102f0:	00040293	addi	t0, s0, 0
  000102f4:	ffc2a083	lw	ra, -4(t0)
  000102f8:	ff82a403	lw	s0, -8(t0)
  000102fc:	00028113	addi	sp, t0, 0
  00010300:	00008067	ret
  00010304:	00040293	addi	t0, s0, 0
  00010308:	ffc2a083	lw	ra, -4(t0)
  0001030c:	ff82a403	lw	s0, -8(t0)
  00010310:	00028113	addi	sp, t0, 0
  00010314:	00008067	ret

00010318 <pool_init>:
  00010318:	ff010113	addi	sp, sp, -16
  0001031c:	00112623	sw	ra, 12(sp)
  00010320:	00812423	sw	s0, 8(sp)
  00010324:	01010413	addi	s0, sp, 16
  00010328:	00040293	addi	t0, s0, 0
  0001032c:	ffc2a083	lw	ra, -4(t0)
  00010330:	ff82a403	lw	s0, -8(t0)
  00010334:	00028113	addi	sp, t0, 0
  00010338:	00008067	ret
  0001033c:	00040293	addi	t0, s0, 0
  00010340:	ffc2a083	lw	ra, -4(t0)
  00010344:	ff82a403	lw	s0, -8(t0)
  00010348:	00028113	addi	sp, t0, 0
  0001034c:	00008067	ret

00010350 <__runtime_init__u32__u32__u32__u32__u32__u32__u32>:
  00010350:	fb010113	addi	sp, sp, -80
  00010354:	04112623	sw	ra, 76(sp)
  00010358:	04812423	sw	s0, 72(sp)
  0001035c:	05010413	addi	s0, sp, 80
  00010360:	fea42a23	sw	a0, -12(s0)
  00010364:	feb42823	sw	a1, -16(s0)
  00010368:	fec42623	sw	a2, -20(s0)
  0001036c:	fed42423	sw	a3, -24(s0)
  00010370:	fee42223	sw	a4, -28(s0)
  00010374:	fef42023	sw	a5, -32(s0)
  00010378:	fd042e23	sw	a6, -36(s0)
  0001037c:	fc042c23	sw	zero, -40(s0)
  00010380:	fc042a23	sw	zero, -44(s0)
  00010384:	fc042823	sw	zero, -48(s0)
  00010388:	fc042623	sw	zero, -52(s0)
  0001038c:	fc042423	sw	zero, -56(s0)
  00010390:	ff442283	lw	t0, -12(s0)
  00010394:	ffc10113	addi	sp, sp, -4
  00010398:	00512023	sw	t0, 0(sp)
  0001039c:	00012283	lw	t0, 0(sp)
  000103a0:	00410113	addi	sp, sp, 4
  000103a4:	00000317	auipc	t1, 0x0	# 0x103a4
  000103a8:	d2830313	addi	t1, t1, -728
  000103ac:	00532023	sw	t0, 0(t1)
  000103b0:	ff042283	lw	t0, -16(s0)
  000103b4:	ffc10113	addi	sp, sp, -4
  000103b8:	00512023	sw	t0, 0(sp)
  000103bc:	00012283	lw	t0, 0(sp)
  000103c0:	00410113	addi	sp, sp, 4
  000103c4:	00000317	auipc	t1, 0x0	# 0x103c4
  000103c8:	cf030313	addi	t1, t1, -784
  000103cc:	00532023	sw	t0, 0(t1)
  000103d0:	fec42283	lw	t0, -20(s0)
  000103d4:	ffc10113	addi	sp, sp, -4
  000103d8:	00512023	sw	t0, 0(sp)
  000103dc:	00012283	lw	t0, 0(sp)
  000103e0:	00410113	addi	sp, sp, 4
  000103e4:	00000317	auipc	t1, 0x0	# 0x103e4
  000103e8:	cd430313	addi	t1, t1, -812
  000103ec:	00532023	sw	t0, 0(t1)
  000103f0:	fe842283	lw	t0, -24(s0)
  000103f4:	ffc10113	addi	sp, sp, -4
  000103f8:	00512023	sw	t0, 0(sp)
  000103fc:	00012283	lw	t0, 0(sp)
  00010400:	00410113	addi	sp, sp, 4
  00010404:	00000317	auipc	t1, 0x0	# 0x10404
  00010408:	cb830313	addi	t1, t1, -840
  0001040c:	00532023	sw	t0, 0(t1)
  00010410:	fe442283	lw	t0, -28(s0)
  00010414:	ffc10113	addi	sp, sp, -4
  00010418:	00512023	sw	t0, 0(sp)
  0001041c:	00012283	lw	t0, 0(sp)
  00010420:	00410113	addi	sp, sp, 4
  00010424:	00000317	auipc	t1, 0x0	# 0x10424
  00010428:	c9c30313	addi	t1, t1, -868
  0001042c:	00532023	sw	t0, 0(t1)
  00010430:	fe042283	lw	t0, -32(s0)
  00010434:	ffc10113	addi	sp, sp, -4
  00010438:	00512023	sw	t0, 0(sp)
  0001043c:	00012283	lw	t0, 0(sp)
  00010440:	00410113	addi	sp, sp, 4
  00010444:	00000317	auipc	t1, 0x0	# 0x10444
  00010448:	c8030313	addi	t1, t1, -896
  0001044c:	00532023	sw	t0, 0(t1)
  00010450:	fdc42283	lw	t0, -36(s0)
  00010454:	ffc10113	addi	sp, sp, -4
  00010458:	00512023	sw	t0, 0(sp)
  0001045c:	00012283	lw	t0, 0(sp)
  00010460:	00410113	addi	sp, sp, 4
  00010464:	00000317	auipc	t1, 0x0	# 0x10464
  00010468:	c6430313	addi	t1, t1, -924
  0001046c:	00532023	sw	t0, 0(t1)
  00010470:	ff442283	lw	t0, -12(s0)
  00010474:	ffc10113	addi	sp, sp, -4
  00010478:	00512023	sw	t0, 0(sp)
  0001047c:	00012283	lw	t0, 0(sp)
  00010480:	00410113	addi	sp, sp, 4
  00010484:	fc542c23	sw	t0, -40(s0)
  00010488:	00000293	addi	t0, zero, 0
  0001048c:	ffc10113	addi	sp, sp, -4
  00010490:	00512023	sw	t0, 0(sp)
  00010494:	00012283	lw	t0, 0(sp)
  00010498:	00410113	addi	sp, sp, 4
  0001049c:	fc542a23	sw	t0, -44(s0)

000104a0 <.L_f3_pc18>:
  000104a0:	fd442283	lw	t0, -44(s0)
  000104a4:	ffc10113	addi	sp, sp, -4
  000104a8:	00512023	sw	t0, 0(sp)
  000104ac:	00000317	auipc	t1, 0x0	# 0x104ac
  000104b0:	c0430313	addi	t1, t1, -1020
  000104b4:	00032283	lw	t0, 0(t1)
  000104b8:	ffc10113	addi	sp, sp, -4
  000104bc:	00512023	sw	t0, 0(sp)
  000104c0:	00012303	lw	t1, 0(sp)
  000104c4:	00412283	lw	t0, 4(sp)
  000104c8:	00810113	addi	sp, sp, 8
  000104cc:	0062a2b3	slt	t0, t0, t1
  000104d0:	ffc10113	addi	sp, sp, -4
  000104d4:	00512023	sw	t0, 0(sp)
  000104d8:	00012283	lw	t0, 0(sp)
  000104dc:	00410113	addi	sp, sp, 4
  000104e0:	3c028063	beq	t0, zero, 0x108a0
  000104e4:	ff042283	lw	t0, -16(s0)
  000104e8:	ffc10113	addi	sp, sp, -4
  000104ec:	00512023	sw	t0, 0(sp)
  000104f0:	fd442283	lw	t0, -44(s0)
  000104f4:	ffc10113	addi	sp, sp, -4
  000104f8:	00512023	sw	t0, 0(sp)
  000104fc:	00412503	lw	a0, 4(sp)
  00010500:	00012583	lw	a1, 0(sp)
  00010504:	00000097	auipc	ra, 0x0	# 0x10504
  00010508:	c58080e7	jalr	ra, -936(ra)
  0001050c:	00810113	addi	sp, sp, 8
  00010510:	ffc10113	addi	sp, sp, -4
  00010514:	00a12023	sw	a0, 0(sp)
  00010518:	00012283	lw	t0, 0(sp)
  0001051c:	00410113	addi	sp, sp, 4
  00010520:	fc542823	sw	t0, -48(s0)
  00010524:	fec42283	lw	t0, -20(s0)
  00010528:	ffc10113	addi	sp, sp, -4
  0001052c:	00512023	sw	t0, 0(sp)
  00010530:	fd442283	lw	t0, -44(s0)
  00010534:	ffc10113	addi	sp, sp, -4
  00010538:	00512023	sw	t0, 0(sp)
  0001053c:	00412503	lw	a0, 4(sp)
  00010540:	00012583	lw	a1, 0(sp)
  00010544:	00000097	auipc	ra, 0x0	# 0x10544
  00010548:	c18080e7	jalr	ra, -1000(ra)
  0001054c:	00810113	addi	sp, sp, 8
  00010550:	ffc10113	addi	sp, sp, -4
  00010554:	00a12023	sw	a0, 0(sp)
  00010558:	00012283	lw	t0, 0(sp)
  0001055c:	00410113	addi	sp, sp, 4
  00010560:	fc542623	sw	t0, -52(s0)
  00010564:	fe442283	lw	t0, -28(s0)
  00010568:	ffc10113	addi	sp, sp, -4
  0001056c:	00512023	sw	t0, 0(sp)
  00010570:	fd442283	lw	t0, -44(s0)
  00010574:	ffc10113	addi	sp, sp, -4
  00010578:	00512023	sw	t0, 0(sp)
  0001057c:	fd842283	lw	t0, -40(s0)
  00010580:	ffc10113	addi	sp, sp, -4
  00010584:	00512023	sw	t0, 0(sp)
  00010588:	00012283	lw	t0, 0(sp)
  0001058c:	00410113	addi	sp, sp, 4
  00010590:	ffc10113	addi	sp, sp, -4
  00010594:	00512023	sw	t0, 0(sp)
  00010598:	00812503	lw	a0, 8(sp)
  0001059c:	00412583	lw	a1, 4(sp)
  000105a0:	00012603	lw	a2, 0(sp)
  000105a4:	00000097	auipc	ra, 0x0	# 0x105a4
  000105a8:	c90080e7	jalr	ra, -880(ra)
  000105ac:	00c10113	addi	sp, sp, 12
  000105b0:	ffc10113	addi	sp, sp, -4
  000105b4:	00a12023	sw	a0, 0(sp)
  000105b8:	00410113	addi	sp, sp, 4
  000105bc:	fe842283	lw	t0, -24(s0)
  000105c0:	ffc10113	addi	sp, sp, -4
  000105c4:	00512023	sw	t0, 0(sp)
  000105c8:	fd442283	lw	t0, -44(s0)
  000105cc:	ffc10113	addi	sp, sp, -4
  000105d0:	00512023	sw	t0, 0(sp)
  000105d4:	fd842283	lw	t0, -40(s0)
  000105d8:	ffc10113	addi	sp, sp, -4
  000105dc:	00512023	sw	t0, 0(sp)
  000105e0:	00012283	lw	t0, 0(sp)
  000105e4:	00410113	addi	sp, sp, 4
  000105e8:	ffc10113	addi	sp, sp, -4
  000105ec:	00512023	sw	t0, 0(sp)
  000105f0:	00812503	lw	a0, 8(sp)
  000105f4:	00412583	lw	a1, 4(sp)
  000105f8:	00012603	lw	a2, 0(sp)
  000105fc:	00000097	auipc	ra, 0x0	# 0x105fc
  00010600:	c38080e7	jalr	ra, -968(ra)
  00010604:	00c10113	addi	sp, sp, 12
  00010608:	ffc10113	addi	sp, sp, -4
  0001060c:	00a12023	sw	a0, 0(sp)
  00010610:	00410113	addi	sp, sp, 4
  00010614:	00000293	addi	t0, zero, 0
  00010618:	ffc10113	addi	sp, sp, -4
  0001061c:	00512023	sw	t0, 0(sp)
  00010620:	00012283	lw	t0, 0(sp)
  00010624:	00410113	addi	sp, sp, 4
  00010628:	fc542423	sw	t0, -56(s0)

0001062c <.L_f3_pc44>:
  0001062c:	fc842283	lw	t0, -56(s0)
  00010630:	ffc10113	addi	sp, sp, -4
  00010634:	00512023	sw	t0, 0(sp)
  00010638:	fcc42283	lw	t0, -52(s0)
  0001063c:	ffc10113	addi	sp, sp, -4
  00010640:	00512023	sw	t0, 0(sp)
  00010644:	00100293	addi	t0, zero, 1
  00010648:	ffc10113	addi	sp, sp, -4
  0001064c:	00512023	sw	t0, 0(sp)
  00010650:	00012303	lw	t1, 0(sp)
  00010654:	00412283	lw	t0, 4(sp)
  00010658:	00810113	addi	sp, sp, 8
  0001065c:	406282b3	sub	t0, t0, t1
  00010660:	ffc10113	addi	sp, sp, -4
  00010664:	00512023	sw	t0, 0(sp)
  00010668:	00012303	lw	t1, 0(sp)
  0001066c:	00412283	lw	t0, 4(sp)
  00010670:	00810113	addi	sp, sp, 8
  00010674:	0062a2b3	slt	t0, t0, t1
  00010678:	ffc10113	addi	sp, sp, -4
  0001067c:	00512023	sw	t0, 0(sp)
  00010680:	00012283	lw	t0, 0(sp)
  00010684:	00410113	addi	sp, sp, 4
  00010688:	0e028e63	beq	t0, zero, 0x10784
  0001068c:	fd842283	lw	t0, -40(s0)
  00010690:	ffc10113	addi	sp, sp, -4
  00010694:	00512023	sw	t0, 0(sp)
  00010698:	fd842283	lw	t0, -40(s0)
  0001069c:	ffc10113	addi	sp, sp, -4
  000106a0:	00512023	sw	t0, 0(sp)
  000106a4:	fd042283	lw	t0, -48(s0)
  000106a8:	ffc10113	addi	sp, sp, -4
  000106ac:	00512023	sw	t0, 0(sp)
  000106b0:	00012283	lw	t0, 0(sp)
  000106b4:	00410113	addi	sp, sp, 4
  000106b8:	ffc10113	addi	sp, sp, -4
  000106bc:	00512023	sw	t0, 0(sp)
  000106c0:	00012303	lw	t1, 0(sp)
  000106c4:	00412283	lw	t0, 4(sp)
  000106c8:	00810113	addi	sp, sp, 8
  000106cc:	006282b3	add	t0, t0, t1
  000106d0:	ffc10113	addi	sp, sp, -4
  000106d4:	00512023	sw	t0, 0(sp)
  000106d8:	00412503	lw	a0, 4(sp)
  000106dc:	00012583	lw	a1, 0(sp)
  000106e0:	00000097	auipc	ra, 0x0	# 0x106e0
  000106e4:	9c8080e7	jalr	ra, -1592(ra)
  000106e8:	00810113	addi	sp, sp, 8
  000106ec:	ffc10113	addi	sp, sp, -4
  000106f0:	00a12023	sw	a0, 0(sp)
  000106f4:	00410113	addi	sp, sp, 4
  000106f8:	fd842283	lw	t0, -40(s0)
  000106fc:	ffc10113	addi	sp, sp, -4
  00010700:	00512023	sw	t0, 0(sp)
  00010704:	fd042283	lw	t0, -48(s0)
  00010708:	ffc10113	addi	sp, sp, -4
  0001070c:	00512023	sw	t0, 0(sp)
  00010710:	00012283	lw	t0, 0(sp)
  00010714:	00410113	addi	sp, sp, 4
  00010718:	ffc10113	addi	sp, sp, -4
  0001071c:	00512023	sw	t0, 0(sp)
  00010720:	00012303	lw	t1, 0(sp)
  00010724:	00412283	lw	t0, 4(sp)
  00010728:	00810113	addi	sp, sp, 8
  0001072c:	006282b3	add	t0, t0, t1
  00010730:	ffc10113	addi	sp, sp, -4
  00010734:	00512023	sw	t0, 0(sp)
  00010738:	00012283	lw	t0, 0(sp)
  0001073c:	00410113	addi	sp, sp, 4
  00010740:	fc542c23	sw	t0, -40(s0)
  00010744:	fc842283	lw	t0, -56(s0)
  00010748:	ffc10113	addi	sp, sp, -4
  0001074c:	00512023	sw	t0, 0(sp)
  00010750:	00100293	addi	t0, zero, 1
  00010754:	ffc10113	addi	sp, sp, -4
  00010758:	00512023	sw	t0, 0(sp)
  0001075c:	00012303	lw	t1, 0(sp)
  00010760:	00412283	lw	t0, 4(sp)
  00010764:	00810113	addi	sp, sp, 8
  00010768:	006282b3	add	t0, t0, t1
  0001076c:	ffc10113	addi	sp, sp, -4
  00010770:	00512023	sw	t0, 0(sp)
  00010774:	00012283	lw	t0, 0(sp)
  00010778:	00410113	addi	sp, sp, 4
  0001077c:	fc542423	sw	t0, -56(s0)
  00010780:	eadff06f	jal	zero, 0x1062c <.L_f3_pc44>

00010784 <.L_f3_pc67>:
  00010784:	fd842283	lw	t0, -40(s0)
  00010788:	ffc10113	addi	sp, sp, -4
  0001078c:	00512023	sw	t0, 0(sp)
  00010790:	00000293	addi	t0, zero, 0
  00010794:	ffc10113	addi	sp, sp, -4
  00010798:	00512023	sw	t0, 0(sp)
  0001079c:	00412503	lw	a0, 4(sp)
  000107a0:	00012583	lw	a1, 0(sp)
  000107a4:	00000097	auipc	ra, 0x0	# 0x107a4
  000107a8:	904080e7	jalr	ra, -1788(ra)
  000107ac:	00810113	addi	sp, sp, 8
  000107b0:	ffc10113	addi	sp, sp, -4
  000107b4:	00a12023	sw	a0, 0(sp)
  000107b8:	00410113	addi	sp, sp, 4
  000107bc:	fd842283	lw	t0, -40(s0)
  000107c0:	ffc10113	addi	sp, sp, -4
  000107c4:	00512023	sw	t0, 0(sp)
  000107c8:	fd042283	lw	t0, -48(s0)
  000107cc:	ffc10113	addi	sp, sp, -4
  000107d0:	00512023	sw	t0, 0(sp)
  000107d4:	00012283	lw	t0, 0(sp)
  000107d8:	00410113	addi	sp, sp, 4
  000107dc:	ffc10113	addi	sp, sp, -4
  000107e0:	00512023	sw	t0, 0(sp)
  000107e4:	00012303	lw	t1, 0(sp)
  000107e8:	00412283	lw	t0, 4(sp)
  000107ec:	00810113	addi	sp, sp, 8
  000107f0:	006282b3	add	t0, t0, t1
  000107f4:	ffc10113	addi	sp, sp, -4
  000107f8:	00512023	sw	t0, 0(sp)
  000107fc:	00012283	lw	t0, 0(sp)
  00010800:	00410113	addi	sp, sp, 4
  00010804:	fc542c23	sw	t0, -40(s0)
  00010808:	fe042283	lw	t0, -32(s0)
  0001080c:	ffc10113	addi	sp, sp, -4
  00010810:	00512023	sw	t0, 0(sp)
  00010814:	fd442283	lw	t0, -44(s0)
  00010818:	ffc10113	addi	sp, sp, -4
  0001081c:	00512023	sw	t0, 0(sp)
  00010820:	fd842283	lw	t0, -40(s0)
  00010824:	ffc10113	addi	sp, sp, -4
  00010828:	00512023	sw	t0, 0(sp)
  0001082c:	00012283	lw	t0, 0(sp)
  00010830:	00410113	addi	sp, sp, 4
  00010834:	ffc10113	addi	sp, sp, -4
  00010838:	00512023	sw	t0, 0(sp)
  0001083c:	00812503	lw	a0, 8(sp)
  00010840:	00412583	lw	a1, 4(sp)
  00010844:	00012603	lw	a2, 0(sp)
  00010848:	00000097	auipc	ra, 0x0	# 0x10848
  0001084c:	9ec080e7	jalr	ra, -1556(ra)
  00010850:	00c10113	addi	sp, sp, 12
  00010854:	ffc10113	addi	sp, sp, -4
  00010858:	00a12023	sw	a0, 0(sp)
  0001085c:	00410113	addi	sp, sp, 4
  00010860:	fd442283	lw	t0, -44(s0)
  00010864:	ffc10113	addi	sp, sp, -4
  00010868:	00512023	sw	t0, 0(sp)
  0001086c:	00100293	addi	t0, zero, 1
  00010870:	ffc10113	addi	sp, sp, -4
  00010874:	00512023	sw	t0, 0(sp)
  00010878:	00012303	lw	t1, 0(sp)
  0001087c:	00412283	lw	t0, 4(sp)
  00010880:	00810113	addi	sp, sp, 8
  00010884:	006282b3	add	t0, t0, t1
  00010888:	ffc10113	addi	sp, sp, -4
  0001088c:	00512023	sw	t0, 0(sp)
  00010890:	00012283	lw	t0, 0(sp)
  00010894:	00410113	addi	sp, sp, 4
  00010898:	fc542a23	sw	t0, -44(s0)
  0001089c:	c05ff06f	jal	zero, 0x104a0 <.L_f3_pc18>

000108a0 <.L_f3_pc87>:
  000108a0:	fdc42283	lw	t0, -36(s0)
  000108a4:	ffc10113	addi	sp, sp, -4
  000108a8:	00512023	sw	t0, 0(sp)
  000108ac:	00100293	addi	t0, zero, 1
  000108b0:	ffc10113	addi	sp, sp, -4
  000108b4:	00512023	sw	t0, 0(sp)
  000108b8:	00412503	lw	a0, 4(sp)
  000108bc:	00012583	lw	a1, 0(sp)
  000108c0:	fffff097	auipc	ra, 0xfffff	# 0xf8c0
  000108c4:	7e8080e7	jalr	ra, 2024(ra)
  000108c8:	00810113	addi	sp, sp, 8
  000108cc:	ffc10113	addi	sp, sp, -4
  000108d0:	00a12023	sw	a0, 0(sp)
  000108d4:	00410113	addi	sp, sp, 4
  000108d8:	00040293	addi	t0, s0, 0
  000108dc:	ffc2a083	lw	ra, -4(t0)
  000108e0:	ff82a403	lw	s0, -8(t0)
  000108e4:	00028113	addi	sp, t0, 0
  000108e8:	00008067	ret
  000108ec:	00040293	addi	t0, s0, 0
  000108f0:	ffc2a083	lw	ra, -4(t0)
  000108f4:	ff82a403	lw	s0, -8(t0)
  000108f8:	00028113	addi	sp, t0, 0
  000108fc:	00008067	ret

00010900 <bucket_of__i32>:
  00010900:	fe010113	addi	sp, sp, -32
  00010904:	00112e23	sw	ra, 28(sp)
  00010908:	00812c23	sw	s0, 24(sp)
  0001090c:	02010413	addi	s0, sp, 32
  00010910:	fea42a23	sw	a0, -12(s0)
  00010914:	fe042823	sw	zero, -16(s0)
  00010918:	00000293	addi	t0, zero, 0
  0001091c:	ffc10113	addi	sp, sp, -4
  00010920:	00512023	sw	t0, 0(sp)
  00010924:	00012283	lw	t0, 0(sp)
  00010928:	00410113	addi	sp, sp, 4
  0001092c:	fe542823	sw	t0, -16(s0)

00010930 <.L_f4_pc2>:
  00010930:	ff042283	lw	t0, -16(s0)
  00010934:	ffc10113	addi	sp, sp, -4
  00010938:	00512023	sw	t0, 0(sp)
  0001093c:	fffff317	auipc	t1, 0xfffff	# 0xf93c
  00010940:	77430313	addi	t1, t1, 1908
  00010944:	00032283	lw	t0, 0(t1)
  00010948:	ffc10113	addi	sp, sp, -4
  0001094c:	00512023	sw	t0, 0(sp)
  00010950:	00012303	lw	t1, 0(sp)
  00010954:	00412283	lw	t0, 4(sp)
  00010958:	00810113	addi	sp, sp, 8
  0001095c:	0062a2b3	slt	t0, t0, t1
  00010960:	ffc10113	addi	sp, sp, -4
  00010964:	00512023	sw	t0, 0(sp)
  00010968:	00012283	lw	t0, 0(sp)
  0001096c:	00410113	addi	sp, sp, 4
  00010970:	0e028063	beq	t0, zero, 0x10a50
  00010974:	fffff317	auipc	t1, 0xfffff	# 0xf974
  00010978:	74030313	addi	t1, t1, 1856
  0001097c:	00032283	lw	t0, 0(t1)
  00010980:	ffc10113	addi	sp, sp, -4
  00010984:	00512023	sw	t0, 0(sp)
  00010988:	ff042283	lw	t0, -16(s0)
  0001098c:	ffc10113	addi	sp, sp, -4
  00010990:	00512023	sw	t0, 0(sp)
  00010994:	00412503	lw	a0, 4(sp)
  00010998:	00012583	lw	a1, 0(sp)
  0001099c:	fffff097	auipc	ra, 0xfffff	# 0xf99c
  000109a0:	7c0080e7	jalr	ra, 1984(ra)
  000109a4:	00810113	addi	sp, sp, 8
  000109a8:	ffc10113	addi	sp, sp, -4
  000109ac:	00a12023	sw	a0, 0(sp)
  000109b0:	ff442283	lw	t0, -12(s0)
  000109b4:	ffc10113	addi	sp, sp, -4
  000109b8:	00512023	sw	t0, 0(sp)
  000109bc:	00012303	lw	t1, 0(sp)
  000109c0:	00412283	lw	t0, 4(sp)
  000109c4:	00810113	addi	sp, sp, 8
  000109c8:	0062a2b3	slt	t0, t0, t1
  000109cc:	0012c293	xori	t0, t0, 1
  000109d0:	ffc10113	addi	sp, sp, -4
  000109d4:	00512023	sw	t0, 0(sp)
  000109d8:	00012283	lw	t0, 0(sp)
  000109dc:	00410113	addi	sp, sp, 4
  000109e0:	02028863	beq	t0, zero, 0x10a10
  000109e4:	ff042283	lw	t0, -16(s0)
  000109e8:	ffc10113	addi	sp, sp, -4
  000109ec:	00512023	sw	t0, 0(sp)
  000109f0:	00012283	lw	t0, 0(sp)
  000109f4:	00410113	addi	sp, sp, 4
  000109f8:	00028513	addi	a0, t0, 0
  000109fc:	00040293	addi	t0, s0, 0
  00010a00:	ffc2a083	lw	ra, -4(t0)
  00010a04:	ff82a403	lw	s0, -8(t0)
  00010a08:	00028113	addi	sp, t0, 0
  00010a0c:	00008067	ret

00010a10 <.L_f4_pc14>:
  00010a10:	ff042283	lw	t0, -16(s0)
  00010a14:	ffc10113	addi	sp, sp, -4
  00010a18:	00512023	sw	t0, 0(sp)
  00010a1c:	00100293	addi	t0, zero, 1
  00010a20:	ffc10113	addi	sp, sp, -4
  00010a24:	00512023	sw	t0, 0(sp)
  00010a28:	00012303	lw	t1, 0(sp)
  00010a2c:	00412283	lw	t0, 4(sp)
  00010a30:	00810113	addi	sp, sp, 8
  00010a34:	006282b3	add	t0, t0, t1
  00010a38:	ffc10113	addi	sp, sp, -4
  00010a3c:	00512023	sw	t0, 0(sp)
  00010a40:	00012283	lw	t0, 0(sp)
  00010a44:	00410113	addi	sp, sp, 4
  00010a48:	fe542823	sw	t0, -16(s0)
  00010a4c:	ee5ff06f	jal	zero, 0x10930 <.L_f4_pc2>

00010a50 <.L_f4_pc19>:
  00010a50:	fffff317	auipc	t1, 0xfffff	# 0xfa50
  00010a54:	66030313	addi	t1, t1, 1632
  00010a58:	00032283	lw	t0, 0(t1)
  00010a5c:	ffc10113	addi	sp, sp, -4
  00010a60:	00512023	sw	t0, 0(sp)
  00010a64:	00100293	addi	t0, zero, 1
  00010a68:	ffc10113	addi	sp, sp, -4
  00010a6c:	00512023	sw	t0, 0(sp)
  00010a70:	00012303	lw	t1, 0(sp)
  00010a74:	00412283	lw	t0, 4(sp)
  00010a78:	00810113	addi	sp, sp, 8
  00010a7c:	406282b3	sub	t0, t0, t1
  00010a80:	ffc10113	addi	sp, sp, -4
  00010a84:	00512023	sw	t0, 0(sp)
  00010a88:	00012283	lw	t0, 0(sp)
  00010a8c:	00410113	addi	sp, sp, 4
  00010a90:	00028513	addi	a0, t0, 0
  00010a94:	00040293	addi	t0, s0, 0
  00010a98:	ffc2a083	lw	ra, -4(t0)
  00010a9c:	ff82a403	lw	s0, -8(t0)
  00010aa0:	00028113	addi	sp, t0, 0
  00010aa4:	00008067	ret
  00010aa8:	00040293	addi	t0, s0, 0
  00010aac:	ffc2a083	lw	ra, -4(t0)
  00010ab0:	ff82a403	lw	s0, -8(t0)
  00010ab4:	00028113	addi	sp, t0, 0
  00010ab8:	00008067	ret

00010abc <pool_alloc__i32>:
  00010abc:	fd010113	addi	sp, sp, -48
  00010ac0:	02112623	sw	ra, 44(sp)
  00010ac4:	02812423	sw	s0, 40(sp)
  00010ac8:	03010413	addi	s0, sp, 48
  00010acc:	fea42a23	sw	a0, -12(s0)
  00010ad0:	fe042823	sw	zero, -16(s0)
  00010ad4:	fe042623	sw	zero, -20(s0)
  00010ad8:	fe042423	sw	zero, -24(s0)
  00010adc:	fe042223	sw	zero, -28(s0)
  00010ae0:	fe042023	sw	zero, -32(s0)
  00010ae4:	ff442283	lw	t0, -12(s0)
  00010ae8:	ffc10113	addi	sp, sp, -4
  00010aec:	00512023	sw	t0, 0(sp)
  00010af0:	00000293	addi	t0, zero, 0
  00010af4:	ffc10113	addi	sp, sp, -4
  00010af8:	00512023	sw	t0, 0(sp)
  00010afc:	00012303	lw	t1, 0(sp)
  00010b00:	00412283	lw	t0, 4(sp)
  00010b04:	00810113	addi	sp, sp, 8
  00010b08:	005322b3	slt	t0, t1, t0
  00010b0c:	0012c293	xori	t0, t0, 1
  00010b10:	ffc10113	addi	sp, sp, -4
  00010b14:	00512023	sw	t0, 0(sp)
  00010b18:	00012283	lw	t0, 0(sp)
  00010b1c:	00410113	addi	sp, sp, 4
  00010b20:	00028e63	beq	t0, zero, 0x10b3c
  00010b24:	00100293	addi	t0, zero, 1
  00010b28:	ffc10113	addi	sp, sp, -4
  00010b2c:	00512023	sw	t0, 0(sp)
  00010b30:	00012283	lw	t0, 0(sp)
  00010b34:	00410113	addi	sp, sp, 4
  00010b38:	fe542a23	sw	t0, -12(s0)

00010b3c <.L_f5_pc6>:
  00010b3c:	ff442283	lw	t0, -12(s0)
  00010b40:	ffc10113	addi	sp, sp, -4
  00010b44:	00512023	sw	t0, 0(sp)
  00010b48:	00012503	lw	a0, 0(sp)
  00010b4c:	00000097	auipc	ra, 0x0	# 0x10b4c
  00010b50:	db4080e7	jalr	ra, -588(ra)
  00010b54:	00410113	addi	sp, sp, 4
  00010b58:	ffc10113	addi	sp, sp, -4
  00010b5c:	00a12023	sw	a0, 0(sp)
  00010b60:	00012283	lw	t0, 0(sp)
  00010b64:	00410113	addi	sp, sp, 4
  00010b68:	fe542823	sw	t0, -16(s0)
  00010b6c:	fffff317	auipc	t1, 0xfffff	# 0xfb6c
  00010b70:	55030313	addi	t1, t1, 1360
  00010b74:	00032283	lw	t0, 0(t1)
  00010b78:	ffc10113	addi	sp, sp, -4
  00010b7c:	00512023	sw	t0, 0(sp)
  00010b80:	ff042283	lw	t0, -16(s0)
  00010b84:	ffc10113	addi	sp, sp, -4
  00010b88:	00512023	sw	t0, 0(sp)
  00010b8c:	00412503	lw	a0, 4(sp)
  00010b90:	00012583	lw	a1, 0(sp)
  00010b94:	fffff097	auipc	ra, 0xfffff	# 0xfb94
  00010b98:	5c8080e7	jalr	ra, 1480(ra)
  00010b9c:	00810113	addi	sp, sp, 8
  00010ba0:	ffc10113	addi	sp, sp, -4
  00010ba4:	00a12023	sw	a0, 0(sp)
  00010ba8:	00012283	lw	t0, 0(sp)
  00010bac:	00410113	addi	sp, sp, 4
  00010bb0:	ffc10113	addi	sp, sp, -4
  00010bb4:	00512023	sw	t0, 0(sp)
  00010bb8:	00012283	lw	t0, 0(sp)
  00010bbc:	00410113	addi	sp, sp, 4
  00010bc0:	fe542623	sw	t0, -20(s0)
  00010bc4:	fec42283	lw	t0, -20(s0)
  00010bc8:	ffc10113	addi	sp, sp, -4
  00010bcc:	00512023	sw	t0, 0(sp)
  00010bd0:	00000293	addi	t0, zero, 0
  00010bd4:	ffc10113	addi	sp, sp, -4
  00010bd8:	00512023	sw	t0, 0(sp)
  00010bdc:	00012303	lw	t1, 0(sp)
  00010be0:	00412283	lw	t0, 4(sp)
  00010be4:	00810113	addi	sp, sp, 8
  00010be8:	406282b3	sub	t0, t0, t1
  00010bec:	0012b293	sltiu	t0, t0, 1
  00010bf0:	ffc10113	addi	sp, sp, -4
  00010bf4:	00512023	sw	t0, 0(sp)
  00010bf8:	00012283	lw	t0, 0(sp)
  00010bfc:	00410113	addi	sp, sp, 4
  00010c00:	02028663	beq	t0, zero, 0x10c2c
  00010c04:	00100293	addi	t0, zero, 1
  00010c08:	ffc10113	addi	sp, sp, -4
  00010c0c:	00512023	sw	t0, 0(sp)
  00010c10:	00012503	lw	a0, 0(sp)
  00010c14:	fffff097	auipc	ra, 0xfffff	# 0xfc14
  00010c18:	460080e7	jalr	ra, 1120(ra)
  00010c1c:	00410113	addi	sp, sp, 4
  00010c20:	ffc10113	addi	sp, sp, -4
  00010c24:	00a12023	sw	a0, 0(sp)
  00010c28:	00410113	addi	sp, sp, 4

00010c2c <.L_f5_pc21>:
  00010c2c:	fec42283	lw	t0, -20(s0)
  00010c30:	ffc10113	addi	sp, sp, -4
  00010c34:	00512023	sw	t0, 0(sp)
  00010c38:	00012503	lw	a0, 0(sp)
  00010c3c:	fffff097	auipc	ra, 0xfffff	# 0xfc3c
  00010c40:	454080e7	jalr	ra, 1108(ra)
  00010c44:	00410113	addi	sp, sp, 4
  00010c48:	ffc10113	addi	sp, sp, -4
  00010c4c:	00a12023	sw	a0, 0(sp)
  00010c50:	00012283	lw	t0, 0(sp)
  00010c54:	00410113	addi	sp, sp, 4
  00010c58:	fe542423	sw	t0, -24(s0)
  00010c5c:	fffff317	auipc	t1, 0xfffff	# 0xfc5c
  00010c60:	46030313	addi	t1, t1, 1120
  00010c64:	00032283	lw	t0, 0(t1)
  00010c68:	ffc10113	addi	sp, sp, -4
  00010c6c:	00512023	sw	t0, 0(sp)
  00010c70:	ff042283	lw	t0, -16(s0)
  00010c74:	ffc10113	addi	sp, sp, -4
  00010c78:	00512023	sw	t0, 0(sp)
  00010c7c:	fe842283	lw	t0, -24(s0)
  00010c80:	ffc10113	addi	sp, sp, -4
  00010c84:	00512023	sw	t0, 0(sp)
  00010c88:	00012283	lw	t0, 0(sp)
  00010c8c:	00410113	addi	sp, sp, 4
  00010c90:	ffc10113	addi	sp, sp, -4
  00010c94:	00512023	sw	t0, 0(sp)
  00010c98:	00812503	lw	a0, 8(sp)
  00010c9c:	00412583	lw	a1, 4(sp)
  00010ca0:	00012603	lw	a2, 0(sp)
  00010ca4:	fffff097	auipc	ra, 0xfffff	# 0xfca4
  00010ca8:	590080e7	jalr	ra, 1424(ra)
  00010cac:	00c10113	addi	sp, sp, 12
  00010cb0:	ffc10113	addi	sp, sp, -4
  00010cb4:	00a12023	sw	a0, 0(sp)
  00010cb8:	00410113	addi	sp, sp, 4
  00010cbc:	fffff317	auipc	t1, 0xfffff	# 0xfcbc
  00010cc0:	3f830313	addi	t1, t1, 1016
  00010cc4:	00032283	lw	t0, 0(t1)
  00010cc8:	ffc10113	addi	sp, sp, -4
  00010ccc:	00512023	sw	t0, 0(sp)
  00010cd0:	ff042283	lw	t0, -16(s0)
  00010cd4:	ffc10113	addi	sp, sp, -4
  00010cd8:	00512023	sw	t0, 0(sp)
  00010cdc:	00412503	lw	a0, 4(sp)
  00010ce0:	00012583	lw	a1, 0(sp)
  00010ce4:	fffff097	auipc	ra, 0xfffff	# 0xfce4
  00010ce8:	478080e7	jalr	ra, 1144(ra)
  00010cec:	00810113	addi	sp, sp, 8
  00010cf0:	ffc10113	addi	sp, sp, -4
  00010cf4:	00a12023	sw	a0, 0(sp)
  00010cf8:	00012283	lw	t0, 0(sp)
  00010cfc:	00410113	addi	sp, sp, 4
  00010d00:	fe542223	sw	t0, -28(s0)
  00010d04:	00000293	addi	t0, zero, 0
  00010d08:	ffc10113	addi	sp, sp, -4
  00010d0c:	00512023	sw	t0, 0(sp)
  00010d10:	00012283	lw	t0, 0(sp)
  00010d14:	00410113	addi	sp, sp, 4
  00010d18:	fe542023	sw	t0, -32(s0)

00010d1c <.L_f5_pc36>:
  00010d1c:	fe042283	lw	t0, -32(s0)
  00010d20:	ffc10113	addi	sp, sp, -4
  00010d24:	00512023	sw	t0, 0(sp)
  00010d28:	fe442283	lw	t0, -28(s0)
  00010d2c:	ffc10113	addi	sp, sp, -4
  00010d30:	00512023	sw	t0, 0(sp)
  00010d34:	00012303	lw	t1, 0(sp)
  00010d38:	00412283	lw	t0, 4(sp)
  00010d3c:	00810113	addi	sp, sp, 8
  00010d40:	0062a2b3	slt	t0, t0, t1
  00010d44:	ffc10113	addi	sp, sp, -4
  00010d48:	00512023	sw	t0, 0(sp)
  00010d4c:	00012283	lw	t0, 0(sp)
  00010d50:	00410113	addi	sp, sp, 4
  00010d54:	0a028863	beq	t0, zero, 0x10e04
  00010d58:	fec42283	lw	t0, -20(s0)
  00010d5c:	ffc10113	addi	sp, sp, -4
  00010d60:	00512023	sw	t0, 0(sp)
  00010d64:	fe042283	lw	t0, -32(s0)
  00010d68:	ffc10113	addi	sp, sp, -4
  00010d6c:	00512023	sw	t0, 0(sp)
  00010d70:	00012283	lw	t0, 0(sp)
  00010d74:	00410113	addi	sp, sp, 4
  00010d78:	ffc10113	addi	sp, sp, -4
  00010d7c:	00512023	sw	t0, 0(sp)
  00010d80:	00012303	lw	t1, 0(sp)
  00010d84:	00412283	lw	t0, 4(sp)
  00010d88:	00810113	addi	sp, sp, 8
  00010d8c:	006282b3	add	t0, t0, t1
  00010d90:	ffc10113	addi	sp, sp, -4
  00010d94:	00512023	sw	t0, 0(sp)
  00010d98:	00000293	addi	t0, zero, 0
  00010d9c:	ffc10113	addi	sp, sp, -4
  00010da0:	00512023	sw	t0, 0(sp)
  00010da4:	00412503	lw	a0, 4(sp)
  00010da8:	00012583	lw	a1, 0(sp)
  00010dac:	fffff097	auipc	ra, 0xfffff	# 0xfdac
  00010db0:	2fc080e7	jalr	ra, 764(ra)
  00010db4:	00810113	addi	sp, sp, 8
  00010db8:	ffc10113	addi	sp, sp, -4
  00010dbc:	00a12023	sw	a0, 0(sp)
  00010dc0:	00410113	addi	sp, sp, 4
  00010dc4:	fe042283	lw	t0, -32(s0)
  00010dc8:	ffc10113	addi	sp, sp, -4
  00010dcc:	00512023	sw	t0, 0(sp)
  00010dd0:	00400293	addi	t0, zero, 4
  00010dd4:	ffc10113	addi	sp, sp, -4
  00010dd8:	00512023	sw	t0, 0(sp)
  00010ddc:	00012303	lw	t1, 0(sp)
  00010de0:	00412283	lw	t0, 4(sp)
  00010de4:	00810113	addi	sp, sp, 8
  00010de8:	006282b3	add	t0, t0, t1
  00010dec:	ffc10113	addi	sp, sp, -4
  00010df0:	00512023	sw	t0, 0(sp)
  00010df4:	00012283	lw	t0, 0(sp)
  00010df8:	00410113	addi	sp, sp, 4
  00010dfc:	fe542023	sw	t0, -32(s0)
  00010e00:	f1dff06f	jal	zero, 0x10d1c <.L_f5_pc36>

00010e04 <.L_f5_pc52>:
  00010e04:	fec42283	lw	t0, -20(s0)
  00010e08:	ffc10113	addi	sp, sp, -4
  00010e0c:	00512023	sw	t0, 0(sp)
  00010e10:	00012283	lw	t0, 0(sp)
  00010e14:	00410113	addi	sp, sp, 4
  00010e18:	00028513	addi	a0, t0, 0
  00010e1c:	00040293	addi	t0, s0, 0
  00010e20:	ffc2a083	lw	ra, -4(t0)
  00010e24:	ff82a403	lw	s0, -8(t0)
  00010e28:	00028113	addi	sp, t0, 0
  00010e2c:	00008067	ret
  00010e30:	00040293	addi	t0, s0, 0
  00010e34:	ffc2a083	lw	ra, -4(t0)
  00010e38:	ff82a403	lw	s0, -8(t0)
  00010e3c:	00028113	addi	sp, t0, 0
  00010e40:	00008067	ret

00010e44 <pool_free_blk__u32>:
  00010e44:	fd010113	addi	sp, sp, -48
  00010e48:	02112623	sw	ra, 44(sp)
  00010e4c:	02812423	sw	s0, 40(sp)
  00010e50:	03010413	addi	s0, sp, 48
  00010e54:	fea42a23	sw	a0, -12(s0)
  00010e58:	fe042823	sw	zero, -16(s0)
  00010e5c:	fe042623	sw	zero, -20(s0)
  00010e60:	fe042423	sw	zero, -24(s0)
  00010e64:	ff442283	lw	t0, -12(s0)
  00010e68:	ffc10113	addi	sp, sp, -4
  00010e6c:	00512023	sw	t0, 0(sp)
  00010e70:	00000293	addi	t0, zero, 0
  00010e74:	ffc10113	addi	sp, sp, -4
  00010e78:	00512023	sw	t0, 0(sp)
  00010e7c:	00012303	lw	t1, 0(sp)
  00010e80:	00412283	lw	t0, 4(sp)
  00010e84:	00810113	addi	sp, sp, 8
  00010e88:	406282b3	sub	t0, t0, t1
  00010e8c:	0012b293	sltiu	t0, t0, 1
  00010e90:	ffc10113	addi	sp, sp, -4
  00010e94:	00512023	sw	t0, 0(sp)
  00010e98:	00012283	lw	t0, 0(sp)
  00010e9c:	00410113	addi	sp, sp, 4
  00010ea0:	00028c63	beq	t0, zero, 0x10eb8
  00010ea4:	00040293	addi	t0, s0, 0
  00010ea8:	ffc2a083	lw	ra, -4(t0)
  00010eac:	ff82a403	lw	s0, -8(t0)
  00010eb0:	00028113	addi	sp, t0, 0
  00010eb4:	00008067	ret

00010eb8 <.L_f6_pc5>:
  00010eb8:	00000293	addi	t0, zero, 0
  00010ebc:	ffc10113	addi	sp, sp, -4
  00010ec0:	00512023	sw	t0, 0(sp)
  00010ec4:	00012283	lw	t0, 0(sp)
  00010ec8:	00410113	addi	sp, sp, 4
  00010ecc:	fe542823	sw	t0, -16(s0)

00010ed0 <.L_f6_pc7>:
  00010ed0:	ff042283	lw	t0, -16(s0)
  00010ed4:	ffc10113	addi	sp, sp, -4
  00010ed8:	00512023	sw	t0, 0(sp)
  00010edc:	fffff317	auipc	t1, 0xfffff	# 0xfedc
  00010ee0:	1d430313	addi	t1, t1, 468
  00010ee4:	00032283	lw	t0, 0(t1)
  00010ee8:	ffc10113	addi	sp, sp, -4
  00010eec:	00512023	sw	t0, 0(sp)
  00010ef0:	00012303	lw	t1, 0(sp)
  00010ef4:	00412283	lw	t0, 4(sp)
  00010ef8:	00810113	addi	sp, sp, 8
  00010efc:	0062a2b3	slt	t0, t0, t1
  00010f00:	ffc10113	addi	sp, sp, -4
  00010f04:	00512023	sw	t0, 0(sp)
  00010f08:	00012283	lw	t0, 0(sp)
  00010f0c:	00410113	addi	sp, sp, 4
  00010f10:	28028263	beq	t0, zero, 0x11194
  00010f14:	fffff317	auipc	t1, 0xfffff	# 0xff14
  00010f18:	1ac30313	addi	t1, t1, 428
  00010f1c:	00032283	lw	t0, 0(t1)
  00010f20:	ffc10113	addi	sp, sp, -4
  00010f24:	00512023	sw	t0, 0(sp)
  00010f28:	ff042283	lw	t0, -16(s0)
  00010f2c:	ffc10113	addi	sp, sp, -4
  00010f30:	00512023	sw	t0, 0(sp)
  00010f34:	00412503	lw	a0, 4(sp)
  00010f38:	00012583	lw	a1, 0(sp)
  00010f3c:	fffff097	auipc	ra, 0xfffff	# 0xff3c
  00010f40:	220080e7	jalr	ra, 544(ra)
  00010f44:	00810113	addi	sp, sp, 8
  00010f48:	ffc10113	addi	sp, sp, -4
  00010f4c:	00a12023	sw	a0, 0(sp)
  00010f50:	00012283	lw	t0, 0(sp)
  00010f54:	00410113	addi	sp, sp, 4
  00010f58:	fe542623	sw	t0, -20(s0)
  00010f5c:	fffff317	auipc	t1, 0xfffff	# 0xff5c
  00010f60:	16830313	addi	t1, t1, 360
  00010f64:	00032283	lw	t0, 0(t1)
  00010f68:	ffc10113	addi	sp, sp, -4
  00010f6c:	00512023	sw	t0, 0(sp)
  00010f70:	ff042283	lw	t0, -16(s0)
  00010f74:	ffc10113	addi	sp, sp, -4
  00010f78:	00512023	sw	t0, 0(sp)
  00010f7c:	00412503	lw	a0, 4(sp)
  00010f80:	00012583	lw	a1, 0(sp)
  00010f84:	fffff097	auipc	ra, 0xfffff	# 0xff84
  00010f88:	1d8080e7	jalr	ra, 472(ra)
  00010f8c:	00810113	addi	sp, sp, 8
  00010f90:	ffc10113	addi	sp, sp, -4
  00010f94:	00a12023	sw	a0, 0(sp)
  00010f98:	00012283	lw	t0, 0(sp)
  00010f9c:	00410113	addi	sp, sp, 4
  00010fa0:	fe542423	sw	t0, -24(s0)
  00010fa4:	ff442283	lw	t0, -12(s0)
  00010fa8:	ffc10113	addi	sp, sp, -4
  00010fac:	00512023	sw	t0, 0(sp)
  00010fb0:	00012283	lw	t0, 0(sp)
  00010fb4:	00410113	addi	sp, sp, 4
  00010fb8:	ffc10113	addi	sp, sp, -4
  00010fbc:	00512023	sw	t0, 0(sp)
  00010fc0:	fec42283	lw	t0, -20(s0)
  00010fc4:	ffc10113	addi	sp, sp, -4
  00010fc8:	00512023	sw	t0, 0(sp)
  00010fcc:	00012303	lw	t1, 0(sp)
  00010fd0:	00412283	lw	t0, 4(sp)
  00010fd4:	00810113	addi	sp, sp, 8
  00010fd8:	0062a2b3	slt	t0, t0, t1
  00010fdc:	0012c293	xori	t0, t0, 1
  00010fe0:	ffc10113	addi	sp, sp, -4
  00010fe4:	00512023	sw	t0, 0(sp)
  00010fe8:	00012283	lw	t0, 0(sp)
  00010fec:	00410113	addi	sp, sp, 4
  00010ff0:	06028063	beq	t0, zero, 0x11050
  00010ff4:	ff442283	lw	t0, -12(s0)
  00010ff8:	ffc10113	addi	sp, sp, -4
  00010ffc:	00512023	sw	t0, 0(sp)
  00011000:	00012283	lw	t0, 0(sp)
  00011004:	00410113	addi	sp, sp, 4
  00011008:	ffc10113	addi	sp, sp, -4
  0001100c:	00512023	sw	t0, 0(sp)
  00011010:	fe842283	lw	t0, -24(s0)
  00011014:	ffc10113	addi	sp, sp, -4
  00011018:	00512023	sw	t0, 0(sp)
  0001101c:	00012303	lw	t1, 0(sp)
  00011020:	00412283	lw	t0, 4(sp)
  00011024:	00810113	addi	sp, sp, 8
  00011028:	0062a2b3	slt	t0, t0, t1
  0001102c:	ffc10113	addi	sp, sp, -4
  00011030:	00512023	sw	t0, 0(sp)
  00011034:	00012283	lw	t0, 0(sp)
  00011038:	00410113	addi	sp, sp, 4
  0001103c:	00028a63	beq	t0, zero, 0x11050
  00011040:	00100293	addi	t0, zero, 1
  00011044:	ffc10113	addi	sp, sp, -4
  00011048:	00512023	sw	t0, 0(sp)
  0001104c:	0100006f	jal	zero, 0x1105c <.L_f6_pc32>

00011050 <.L_f6_pc31>:
  00011050:	00000293	addi	t0, zero, 0
  00011054:	ffc10113	addi	sp, sp, -4
  00011058:	00512023	sw	t0, 0(sp)

0001105c <.L_f6_pc32>:
  0001105c:	00012283	lw	t0, 0(sp)
  00011060:	00410113	addi	sp, sp, 4
  00011064:	0e028863	beq	t0, zero, 0x11154
  00011068:	ff442283	lw	t0, -12(s0)
  0001106c:	ffc10113	addi	sp, sp, -4
  00011070:	00512023	sw	t0, 0(sp)
  00011074:	fffff317	auipc	t1, 0xfffff	# 0x10074
  00011078:	04830313	addi	t1, t1, 72
  0001107c:	00032283	lw	t0, 0(t1)
  00011080:	ffc10113	addi	sp, sp, -4
  00011084:	00512023	sw	t0, 0(sp)
  00011088:	ff042283	lw	t0, -16(s0)
  0001108c:	ffc10113	addi	sp, sp, -4
  00011090:	00512023	sw	t0, 0(sp)
  00011094:	00412503	lw	a0, 4(sp)
  00011098:	00012583	lw	a1, 0(sp)
  0001109c:	fffff097	auipc	ra, 0xfffff	# 0x1009c
  000110a0:	0c0080e7	jalr	ra, 192(ra)
  000110a4:	00810113	addi	sp, sp, 8
  000110a8:	ffc10113	addi	sp, sp, -4
  000110ac:	00a12023	sw	a0, 0(sp)
  000110b0:	00012283	lw	t0, 0(sp)
  000110b4:	00410113	addi	sp, sp, 4
  000110b8:	ffc10113	addi	sp, sp, -4
  000110bc:	00512023	sw	t0, 0(sp)
  000110c0:	00412503	lw	a0, 4(sp)
  000110c4:	00012583	lw	a1, 0(sp)
  000110c8:	fffff097	auipc	ra, 0xfffff	# 0x100c8
  000110cc:	fe0080e7	jalr	ra, -32(ra)
  000110d0:	00810113	addi	sp, sp, 8
  000110d4:	ffc10113	addi	sp, sp, -4
  000110d8:	00a12023	sw	a0, 0(sp)
  000110dc:	00410113	addi	sp, sp, 4
  000110e0:	fffff317	auipc	t1, 0xfffff	# 0x100e0
  000110e4:	fdc30313	addi	t1, t1, -36
  000110e8:	00032283	lw	t0, 0(t1)
  000110ec:	ffc10113	addi	sp, sp, -4
  000110f0:	00512023	sw	t0, 0(sp)
  000110f4:	ff042283	lw	t0, -16(s0)
  000110f8:	ffc10113	addi	sp, sp, -4
  000110fc:	00512023	sw	t0, 0(sp)
  00011100:	ff442283	lw	t0, -12(s0)
  00011104:	ffc10113	addi	sp, sp, -4
  00011108:	00512023	sw	t0, 0(sp)
  0001110c:	00012283	lw	t0, 0(sp)
  00011110:	00410113	addi	sp, sp, 4
  00011114:	ffc10113	addi	sp, sp, -4
  00011118:	00512023	sw	t0, 0(sp)
  0001111c:	00812503	lw	a0, 8(sp)
  00011120:	00412583	lw	a1, 4(sp)
  00011124:	00012603	lw	a2, 0(sp)
  00011128:	fffff097	auipc	ra, 0xfffff	# 0x10128
  0001112c:	10c080e7	jalr	ra, 268(ra)
  00011130:	00c10113	addi	sp, sp, 12
  00011134:	ffc10113	addi	sp, sp, -4
  00011138:	00a12023	sw	a0, 0(sp)
  0001113c:	00410113	addi	sp, sp, 4
  00011140:	00040293	addi	t0, s0, 0
  00011144:	ffc2a083	lw	ra, -4(t0)
  00011148:	ff82a403	lw	s0, -8(t0)
  0001114c:	00028113	addi	sp, t0, 0
  00011150:	00008067	ret

00011154 <.L_f6_pc47>:
  00011154:	ff042283	lw	t0, -16(s0)
  00011158:	ffc10113	addi	sp, sp, -4
  0001115c:	00512023	sw	t0, 0(sp)
  00011160:	00100293	addi	t0, zero, 1
  00011164:	ffc10113	addi	sp, sp, -4
  00011168:	00512023	sw	t0, 0(sp)
  0001116c:	00012303	lw	t1, 0(sp)
  00011170:	00412283	lw	t0, 4(sp)
  00011174:	00810113	addi	sp, sp, 8
  00011178:	006282b3	add	t0, t0, t1
  0001117c:	ffc10113	addi	sp, sp, -4
  00011180:	00512023	sw	t0, 0(sp)
  00011184:	00012283	lw	t0, 0(sp)
  00011188:	00410113	addi	sp, sp, 4
  0001118c:	fe542823	sw	t0, -16(s0)
  00011190:	d41ff06f	jal	zero, 0x10ed0 <.L_f6_pc7>

00011194 <.L_f6_pc52>:
  00011194:	00040293	addi	t0, s0, 0
  00011198:	ffc2a083	lw	ra, -4(t0)
  0001119c:	ff82a403	lw	s0, -8(t0)
  000111a0:	00028113	addi	sp, t0, 0
  000111a4:	00008067	ret
  000111a8:	00040293	addi	t0, s0, 0
  000111ac:	ffc2a083	lw	ra, -4(t0)
  000111b0:	ff82a403	lw	s0, -8(t0)
  000111b4:	00028113	addi	sp, t0, 0
  000111b8:	00008067	ret

000111bc <new_array__i32__i32>:
  000111bc:	fe010113	addi	sp, sp, -32
  000111c0:	00112e23	sw	ra, 28(sp)
  000111c4:	00812c23	sw	s0, 24(sp)
  000111c8:	02010413	addi	s0, sp, 32
  000111cc:	fea42a23	sw	a0, -12(s0)
  000111d0:	feb42823	sw	a1, -16(s0)
  000111d4:	fe042623	sw	zero, -20(s0)
  000111d8:	fe042423	sw	zero, -24(s0)
  000111dc:	00400293	addi	t0, zero, 4
  000111e0:	ffc10113	addi	sp, sp, -4
  000111e4:	00512023	sw	t0, 0(sp)
  000111e8:	ff042283	lw	t0, -16(s0)
  000111ec:	ffc10113	addi	sp, sp, -4
  000111f0:	00512023	sw	t0, 0(sp)
  000111f4:	00012303	lw	t1, 0(sp)
  000111f8:	00412283	lw	t0, 4(sp)
  000111fc:	00810113	addi	sp, sp, 8
  00011200:	006282b3	add	t0, t0, t1
  00011204:	ffc10113	addi	sp, sp, -4
  00011208:	00512023	sw	t0, 0(sp)
  0001120c:	00012283	lw	t0, 0(sp)
  00011210:	00410113	addi	sp, sp, 4
  00011214:	fe542623	sw	t0, -20(s0)
  00011218:	fec42283	lw	t0, -20(s0)
  0001121c:	ffc10113	addi	sp, sp, -4
  00011220:	00512023	sw	t0, 0(sp)
  00011224:	00400293	addi	t0, zero, 4
  00011228:	ffc10113	addi	sp, sp, -4
  0001122c:	00512023	sw	t0, 0(sp)
  00011230:	00012303	lw	t1, 0(sp)
  00011234:	00412283	lw	t0, 4(sp)
  00011238:	00810113	addi	sp, sp, 8
  0001123c:	0062a2b3	slt	t0, t0, t1
  00011240:	ffc10113	addi	sp, sp, -4
  00011244:	00512023	sw	t0, 0(sp)
  00011248:	00012283	lw	t0, 0(sp)
  0001124c:	00410113	addi	sp, sp, 4
  00011250:	00028e63	beq	t0, zero, 0x1126c
  00011254:	00400293	addi	t0, zero, 4
  00011258:	ffc10113	addi	sp, sp, -4
  0001125c:	00512023	sw	t0, 0(sp)
  00011260:	00012283	lw	t0, 0(sp)
  00011264:	00410113	addi	sp, sp, 4
  00011268:	fe542623	sw	t0, -20(s0)

0001126c <.L_f7_pc10>:
  0001126c:	fec42283	lw	t0, -20(s0)
  00011270:	ffc10113	addi	sp, sp, -4
  00011274:	00512023	sw	t0, 0(sp)
  00011278:	00012503	lw	a0, 0(sp)
  0001127c:	00000097	auipc	ra, 0x0	# 0x1127c
  00011280:	840080e7	jalr	ra, -1984(ra)
  00011284:	00410113	addi	sp, sp, 4
  00011288:	ffc10113	addi	sp, sp, -4
  0001128c:	00a12023	sw	a0, 0(sp)
  00011290:	00012283	lw	t0, 0(sp)
  00011294:	00410113	addi	sp, sp, 4
  00011298:	fe542423	sw	t0, -24(s0)
  0001129c:	fe842283	lw	t0, -24(s0)
  000112a0:	ffc10113	addi	sp, sp, -4
  000112a4:	00512023	sw	t0, 0(sp)
  000112a8:	ff442283	lw	t0, -12(s0)
  000112ac:	ffc10113	addi	sp, sp, -4
  000112b0:	00512023	sw	t0, 0(sp)
  000112b4:	00012283	lw	t0, 0(sp)
  000112b8:	00410113	addi	sp, sp, 4
  000112bc:	ffc10113	addi	sp, sp, -4
  000112c0:	00512023	sw	t0, 0(sp)
  000112c4:	00412503	lw	a0, 4(sp)
  000112c8:	00012583	lw	a1, 0(sp)
  000112cc:	fffff097	auipc	ra, 0xfffff	# 0x102cc
  000112d0:	ddc080e7	jalr	ra, -548(ra)
  000112d4:	00810113	addi	sp, sp, 8
  000112d8:	ffc10113	addi	sp, sp, -4
  000112dc:	00a12023	sw	a0, 0(sp)
  000112e0:	00410113	addi	sp, sp, 4
  000112e4:	fe842283	lw	t0, -24(s0)
  000112e8:	ffc10113	addi	sp, sp, -4
  000112ec:	00512023	sw	t0, 0(sp)
  000112f0:	00012283	lw	t0, 0(sp)
  000112f4:	00410113	addi	sp, sp, 4
  000112f8:	00028513	addi	a0, t0, 0
  000112fc:	00040293	addi	t0, s0, 0
  00011300:	ffc2a083	lw	ra, -4(t0)
  00011304:	ff82a403	lw	s0, -8(t0)
  00011308:	00028113	addi	sp, t0, 0
  0001130c:	00008067	ret
  00011310:	00040293	addi	t0, s0, 0
  00011314:	ffc2a083	lw	ra, -4(t0)
  00011318:	ff82a403	lw	s0, -8(t0)
  0001131c:	00028113	addi	sp, t0, 0
  00011320:	00008067	ret

00011324 <U8Array__i32>:
  00011324:	fe010113	addi	sp, sp, -32
  00011328:	00112e23	sw	ra, 28(sp)
  0001132c:	00812c23	sw	s0, 24(sp)
  00011330:	02010413	addi	s0, sp, 32
  00011334:	fea42a23	sw	a0, -12(s0)
  00011338:	ff442283	lw	t0, -12(s0)
  0001133c:	ffc10113	addi	sp, sp, -4
  00011340:	00512023	sw	t0, 0(sp)
  00011344:	ff442283	lw	t0, -12(s0)
  00011348:	ffc10113	addi	sp, sp, -4
  0001134c:	00512023	sw	t0, 0(sp)
  00011350:	00412503	lw	a0, 4(sp)
  00011354:	00012583	lw	a1, 0(sp)
  00011358:	00000097	auipc	ra, 0x0	# 0x11358
  0001135c:	e64080e7	jalr	ra, -412(ra)
  00011360:	00810113	addi	sp, sp, 8
  00011364:	ffc10113	addi	sp, sp, -4
  00011368:	00a12023	sw	a0, 0(sp)
  0001136c:	00012283	lw	t0, 0(sp)
  00011370:	00410113	addi	sp, sp, 4
  00011374:	00028513	addi	a0, t0, 0
  00011378:	00040293	addi	t0, s0, 0
  0001137c:	ffc2a083	lw	ra, -4(t0)
  00011380:	ff82a403	lw	s0, -8(t0)
  00011384:	00028113	addi	sp, t0, 0
  00011388:	00008067	ret
  0001138c:	00040293	addi	t0, s0, 0
  00011390:	ffc2a083	lw	ra, -4(t0)
  00011394:	ff82a403	lw	s0, -8(t0)
  00011398:	00028113	addi	sp, t0, 0
  0001139c:	00008067	ret

000113a0 <U16Array__i32>:
  000113a0:	fe010113	addi	sp, sp, -32
  000113a4:	00112e23	sw	ra, 28(sp)
  000113a8:	00812c23	sw	s0, 24(sp)
  000113ac:	02010413	addi	s0, sp, 32
  000113b0:	fea42a23	sw	a0, -12(s0)
  000113b4:	ff442283	lw	t0, -12(s0)
  000113b8:	ffc10113	addi	sp, sp, -4
  000113bc:	00512023	sw	t0, 0(sp)
  000113c0:	ff442283	lw	t0, -12(s0)
  000113c4:	ffc10113	addi	sp, sp, -4
  000113c8:	00512023	sw	t0, 0(sp)
  000113cc:	00200293	addi	t0, zero, 2
  000113d0:	ffc10113	addi	sp, sp, -4
  000113d4:	00512023	sw	t0, 0(sp)
  000113d8:	00012303	lw	t1, 0(sp)
  000113dc:	00412283	lw	t0, 4(sp)
  000113e0:	00810113	addi	sp, sp, 8
  000113e4:	026282b3	mul	t0, t0, t1
  000113e8:	ffc10113	addi	sp, sp, -4
  000113ec:	00512023	sw	t0, 0(sp)
  000113f0:	00412503	lw	a0, 4(sp)
  000113f4:	00012583	lw	a1, 0(sp)
  000113f8:	00000097	auipc	ra, 0x0	# 0x113f8
  000113fc:	dc4080e7	jalr	ra, -572(ra)
  00011400:	00810113	addi	sp, sp, 8
  00011404:	ffc10113	addi	sp, sp, -4
  00011408:	00a12023	sw	a0, 0(sp)
  0001140c:	00012283	lw	t0, 0(sp)
  00011410:	00410113	addi	sp, sp, 4
  00011414:	00028513	addi	a0, t0, 0
  00011418:	00040293	addi	t0, s0, 0
  0001141c:	ffc2a083	lw	ra, -4(t0)
  00011420:	ff82a403	lw	s0, -8(t0)
  00011424:	00028113	addi	sp, t0, 0
  00011428:	00008067	ret
  0001142c:	00040293	addi	t0, s0, 0
  00011430:	ffc2a083	lw	ra, -4(t0)
  00011434:	ff82a403	lw	s0, -8(t0)
  00011438:	00028113	addi	sp, t0, 0
  0001143c:	00008067	ret

00011440 <U32Array__i32>:
  00011440:	fe010113	addi	sp, sp, -32
  00011444:	00112e23	sw	ra, 28(sp)
  00011448:	00812c23	sw	s0, 24(sp)
  0001144c:	02010413	addi	s0, sp, 32
  00011450:	fea42a23	sw	a0, -12(s0)
  00011454:	ff442283	lw	t0, -12(s0)
  00011458:	ffc10113	addi	sp, sp, -4
  0001145c:	00512023	sw	t0, 0(sp)
  00011460:	ff442283	lw	t0, -12(s0)
  00011464:	ffc10113	addi	sp, sp, -4
  00011468:	00512023	sw	t0, 0(sp)
  0001146c:	00400293	addi	t0, zero, 4
  00011470:	ffc10113	addi	sp, sp, -4
  00011474:	00512023	sw	t0, 0(sp)
  00011478:	00012303	lw	t1, 0(sp)
  0001147c:	00412283	lw	t0, 4(sp)
  00011480:	00810113	addi	sp, sp, 8
  00011484:	026282b3	mul	t0, t0, t1
  00011488:	ffc10113	addi	sp, sp, -4
  0001148c:	00512023	sw	t0, 0(sp)
  00011490:	00412503	lw	a0, 4(sp)
  00011494:	00012583	lw	a1, 0(sp)
  00011498:	00000097	auipc	ra, 0x0	# 0x11498
  0001149c:	d24080e7	jalr	ra, -732(ra)
  000114a0:	00810113	addi	sp, sp, 8
  000114a4:	ffc10113	addi	sp, sp, -4
  000114a8:	00a12023	sw	a0, 0(sp)
  000114ac:	00012283	lw	t0, 0(sp)
  000114b0:	00410113	addi	sp, sp, 4
  000114b4:	00028513	addi	a0, t0, 0
  000114b8:	00040293	addi	t0, s0, 0
  000114bc:	ffc2a083	lw	ra, -4(t0)
  000114c0:	ff82a403	lw	s0, -8(t0)
  000114c4:	00028113	addi	sp, t0, 0
  000114c8:	00008067	ret
  000114cc:	00040293	addi	t0, s0, 0
  000114d0:	ffc2a083	lw	ra, -4(t0)
  000114d4:	ff82a403	lw	s0, -8(t0)
  000114d8:	00028113	addi	sp, t0, 0
  000114dc:	00008067	ret

000114e0 <I8Array__i32>:
  000114e0:	fe010113	addi	sp, sp, -32
  000114e4:	00112e23	sw	ra, 28(sp)
  000114e8:	00812c23	sw	s0, 24(sp)
  000114ec:	02010413	addi	s0, sp, 32
  000114f0:	fea42a23	sw	a0, -12(s0)
  000114f4:	ff442283	lw	t0, -12(s0)
  000114f8:	ffc10113	addi	sp, sp, -4
  000114fc:	00512023	sw	t0, 0(sp)
  00011500:	ff442283	lw	t0, -12(s0)
  00011504:	ffc10113	addi	sp, sp, -4
  00011508:	00512023	sw	t0, 0(sp)
  0001150c:	00412503	lw	a0, 4(sp)
  00011510:	00012583	lw	a1, 0(sp)
  00011514:	00000097	auipc	ra, 0x0	# 0x11514
  00011518:	ca8080e7	jalr	ra, -856(ra)
  0001151c:	00810113	addi	sp, sp, 8
  00011520:	ffc10113	addi	sp, sp, -4
  00011524:	00a12023	sw	a0, 0(sp)
  00011528:	00012283	lw	t0, 0(sp)
  0001152c:	00410113	addi	sp, sp, 4
  00011530:	00028513	addi	a0, t0, 0
  00011534:	00040293	addi	t0, s0, 0
  00011538:	ffc2a083	lw	ra, -4(t0)
  0001153c:	ff82a403	lw	s0, -8(t0)
  00011540:	00028113	addi	sp, t0, 0
  00011544:	00008067	ret
  00011548:	00040293	addi	t0, s0, 0
  0001154c:	ffc2a083	lw	ra, -4(t0)
  00011550:	ff82a403	lw	s0, -8(t0)
  00011554:	00028113	addi	sp, t0, 0
  00011558:	00008067	ret

0001155c <I16Array__i32>:
  0001155c:	fe010113	addi	sp, sp, -32
  00011560:	00112e23	sw	ra, 28(sp)
  00011564:	00812c23	sw	s0, 24(sp)
  00011568:	02010413	addi	s0, sp, 32
  0001156c:	fea42a23	sw	a0, -12(s0)
  00011570:	ff442283	lw	t0, -12(s0)
  00011574:	ffc10113	addi	sp, sp, -4
  00011578:	00512023	sw	t0, 0(sp)
  0001157c:	ff442283	lw	t0, -12(s0)
  00011580:	ffc10113	addi	sp, sp, -4
  00011584:	00512023	sw	t0, 0(sp)
  00011588:	00200293	addi	t0, zero, 2
  0001158c:	ffc10113	addi	sp, sp, -4
  00011590:	00512023	sw	t0, 0(sp)
  00011594:	00012303	lw	t1, 0(sp)
  00011598:	00412283	lw	t0, 4(sp)
  0001159c:	00810113	addi	sp, sp, 8
  000115a0:	026282b3	mul	t0, t0, t1
  000115a4:	ffc10113	addi	sp, sp, -4
  000115a8:	00512023	sw	t0, 0(sp)
  000115ac:	00412503	lw	a0, 4(sp)
  000115b0:	00012583	lw	a1, 0(sp)
  000115b4:	00000097	auipc	ra, 0x0	# 0x115b4
  000115b8:	c08080e7	jalr	ra, -1016(ra)
  000115bc:	00810113	addi	sp, sp, 8
  000115c0:	ffc10113	addi	sp, sp, -4
  000115c4:	00a12023	sw	a0, 0(sp)
  000115c8:	00012283	lw	t0, 0(sp)
  000115cc:	00410113	addi	sp, sp, 4
  000115d0:	00028513	addi	a0, t0, 0
  000115d4:	00040293	addi	t0, s0, 0
  000115d8:	ffc2a083	lw	ra, -4(t0)
  000115dc:	ff82a403	lw	s0, -8(t0)
  000115e0:	00028113	addi	sp, t0, 0
  000115e4:	00008067	ret
  000115e8:	00040293	addi	t0, s0, 0
  000115ec:	ffc2a083	lw	ra, -4(t0)
  000115f0:	ff82a403	lw	s0, -8(t0)
  000115f4:	00028113	addi	sp, t0, 0
  000115f8:	00008067	ret

000115fc <I32Array__i32>:
  000115fc:	fe010113	addi	sp, sp, -32
  00011600:	00112e23	sw	ra, 28(sp)
  00011604:	00812c23	sw	s0, 24(sp)
  00011608:	02010413	addi	s0, sp, 32
  0001160c:	fea42a23	sw	a0, -12(s0)
  00011610:	ff442283	lw	t0, -12(s0)
  00011614:	ffc10113	addi	sp, sp, -4
  00011618:	00512023	sw	t0, 0(sp)
  0001161c:	ff442283	lw	t0, -12(s0)
  00011620:	ffc10113	addi	sp, sp, -4
  00011624:	00512023	sw	t0, 0(sp)
  00011628:	00400293	addi	t0, zero, 4
  0001162c:	ffc10113	addi	sp, sp, -4
  00011630:	00512023	sw	t0, 0(sp)
  00011634:	00012303	lw	t1, 0(sp)
  00011638:	00412283	lw	t0, 4(sp)
  0001163c:	00810113	addi	sp, sp, 8
  00011640:	026282b3	mul	t0, t0, t1
  00011644:	ffc10113	addi	sp, sp, -4
  00011648:	00512023	sw	t0, 0(sp)
  0001164c:	00412503	lw	a0, 4(sp)
  00011650:	00012583	lw	a1, 0(sp)
  00011654:	00000097	auipc	ra, 0x0	# 0x11654
  00011658:	b68080e7	jalr	ra, -1176(ra)
  0001165c:	00810113	addi	sp, sp, 8
  00011660:	ffc10113	addi	sp, sp, -4
  00011664:	00a12023	sw	a0, 0(sp)
  00011668:	00012283	lw	t0, 0(sp)
  0001166c:	00410113	addi	sp, sp, 4
  00011670:	00028513	addi	a0, t0, 0
  00011674:	00040293	addi	t0, s0, 0
  00011678:	ffc2a083	lw	ra, -4(t0)
  0001167c:	ff82a403	lw	s0, -8(t0)
  00011680:	00028113	addi	sp, t0, 0
  00011684:	00008067	ret
  00011688:	00040293	addi	t0, s0, 0
  0001168c:	ffc2a083	lw	ra, -4(t0)
  00011690:	ff82a403	lw	s0, -8(t0)
  00011694:	00028113	addi	sp, t0, 0
  00011698:	00008067	ret

0001169c <StringArray__i32>:
  0001169c:	fe010113	addi	sp, sp, -32
  000116a0:	00112e23	sw	ra, 28(sp)
  000116a4:	00812c23	sw	s0, 24(sp)
  000116a8:	02010413	addi	s0, sp, 32
  000116ac:	fea42a23	sw	a0, -12(s0)
  000116b0:	ff442283	lw	t0, -12(s0)
  000116b4:	ffc10113	addi	sp, sp, -4
  000116b8:	00512023	sw	t0, 0(sp)
  000116bc:	ff442283	lw	t0, -12(s0)
  000116c0:	ffc10113	addi	sp, sp, -4
  000116c4:	00512023	sw	t0, 0(sp)
  000116c8:	00400293	addi	t0, zero, 4
  000116cc:	ffc10113	addi	sp, sp, -4
  000116d0:	00512023	sw	t0, 0(sp)
  000116d4:	00012303	lw	t1, 0(sp)
  000116d8:	00412283	lw	t0, 4(sp)
  000116dc:	00810113	addi	sp, sp, 8
  000116e0:	026282b3	mul	t0, t0, t1
  000116e4:	ffc10113	addi	sp, sp, -4
  000116e8:	00512023	sw	t0, 0(sp)
  000116ec:	00412503	lw	a0, 4(sp)
  000116f0:	00012583	lw	a1, 0(sp)
  000116f4:	00000097	auipc	ra, 0x0	# 0x116f4
  000116f8:	ac8080e7	jalr	ra, -1336(ra)
  000116fc:	00810113	addi	sp, sp, 8
  00011700:	ffc10113	addi	sp, sp, -4
  00011704:	00a12023	sw	a0, 0(sp)
  00011708:	00012283	lw	t0, 0(sp)
  0001170c:	00410113	addi	sp, sp, 4
  00011710:	00028513	addi	a0, t0, 0
  00011714:	00040293	addi	t0, s0, 0
  00011718:	ffc2a083	lw	ra, -4(t0)
  0001171c:	ff82a403	lw	s0, -8(t0)
  00011720:	00028113	addi	sp, t0, 0
  00011724:	00008067	ret
  00011728:	00040293	addi	t0, s0, 0
  0001172c:	ffc2a083	lw	ra, -4(t0)
  00011730:	ff82a403	lw	s0, -8(t0)
  00011734:	00028113	addi	sp, t0, 0
  00011738:	00008067	ret

0001173c <len__U8Array>:
  0001173c:	fe010113	addi	sp, sp, -32
  00011740:	00112e23	sw	ra, 28(sp)
  00011744:	00812c23	sw	s0, 24(sp)
  00011748:	02010413	addi	s0, sp, 32
  0001174c:	fea42a23	sw	a0, -12(s0)
  00011750:	ff442283	lw	t0, -12(s0)
  00011754:	ffc10113	addi	sp, sp, -4
  00011758:	00512023	sw	t0, 0(sp)
  0001175c:	00012283	lw	t0, 0(sp)
  00011760:	00410113	addi	sp, sp, 4
  00011764:	ffc10113	addi	sp, sp, -4
  00011768:	00512023	sw	t0, 0(sp)
  0001176c:	00000293	addi	t0, zero, 0
  00011770:	ffc10113	addi	sp, sp, -4
  00011774:	00512023	sw	t0, 0(sp)
  00011778:	00012303	lw	t1, 0(sp)
  0001177c:	00412283	lw	t0, 4(sp)
  00011780:	00810113	addi	sp, sp, 8
  00011784:	406282b3	sub	t0, t0, t1
  00011788:	0012b293	sltiu	t0, t0, 1
  0001178c:	ffc10113	addi	sp, sp, -4
  00011790:	00512023	sw	t0, 0(sp)
  00011794:	00012283	lw	t0, 0(sp)
  00011798:	00410113	addi	sp, sp, 4
  0001179c:	02028863	beq	t0, zero, 0x117cc
  000117a0:	00000293	addi	t0, zero, 0
  000117a4:	ffc10113	addi	sp, sp, -4
  000117a8:	00512023	sw	t0, 0(sp)
  000117ac:	00012283	lw	t0, 0(sp)
  000117b0:	00410113	addi	sp, sp, 4
  000117b4:	00028513	addi	a0, t0, 0
  000117b8:	00040293	addi	t0, s0, 0
  000117bc:	ffc2a083	lw	ra, -4(t0)
  000117c0:	ff82a403	lw	s0, -8(t0)
  000117c4:	00028113	addi	sp, t0, 0
  000117c8:	00008067	ret

000117cc <.L_f15_pc7>:
  000117cc:	ff442283	lw	t0, -12(s0)
  000117d0:	ffc10113	addi	sp, sp, -4
  000117d4:	00512023	sw	t0, 0(sp)
  000117d8:	00012283	lw	t0, 0(sp)
  000117dc:	00410113	addi	sp, sp, 4
  000117e0:	ffc10113	addi	sp, sp, -4
  000117e4:	00512023	sw	t0, 0(sp)
  000117e8:	00012503	lw	a0, 0(sp)
  000117ec:	fffff097	auipc	ra, 0xfffff	# 0x107ec
  000117f0:	8a4080e7	jalr	ra, -1884(ra)
  000117f4:	00410113	addi	sp, sp, 4
  000117f8:	ffc10113	addi	sp, sp, -4
  000117fc:	00a12023	sw	a0, 0(sp)
  00011800:	00012283	lw	t0, 0(sp)
  00011804:	00410113	addi	sp, sp, 4
  00011808:	ffc10113	addi	sp, sp, -4
  0001180c:	00512023	sw	t0, 0(sp)
  00011810:	00012283	lw	t0, 0(sp)
  00011814:	00410113	addi	sp, sp, 4
  00011818:	00028513	addi	a0, t0, 0
  0001181c:	00040293	addi	t0, s0, 0
  00011820:	ffc2a083	lw	ra, -4(t0)
  00011824:	ff82a403	lw	s0, -8(t0)
  00011828:	00028113	addi	sp, t0, 0
  0001182c:	00008067	ret
  00011830:	00040293	addi	t0, s0, 0
  00011834:	ffc2a083	lw	ra, -4(t0)
  00011838:	ff82a403	lw	s0, -8(t0)
  0001183c:	00028113	addi	sp, t0, 0
  00011840:	00008067	ret

00011844 <len__U16Array>:
  00011844:	fe010113	addi	sp, sp, -32
  00011848:	00112e23	sw	ra, 28(sp)
  0001184c:	00812c23	sw	s0, 24(sp)
  00011850:	02010413	addi	s0, sp, 32
  00011854:	fea42a23	sw	a0, -12(s0)
  00011858:	ff442283	lw	t0, -12(s0)
  0001185c:	ffc10113	addi	sp, sp, -4
  00011860:	00512023	sw	t0, 0(sp)
  00011864:	00012283	lw	t0, 0(sp)
  00011868:	00410113	addi	sp, sp, 4
  0001186c:	ffc10113	addi	sp, sp, -4
  00011870:	00512023	sw	t0, 0(sp)
  00011874:	00000293	addi	t0, zero, 0
  00011878:	ffc10113	addi	sp, sp, -4
  0001187c:	00512023	sw	t0, 0(sp)
  00011880:	00012303	lw	t1, 0(sp)
  00011884:	00412283	lw	t0, 4(sp)
  00011888:	00810113	addi	sp, sp, 8
  0001188c:	406282b3	sub	t0, t0, t1
  00011890:	0012b293	sltiu	t0, t0, 1
  00011894:	ffc10113	addi	sp, sp, -4
  00011898:	00512023	sw	t0, 0(sp)
  0001189c:	00012283	lw	t0, 0(sp)
  000118a0:	00410113	addi	sp, sp, 4
  000118a4:	02028863	beq	t0, zero, 0x118d4
  000118a8:	00000293	addi	t0, zero, 0
  000118ac:	ffc10113	addi	sp, sp, -4
  000118b0:	00512023	sw	t0, 0(sp)
  000118b4:	00012283	lw	t0, 0(sp)
  000118b8:	00410113	addi	sp, sp, 4
  000118bc:	00028513	addi	a0, t0, 0
  000118c0:	00040293	addi	t0, s0, 0
  000118c4:	ffc2a083	lw	ra, -4(t0)
  000118c8:	ff82a403	lw	s0, -8(t0)
  000118cc:	00028113	addi	sp, t0, 0
  000118d0:	00008067	ret

000118d4 <.L_f16_pc7>:
  000118d4:	ff442283	lw	t0, -12(s0)
  000118d8:	ffc10113	addi	sp, sp, -4
  000118dc:	00512023	sw	t0, 0(sp)
  000118e0:	00012283	lw	t0, 0(sp)
  000118e4:	00410113	addi	sp, sp, 4
  000118e8:	ffc10113	addi	sp, sp, -4
  000118ec:	00512023	sw	t0, 0(sp)
  000118f0:	00012503	lw	a0, 0(sp)
  000118f4:	ffffe097	auipc	ra, 0xffffe	# 0xf8f4
  000118f8:	79c080e7	jalr	ra, 1948(ra)
  000118fc:	00410113	addi	sp, sp, 4
  00011900:	ffc10113	addi	sp, sp, -4
  00011904:	00a12023	sw	a0, 0(sp)
  00011908:	00012283	lw	t0, 0(sp)
  0001190c:	00410113	addi	sp, sp, 4
  00011910:	ffc10113	addi	sp, sp, -4
  00011914:	00512023	sw	t0, 0(sp)
  00011918:	00012283	lw	t0, 0(sp)
  0001191c:	00410113	addi	sp, sp, 4
  00011920:	00028513	addi	a0, t0, 0
  00011924:	00040293	addi	t0, s0, 0
  00011928:	ffc2a083	lw	ra, -4(t0)
  0001192c:	ff82a403	lw	s0, -8(t0)
  00011930:	00028113	addi	sp, t0, 0
  00011934:	00008067	ret
  00011938:	00040293	addi	t0, s0, 0
  0001193c:	ffc2a083	lw	ra, -4(t0)
  00011940:	ff82a403	lw	s0, -8(t0)
  00011944:	00028113	addi	sp, t0, 0
  00011948:	00008067	ret

0001194c <len__U32Array>:
  0001194c:	fe010113	addi	sp, sp, -32
  00011950:	00112e23	sw	ra, 28(sp)
  00011954:	00812c23	sw	s0, 24(sp)
  00011958:	02010413	addi	s0, sp, 32
  0001195c:	fea42a23	sw	a0, -12(s0)
  00011960:	ff442283	lw	t0, -12(s0)
  00011964:	ffc10113	addi	sp, sp, -4
  00011968:	00512023	sw	t0, 0(sp)
  0001196c:	00012283	lw	t0, 0(sp)
  00011970:	00410113	addi	sp, sp, 4
  00011974:	ffc10113	addi	sp, sp, -4
  00011978:	00512023	sw	t0, 0(sp)
  0001197c:	00000293	addi	t0, zero, 0
  00011980:	ffc10113	addi	sp, sp, -4
  00011984:	00512023	sw	t0, 0(sp)
  00011988:	00012303	lw	t1, 0(sp)
  0001198c:	00412283	lw	t0, 4(sp)
  00011990:	00810113	addi	sp, sp, 8
  00011994:	406282b3	sub	t0, t0, t1
  00011998:	0012b293	sltiu	t0, t0, 1
  0001199c:	ffc10113	addi	sp, sp, -4
  000119a0:	00512023	sw	t0, 0(sp)
  000119a4:	00012283	lw	t0, 0(sp)
  000119a8:	00410113	addi	sp, sp, 4
  000119ac:	02028863	beq	t0, zero, 0x119dc
  000119b0:	00000293	addi	t0, zero, 0
  000119b4:	ffc10113	addi	sp, sp, -4
  000119b8:	00512023	sw	t0, 0(sp)
  000119bc:	00012283	lw	t0, 0(sp)
  000119c0:	00410113	addi	sp, sp, 4
  000119c4:	00028513	addi	a0, t0, 0
  000119c8:	00040293	addi	t0, s0, 0
  000119cc:	ffc2a083	lw	ra, -4(t0)
  000119d0:	ff82a403	lw	s0, -8(t0)
  000119d4:	00028113	addi	sp, t0, 0
  000119d8:	00008067	ret

000119dc <.L_f17_pc7>:
  000119dc:	ff442283	lw	t0, -12(s0)
  000119e0:	ffc10113	addi	sp, sp, -4
  000119e4:	00512023	sw	t0, 0(sp)
  000119e8:	00012283	lw	t0, 0(sp)
  000119ec:	00410113	addi	sp, sp, 4
  000119f0:	ffc10113	addi	sp, sp, -4
  000119f4:	00512023	sw	t0, 0(sp)
  000119f8:	00012503	lw	a0, 0(sp)
  000119fc:	ffffe097	auipc	ra, 0xffffe	# 0xf9fc
  00011a00:	694080e7	jalr	ra, 1684(ra)
  00011a04:	00410113	addi	sp, sp, 4
  00011a08:	ffc10113	addi	sp, sp, -4
  00011a0c:	00a12023	sw	a0, 0(sp)
  00011a10:	00012283	lw	t0, 0(sp)
  00011a14:	00410113	addi	sp, sp, 4
  00011a18:	ffc10113	addi	sp, sp, -4
  00011a1c:	00512023	sw	t0, 0(sp)
  00011a20:	00012283	lw	t0, 0(sp)
  00011a24:	00410113	addi	sp, sp, 4
  00011a28:	00028513	addi	a0, t0, 0
  00011a2c:	00040293	addi	t0, s0, 0
  00011a30:	ffc2a083	lw	ra, -4(t0)
  00011a34:	ff82a403	lw	s0, -8(t0)
  00011a38:	00028113	addi	sp, t0, 0
  00011a3c:	00008067	ret
  00011a40:	00040293	addi	t0, s0, 0
  00011a44:	ffc2a083	lw	ra, -4(t0)
  00011a48:	ff82a403	lw	s0, -8(t0)
  00011a4c:	00028113	addi	sp, t0, 0
  00011a50:	00008067	ret

00011a54 <len__I8Array>:
  00011a54:	fe010113	addi	sp, sp, -32
  00011a58:	00112e23	sw	ra, 28(sp)
  00011a5c:	00812c23	sw	s0, 24(sp)
  00011a60:	02010413	addi	s0, sp, 32
  00011a64:	fea42a23	sw	a0, -12(s0)
  00011a68:	ff442283	lw	t0, -12(s0)
  00011a6c:	ffc10113	addi	sp, sp, -4
  00011a70:	00512023	sw	t0, 0(sp)
  00011a74:	00012283	lw	t0, 0(sp)
  00011a78:	00410113	addi	sp, sp, 4
  00011a7c:	ffc10113	addi	sp, sp, -4
  00011a80:	00512023	sw	t0, 0(sp)
  00011a84:	00000293	addi	t0, zero, 0
  00011a88:	ffc10113	addi	sp, sp, -4
  00011a8c:	00512023	sw	t0, 0(sp)
  00011a90:	00012303	lw	t1, 0(sp)
  00011a94:	00412283	lw	t0, 4(sp)
  00011a98:	00810113	addi	sp, sp, 8
  00011a9c:	406282b3	sub	t0, t0, t1
  00011aa0:	0012b293	sltiu	t0, t0, 1
  00011aa4:	ffc10113	addi	sp, sp, -4
  00011aa8:	00512023	sw	t0, 0(sp)
  00011aac:	00012283	lw	t0, 0(sp)
  00011ab0:	00410113	addi	sp, sp, 4
  00011ab4:	02028863	beq	t0, zero, 0x11ae4
  00011ab8:	00000293	addi	t0, zero, 0
  00011abc:	ffc10113	addi	sp, sp, -4
  00011ac0:	00512023	sw	t0, 0(sp)
  00011ac4:	00012283	lw	t0, 0(sp)
  00011ac8:	00410113	addi	sp, sp, 4
  00011acc:	00028513	addi	a0, t0, 0
  00011ad0:	00040293	addi	t0, s0, 0
  00011ad4:	ffc2a083	lw	ra, -4(t0)
  00011ad8:	ff82a403	lw	s0, -8(t0)
  00011adc:	00028113	addi	sp, t0, 0
  00011ae0:	00008067	ret

00011ae4 <.L_f18_pc7>:
  00011ae4:	ff442283	lw	t0, -12(s0)
  00011ae8:	ffc10113	addi	sp, sp, -4
  00011aec:	00512023	sw	t0, 0(sp)
  00011af0:	00012283	lw	t0, 0(sp)
  00011af4:	00410113	addi	sp, sp, 4
  00011af8:	ffc10113	addi	sp, sp, -4
  00011afc:	00512023	sw	t0, 0(sp)
  00011b00:	00012503	lw	a0, 0(sp)
  00011b04:	ffffe097	auipc	ra, 0xffffe	# 0xfb04
  00011b08:	58c080e7	jalr	ra, 1420(ra)
  00011b0c:	00410113	addi	sp, sp, 4
  00011b10:	ffc10113	addi	sp, sp, -4
  00011b14:	00a12023	sw	a0, 0(sp)
  00011b18:	00012283	lw	t0, 0(sp)
  00011b1c:	00410113	addi	sp, sp, 4
  00011b20:	ffc10113	addi	sp, sp, -4
  00011b24:	00512023	sw	t0, 0(sp)
  00011b28:	00012283	lw	t0, 0(sp)
  00011b2c:	00410113	addi	sp, sp, 4
  00011b30:	00028513	addi	a0, t0, 0
  00011b34:	00040293	addi	t0, s0, 0
  00011b38:	ffc2a083	lw	ra, -4(t0)
  00011b3c:	ff82a403	lw	s0, -8(t0)
  00011b40:	00028113	addi	sp, t0, 0
  00011b44:	00008067	ret
  00011b48:	00040293	addi	t0, s0, 0
  00011b4c:	ffc2a083	lw	ra, -4(t0)
  00011b50:	ff82a403	lw	s0, -8(t0)
  00011b54:	00028113	addi	sp, t0, 0
  00011b58:	00008067	ret

00011b5c <len__I16Array>:
  00011b5c:	fe010113	addi	sp, sp, -32
  00011b60:	00112e23	sw	ra, 28(sp)
  00011b64:	00812c23	sw	s0, 24(sp)
  00011b68:	02010413	addi	s0, sp, 32
  00011b6c:	fea42a23	sw	a0, -12(s0)
  00011b70:	ff442283	lw	t0, -12(s0)
  00011b74:	ffc10113	addi	sp, sp, -4
  00011b78:	00512023	sw	t0, 0(sp)
  00011b7c:	00012283	lw	t0, 0(sp)
  00011b80:	00410113	addi	sp, sp, 4
  00011b84:	ffc10113	addi	sp, sp, -4
  00011b88:	00512023	sw	t0, 0(sp)
  00011b8c:	00000293	addi	t0, zero, 0
  00011b90:	ffc10113	addi	sp, sp, -4
  00011b94:	00512023	sw	t0, 0(sp)
  00011b98:	00012303	lw	t1, 0(sp)
  00011b9c:	00412283	lw	t0, 4(sp)
  00011ba0:	00810113	addi	sp, sp, 8
  00011ba4:	406282b3	sub	t0, t0, t1
  00011ba8:	0012b293	sltiu	t0, t0, 1
  00011bac:	ffc10113	addi	sp, sp, -4
  00011bb0:	00512023	sw	t0, 0(sp)
  00011bb4:	00012283	lw	t0, 0(sp)
  00011bb8:	00410113	addi	sp, sp, 4
  00011bbc:	02028863	beq	t0, zero, 0x11bec
  00011bc0:	00000293	addi	t0, zero, 0
  00011bc4:	ffc10113	addi	sp, sp, -4
  00011bc8:	00512023	sw	t0, 0(sp)
  00011bcc:	00012283	lw	t0, 0(sp)
  00011bd0:	00410113	addi	sp, sp, 4
  00011bd4:	00028513	addi	a0, t0, 0
  00011bd8:	00040293	addi	t0, s0, 0
  00011bdc:	ffc2a083	lw	ra, -4(t0)
  00011be0:	ff82a403	lw	s0, -8(t0)
  00011be4:	00028113	addi	sp, t0, 0
  00011be8:	00008067	ret

00011bec <.L_f19_pc7>:
  00011bec:	ff442283	lw	t0, -12(s0)
  00011bf0:	ffc10113	addi	sp, sp, -4
  00011bf4:	00512023	sw	t0, 0(sp)
  00011bf8:	00012283	lw	t0, 0(sp)
  00011bfc:	00410113	addi	sp, sp, 4
  00011c00:	ffc10113	addi	sp, sp, -4
  00011c04:	00512023	sw	t0, 0(sp)
  00011c08:	00012503	lw	a0, 0(sp)
  00011c0c:	ffffe097	auipc	ra, 0xffffe	# 0xfc0c
  00011c10:	484080e7	jalr	ra, 1156(ra)
  00011c14:	00410113	addi	sp, sp, 4
  00011c18:	ffc10113	addi	sp, sp, -4
  00011c1c:	00a12023	sw	a0, 0(sp)
  00011c20:	00012283	lw	t0, 0(sp)
  00011c24:	00410113	addi	sp, sp, 4
  00011c28:	ffc10113	addi	sp, sp, -4
  00011c2c:	00512023	sw	t0, 0(sp)
  00011c30:	00012283	lw	t0, 0(sp)
  00011c34:	00410113	addi	sp, sp, 4
  00011c38:	00028513	addi	a0, t0, 0
  00011c3c:	00040293	addi	t0, s0, 0
  00011c40:	ffc2a083	lw	ra, -4(t0)
  00011c44:	ff82a403	lw	s0, -8(t0)
  00011c48:	00028113	addi	sp, t0, 0
  00011c4c:	00008067	ret
  00011c50:	00040293	addi	t0, s0, 0
  00011c54:	ffc2a083	lw	ra, -4(t0)
  00011c58:	ff82a403	lw	s0, -8(t0)
  00011c5c:	00028113	addi	sp, t0, 0
  00011c60:	00008067	ret

00011c64 <len__I32Array>:
  00011c64:	fe010113	addi	sp, sp, -32
  00011c68:	00112e23	sw	ra, 28(sp)
  00011c6c:	00812c23	sw	s0, 24(sp)
  00011c70:	02010413	addi	s0, sp, 32
  00011c74:	fea42a23	sw	a0, -12(s0)
  00011c78:	ff442283	lw	t0, -12(s0)
  00011c7c:	ffc10113	addi	sp, sp, -4
  00011c80:	00512023	sw	t0, 0(sp)
  00011c84:	00012283	lw	t0, 0(sp)
  00011c88:	00410113	addi	sp, sp, 4
  00011c8c:	ffc10113	addi	sp, sp, -4
  00011c90:	00512023	sw	t0, 0(sp)
  00011c94:	00000293	addi	t0, zero, 0
  00011c98:	ffc10113	addi	sp, sp, -4
  00011c9c:	00512023	sw	t0, 0(sp)
  00011ca0:	00012303	lw	t1, 0(sp)
  00011ca4:	00412283	lw	t0, 4(sp)
  00011ca8:	00810113	addi	sp, sp, 8
  00011cac:	406282b3	sub	t0, t0, t1
  00011cb0:	0012b293	sltiu	t0, t0, 1
  00011cb4:	ffc10113	addi	sp, sp, -4
  00011cb8:	00512023	sw	t0, 0(sp)
  00011cbc:	00012283	lw	t0, 0(sp)
  00011cc0:	00410113	addi	sp, sp, 4
  00011cc4:	02028863	beq	t0, zero, 0x11cf4
  00011cc8:	00000293	addi	t0, zero, 0
  00011ccc:	ffc10113	addi	sp, sp, -4
  00011cd0:	00512023	sw	t0, 0(sp)
  00011cd4:	00012283	lw	t0, 0(sp)
  00011cd8:	00410113	addi	sp, sp, 4
  00011cdc:	00028513	addi	a0, t0, 0
  00011ce0:	00040293	addi	t0, s0, 0
  00011ce4:	ffc2a083	lw	ra, -4(t0)
  00011ce8:	ff82a403	lw	s0, -8(t0)
  00011cec:	00028113	addi	sp, t0, 0
  00011cf0:	00008067	ret

00011cf4 <.L_f20_pc7>:
  00011cf4:	ff442283	lw	t0, -12(s0)
  00011cf8:	ffc10113	addi	sp, sp, -4
  00011cfc:	00512023	sw	t0, 0(sp)
  00011d00:	00012283	lw	t0, 0(sp)
  00011d04:	00410113	addi	sp, sp, 4
  00011d08:	ffc10113	addi	sp, sp, -4
  00011d0c:	00512023	sw	t0, 0(sp)
  00011d10:	00012503	lw	a0, 0(sp)
  00011d14:	ffffe097	auipc	ra, 0xffffe	# 0xfd14
  00011d18:	37c080e7	jalr	ra, 892(ra)
  00011d1c:	00410113	addi	sp, sp, 4
  00011d20:	ffc10113	addi	sp, sp, -4
  00011d24:	00a12023	sw	a0, 0(sp)
  00011d28:	00012283	lw	t0, 0(sp)
  00011d2c:	00410113	addi	sp, sp, 4
  00011d30:	ffc10113	addi	sp, sp, -4
  00011d34:	00512023	sw	t0, 0(sp)
  00011d38:	00012283	lw	t0, 0(sp)
  00011d3c:	00410113	addi	sp, sp, 4
  00011d40:	00028513	addi	a0, t0, 0
  00011d44:	00040293	addi	t0, s0, 0
  00011d48:	ffc2a083	lw	ra, -4(t0)
  00011d4c:	ff82a403	lw	s0, -8(t0)
  00011d50:	00028113	addi	sp, t0, 0
  00011d54:	00008067	ret
  00011d58:	00040293	addi	t0, s0, 0
  00011d5c:	ffc2a083	lw	ra, -4(t0)
  00011d60:	ff82a403	lw	s0, -8(t0)
  00011d64:	00028113	addi	sp, t0, 0
  00011d68:	00008067	ret

00011d6c <len__StringArray>:
  00011d6c:	fe010113	addi	sp, sp, -32
  00011d70:	00112e23	sw	ra, 28(sp)
  00011d74:	00812c23	sw	s0, 24(sp)
  00011d78:	02010413	addi	s0, sp, 32
  00011d7c:	fea42a23	sw	a0, -12(s0)
  00011d80:	ff442283	lw	t0, -12(s0)
  00011d84:	ffc10113	addi	sp, sp, -4
  00011d88:	00512023	sw	t0, 0(sp)
  00011d8c:	00012283	lw	t0, 0(sp)
  00011d90:	00410113	addi	sp, sp, 4
  00011d94:	ffc10113	addi	sp, sp, -4
  00011d98:	00512023	sw	t0, 0(sp)
  00011d9c:	00000293	addi	t0, zero, 0
  00011da0:	ffc10113	addi	sp, sp, -4
  00011da4:	00512023	sw	t0, 0(sp)
  00011da8:	00012303	lw	t1, 0(sp)
  00011dac:	00412283	lw	t0, 4(sp)
  00011db0:	00810113	addi	sp, sp, 8
  00011db4:	406282b3	sub	t0, t0, t1
  00011db8:	0012b293	sltiu	t0, t0, 1
  00011dbc:	ffc10113	addi	sp, sp, -4
  00011dc0:	00512023	sw	t0, 0(sp)
  00011dc4:	00012283	lw	t0, 0(sp)
  00011dc8:	00410113	addi	sp, sp, 4
  00011dcc:	02028863	beq	t0, zero, 0x11dfc
  00011dd0:	00000293	addi	t0, zero, 0
  00011dd4:	ffc10113	addi	sp, sp, -4
  00011dd8:	00512023	sw	t0, 0(sp)
  00011ddc:	00012283	lw	t0, 0(sp)
  00011de0:	00410113	addi	sp, sp, 4
  00011de4:	00028513	addi	a0, t0, 0
  00011de8:	00040293	addi	t0, s0, 0
  00011dec:	ffc2a083	lw	ra, -4(t0)
  00011df0:	ff82a403	lw	s0, -8(t0)
  00011df4:	00028113	addi	sp, t0, 0
  00011df8:	00008067	ret

00011dfc <.L_f21_pc7>:
  00011dfc:	ff442283	lw	t0, -12(s0)
  00011e00:	ffc10113	addi	sp, sp, -4
  00011e04:	00512023	sw	t0, 0(sp)
  00011e08:	00012283	lw	t0, 0(sp)
  00011e0c:	00410113	addi	sp, sp, 4
  00011e10:	ffc10113	addi	sp, sp, -4
  00011e14:	00512023	sw	t0, 0(sp)
  00011e18:	00012503	lw	a0, 0(sp)
  00011e1c:	ffffe097	auipc	ra, 0xffffe	# 0xfe1c
  00011e20:	274080e7	jalr	ra, 628(ra)
  00011e24:	00410113	addi	sp, sp, 4
  00011e28:	ffc10113	addi	sp, sp, -4
  00011e2c:	00a12023	sw	a0, 0(sp)
  00011e30:	00012283	lw	t0, 0(sp)
  00011e34:	00410113	addi	sp, sp, 4
  00011e38:	ffc10113	addi	sp, sp, -4
  00011e3c:	00512023	sw	t0, 0(sp)
  00011e40:	00012283	lw	t0, 0(sp)
  00011e44:	00410113	addi	sp, sp, 4
  00011e48:	00028513	addi	a0, t0, 0
  00011e4c:	00040293	addi	t0, s0, 0
  00011e50:	ffc2a083	lw	ra, -4(t0)
  00011e54:	ff82a403	lw	s0, -8(t0)
  00011e58:	00028113	addi	sp, t0, 0
  00011e5c:	00008067	ret
  00011e60:	00040293	addi	t0, s0, 0
  00011e64:	ffc2a083	lw	ra, -4(t0)
  00011e68:	ff82a403	lw	s0, -8(t0)
  00011e6c:	00028113	addi	sp, t0, 0
  00011e70:	00008067	ret

00011e74 <len__String>:
  00011e74:	fe010113	addi	sp, sp, -32
  00011e78:	00112e23	sw	ra, 28(sp)
  00011e7c:	00812c23	sw	s0, 24(sp)
  00011e80:	02010413	addi	s0, sp, 32
  00011e84:	fea42a23	sw	a0, -12(s0)
  00011e88:	ff442283	lw	t0, -12(s0)
  00011e8c:	ffc10113	addi	sp, sp, -4
  00011e90:	00512023	sw	t0, 0(sp)
  00011e94:	00012283	lw	t0, 0(sp)
  00011e98:	00410113	addi	sp, sp, 4
  00011e9c:	ffc10113	addi	sp, sp, -4
  00011ea0:	00512023	sw	t0, 0(sp)
  00011ea4:	00000293	addi	t0, zero, 0
  00011ea8:	ffc10113	addi	sp, sp, -4
  00011eac:	00512023	sw	t0, 0(sp)
  00011eb0:	00012303	lw	t1, 0(sp)
  00011eb4:	00412283	lw	t0, 4(sp)
  00011eb8:	00810113	addi	sp, sp, 8
  00011ebc:	406282b3	sub	t0, t0, t1
  00011ec0:	0012b293	sltiu	t0, t0, 1
  00011ec4:	ffc10113	addi	sp, sp, -4
  00011ec8:	00512023	sw	t0, 0(sp)
  00011ecc:	00012283	lw	t0, 0(sp)
  00011ed0:	00410113	addi	sp, sp, 4
  00011ed4:	02028863	beq	t0, zero, 0x11f04
  00011ed8:	00000293	addi	t0, zero, 0
  00011edc:	ffc10113	addi	sp, sp, -4
  00011ee0:	00512023	sw	t0, 0(sp)
  00011ee4:	00012283	lw	t0, 0(sp)
  00011ee8:	00410113	addi	sp, sp, 4
  00011eec:	00028513	addi	a0, t0, 0
  00011ef0:	00040293	addi	t0, s0, 0
  00011ef4:	ffc2a083	lw	ra, -4(t0)
  00011ef8:	ff82a403	lw	s0, -8(t0)
  00011efc:	00028113	addi	sp, t0, 0
  00011f00:	00008067	ret

00011f04 <.L_f22_pc7>:
  00011f04:	ff442283	lw	t0, -12(s0)
  00011f08:	ffc10113	addi	sp, sp, -4
  00011f0c:	00512023	sw	t0, 0(sp)
  00011f10:	00012283	lw	t0, 0(sp)
  00011f14:	00410113	addi	sp, sp, 4
  00011f18:	ffc10113	addi	sp, sp, -4
  00011f1c:	00512023	sw	t0, 0(sp)
  00011f20:	00012503	lw	a0, 0(sp)
  00011f24:	ffffe097	auipc	ra, 0xffffe	# 0xff24
  00011f28:	16c080e7	jalr	ra, 364(ra)
  00011f2c:	00410113	addi	sp, sp, 4
  00011f30:	ffc10113	addi	sp, sp, -4
  00011f34:	00a12023	sw	a0, 0(sp)
  00011f38:	00012283	lw	t0, 0(sp)
  00011f3c:	00410113	addi	sp, sp, 4
  00011f40:	ffc10113	addi	sp, sp, -4
  00011f44:	00512023	sw	t0, 0(sp)
  00011f48:	00012283	lw	t0, 0(sp)
  00011f4c:	00410113	addi	sp, sp, 4
  00011f50:	00028513	addi	a0, t0, 0
  00011f54:	00040293	addi	t0, s0, 0
  00011f58:	ffc2a083	lw	ra, -4(t0)
  00011f5c:	ff82a403	lw	s0, -8(t0)
  00011f60:	00028113	addi	sp, t0, 0
  00011f64:	00008067	ret
  00011f68:	00040293	addi	t0, s0, 0
  00011f6c:	ffc2a083	lw	ra, -4(t0)
  00011f70:	ff82a403	lw	s0, -8(t0)
  00011f74:	00028113	addi	sp, t0, 0
  00011f78:	00008067	ret

00011f7c <len__StringLiteral>:
  00011f7c:	fe010113	addi	sp, sp, -32
  00011f80:	00112e23	sw	ra, 28(sp)
  00011f84:	00812c23	sw	s0, 24(sp)
  00011f88:	02010413	addi	s0, sp, 32
  00011f8c:	fea42a23	sw	a0, -12(s0)
  00011f90:	ff442283	lw	t0, -12(s0)
  00011f94:	ffc10113	addi	sp, sp, -4
  00011f98:	00512023	sw	t0, 0(sp)
  00011f9c:	00012283	lw	t0, 0(sp)
  00011fa0:	00410113	addi	sp, sp, 4
  00011fa4:	ffc10113	addi	sp, sp, -4
  00011fa8:	00512023	sw	t0, 0(sp)
  00011fac:	00000293	addi	t0, zero, 0
  00011fb0:	ffc10113	addi	sp, sp, -4
  00011fb4:	00512023	sw	t0, 0(sp)
  00011fb8:	00012303	lw	t1, 0(sp)
  00011fbc:	00412283	lw	t0, 4(sp)
  00011fc0:	00810113	addi	sp, sp, 8
  00011fc4:	406282b3	sub	t0, t0, t1
  00011fc8:	0012b293	sltiu	t0, t0, 1
  00011fcc:	ffc10113	addi	sp, sp, -4
  00011fd0:	00512023	sw	t0, 0(sp)
  00011fd4:	00012283	lw	t0, 0(sp)
  00011fd8:	00410113	addi	sp, sp, 4
  00011fdc:	02028863	beq	t0, zero, 0x1200c
  00011fe0:	00000293	addi	t0, zero, 0
  00011fe4:	ffc10113	addi	sp, sp, -4
  00011fe8:	00512023	sw	t0, 0(sp)
  00011fec:	00012283	lw	t0, 0(sp)
  00011ff0:	00410113	addi	sp, sp, 4
  00011ff4:	00028513	addi	a0, t0, 0
  00011ff8:	00040293	addi	t0, s0, 0
  00011ffc:	ffc2a083	lw	ra, -4(t0)
  00012000:	ff82a403	lw	s0, -8(t0)
  00012004:	00028113	addi	sp, t0, 0
  00012008:	00008067	ret

0001200c <.L_f23_pc7>:
  0001200c:	ff442283	lw	t0, -12(s0)
  00012010:	ffc10113	addi	sp, sp, -4
  00012014:	00512023	sw	t0, 0(sp)
  00012018:	00012283	lw	t0, 0(sp)
  0001201c:	00410113	addi	sp, sp, 4
  00012020:	ffc10113	addi	sp, sp, -4
  00012024:	00512023	sw	t0, 0(sp)
  00012028:	00012503	lw	a0, 0(sp)
  0001202c:	ffffe097	auipc	ra, 0xffffe	# 0x1002c
  00012030:	064080e7	jalr	ra, 100(ra)
  00012034:	00410113	addi	sp, sp, 4
  00012038:	ffc10113	addi	sp, sp, -4
  0001203c:	00a12023	sw	a0, 0(sp)
  00012040:	00012283	lw	t0, 0(sp)
  00012044:	00410113	addi	sp, sp, 4
  00012048:	ffc10113	addi	sp, sp, -4
  0001204c:	00512023	sw	t0, 0(sp)
  00012050:	00012283	lw	t0, 0(sp)
  00012054:	00410113	addi	sp, sp, 4
  00012058:	00028513	addi	a0, t0, 0
  0001205c:	00040293	addi	t0, s0, 0
  00012060:	ffc2a083	lw	ra, -4(t0)
  00012064:	ff82a403	lw	s0, -8(t0)
  00012068:	00028113	addi	sp, t0, 0
  0001206c:	00008067	ret
  00012070:	00040293	addi	t0, s0, 0
  00012074:	ffc2a083	lw	ra, -4(t0)
  00012078:	ff82a403	lw	s0, -8(t0)
  0001207c:	00028113	addi	sp, t0, 0
  00012080:	00008067	ret

00012084 <get__U8Array__i32>:
  00012084:	fe010113	addi	sp, sp, -32
  00012088:	00112e23	sw	ra, 28(sp)
  0001208c:	00812c23	sw	s0, 24(sp)
  00012090:	02010413	addi	s0, sp, 32
  00012094:	fea42a23	sw	a0, -12(s0)
  00012098:	feb42823	sw	a1, -16(s0)
  0001209c:	ff442283	lw	t0, -12(s0)
  000120a0:	ffc10113	addi	sp, sp, -4
  000120a4:	00512023	sw	t0, 0(sp)
  000120a8:	00012283	lw	t0, 0(sp)
  000120ac:	00410113	addi	sp, sp, 4
  000120b0:	ffc10113	addi	sp, sp, -4
  000120b4:	00512023	sw	t0, 0(sp)
  000120b8:	00400293	addi	t0, zero, 4
  000120bc:	ffc10113	addi	sp, sp, -4
  000120c0:	00512023	sw	t0, 0(sp)
  000120c4:	00012303	lw	t1, 0(sp)
  000120c8:	00412283	lw	t0, 4(sp)
  000120cc:	00810113	addi	sp, sp, 8
  000120d0:	006282b3	add	t0, t0, t1
  000120d4:	ffc10113	addi	sp, sp, -4
  000120d8:	00512023	sw	t0, 0(sp)
  000120dc:	ff042283	lw	t0, -16(s0)
  000120e0:	ffc10113	addi	sp, sp, -4
  000120e4:	00512023	sw	t0, 0(sp)
  000120e8:	00012283	lw	t0, 0(sp)
  000120ec:	00410113	addi	sp, sp, 4
  000120f0:	ffc10113	addi	sp, sp, -4
  000120f4:	00512023	sw	t0, 0(sp)
  000120f8:	00012303	lw	t1, 0(sp)
  000120fc:	00412283	lw	t0, 4(sp)
  00012100:	00810113	addi	sp, sp, 8
  00012104:	006282b3	add	t0, t0, t1
  00012108:	ffc10113	addi	sp, sp, -4
  0001210c:	00512023	sw	t0, 0(sp)
  00012110:	00012503	lw	a0, 0(sp)
  00012114:	ffffe097	auipc	ra, 0xffffe	# 0x10114
  00012118:	f6c080e7	jalr	ra, -148(ra)
  0001211c:	00410113	addi	sp, sp, 4
  00012120:	ffc10113	addi	sp, sp, -4
  00012124:	00a12023	sw	a0, 0(sp)
  00012128:	00012283	lw	t0, 0(sp)
  0001212c:	00410113	addi	sp, sp, 4
  00012130:	0ff2f293	andi	t0, t0, 255
  00012134:	ffc10113	addi	sp, sp, -4
  00012138:	00512023	sw	t0, 0(sp)
  0001213c:	00012283	lw	t0, 0(sp)
  00012140:	00410113	addi	sp, sp, 4
  00012144:	00028513	addi	a0, t0, 0
  00012148:	00040293	addi	t0, s0, 0
  0001214c:	ffc2a083	lw	ra, -4(t0)
  00012150:	ff82a403	lw	s0, -8(t0)
  00012154:	00028113	addi	sp, t0, 0
  00012158:	00008067	ret
  0001215c:	00040293	addi	t0, s0, 0
  00012160:	ffc2a083	lw	ra, -4(t0)
  00012164:	ff82a403	lw	s0, -8(t0)
  00012168:	00028113	addi	sp, t0, 0
  0001216c:	00008067	ret

00012170 <get__U16Array__i32>:
  00012170:	fe010113	addi	sp, sp, -32
  00012174:	00112e23	sw	ra, 28(sp)
  00012178:	00812c23	sw	s0, 24(sp)
  0001217c:	02010413	addi	s0, sp, 32
  00012180:	fea42a23	sw	a0, -12(s0)
  00012184:	feb42823	sw	a1, -16(s0)
  00012188:	ff442283	lw	t0, -12(s0)
  0001218c:	ffc10113	addi	sp, sp, -4
  00012190:	00512023	sw	t0, 0(sp)
  00012194:	00012283	lw	t0, 0(sp)
  00012198:	00410113	addi	sp, sp, 4
  0001219c:	ffc10113	addi	sp, sp, -4
  000121a0:	00512023	sw	t0, 0(sp)
  000121a4:	00400293	addi	t0, zero, 4
  000121a8:	ffc10113	addi	sp, sp, -4
  000121ac:	00512023	sw	t0, 0(sp)
  000121b0:	00012303	lw	t1, 0(sp)
  000121b4:	00412283	lw	t0, 4(sp)
  000121b8:	00810113	addi	sp, sp, 8
  000121bc:	006282b3	add	t0, t0, t1
  000121c0:	ffc10113	addi	sp, sp, -4
  000121c4:	00512023	sw	t0, 0(sp)
  000121c8:	ff042283	lw	t0, -16(s0)
  000121cc:	ffc10113	addi	sp, sp, -4
  000121d0:	00512023	sw	t0, 0(sp)
  000121d4:	00200293	addi	t0, zero, 2
  000121d8:	ffc10113	addi	sp, sp, -4
  000121dc:	00512023	sw	t0, 0(sp)
  000121e0:	00012303	lw	t1, 0(sp)
  000121e4:	00412283	lw	t0, 4(sp)
  000121e8:	00810113	addi	sp, sp, 8
  000121ec:	026282b3	mul	t0, t0, t1
  000121f0:	ffc10113	addi	sp, sp, -4
  000121f4:	00512023	sw	t0, 0(sp)
  000121f8:	00012283	lw	t0, 0(sp)
  000121fc:	00410113	addi	sp, sp, 4
  00012200:	ffc10113	addi	sp, sp, -4
  00012204:	00512023	sw	t0, 0(sp)
  00012208:	00012303	lw	t1, 0(sp)
  0001220c:	00412283	lw	t0, 4(sp)
  00012210:	00810113	addi	sp, sp, 8
  00012214:	006282b3	add	t0, t0, t1
  00012218:	ffc10113	addi	sp, sp, -4
  0001221c:	00512023	sw	t0, 0(sp)
  00012220:	00012503	lw	a0, 0(sp)
  00012224:	ffffe097	auipc	ra, 0xffffe	# 0x10224
  00012228:	e64080e7	jalr	ra, -412(ra)
  0001222c:	00410113	addi	sp, sp, 4
  00012230:	ffc10113	addi	sp, sp, -4
  00012234:	00a12023	sw	a0, 0(sp)
  00012238:	00012283	lw	t0, 0(sp)
  0001223c:	00410113	addi	sp, sp, 4
  00012240:	01029293	slli	t0, t0, 16
  00012244:	0102d293	srli	t0, t0, 16
  00012248:	ffc10113	addi	sp, sp, -4
  0001224c:	00512023	sw	t0, 0(sp)
  00012250:	00012283	lw	t0, 0(sp)
  00012254:	00410113	addi	sp, sp, 4
  00012258:	00028513	addi	a0, t0, 0
  0001225c:	00040293	addi	t0, s0, 0
  00012260:	ffc2a083	lw	ra, -4(t0)
  00012264:	ff82a403	lw	s0, -8(t0)
  00012268:	00028113	addi	sp, t0, 0
  0001226c:	00008067	ret
  00012270:	00040293	addi	t0, s0, 0
  00012274:	ffc2a083	lw	ra, -4(t0)
  00012278:	ff82a403	lw	s0, -8(t0)
  0001227c:	00028113	addi	sp, t0, 0
  00012280:	00008067	ret

00012284 <get__U32Array__i32>:
  00012284:	fe010113	addi	sp, sp, -32
  00012288:	00112e23	sw	ra, 28(sp)
  0001228c:	00812c23	sw	s0, 24(sp)
  00012290:	02010413	addi	s0, sp, 32
  00012294:	fea42a23	sw	a0, -12(s0)
  00012298:	feb42823	sw	a1, -16(s0)
  0001229c:	ff442283	lw	t0, -12(s0)
  000122a0:	ffc10113	addi	sp, sp, -4
  000122a4:	00512023	sw	t0, 0(sp)
  000122a8:	00012283	lw	t0, 0(sp)
  000122ac:	00410113	addi	sp, sp, 4
  000122b0:	ffc10113	addi	sp, sp, -4
  000122b4:	00512023	sw	t0, 0(sp)
  000122b8:	00400293	addi	t0, zero, 4
  000122bc:	ffc10113	addi	sp, sp, -4
  000122c0:	00512023	sw	t0, 0(sp)
  000122c4:	00012303	lw	t1, 0(sp)
  000122c8:	00412283	lw	t0, 4(sp)
  000122cc:	00810113	addi	sp, sp, 8
  000122d0:	006282b3	add	t0, t0, t1
  000122d4:	ffc10113	addi	sp, sp, -4
  000122d8:	00512023	sw	t0, 0(sp)
  000122dc:	ff042283	lw	t0, -16(s0)
  000122e0:	ffc10113	addi	sp, sp, -4
  000122e4:	00512023	sw	t0, 0(sp)
  000122e8:	00400293	addi	t0, zero, 4
  000122ec:	ffc10113	addi	sp, sp, -4
  000122f0:	00512023	sw	t0, 0(sp)
  000122f4:	00012303	lw	t1, 0(sp)
  000122f8:	00412283	lw	t0, 4(sp)
  000122fc:	00810113	addi	sp, sp, 8
  00012300:	026282b3	mul	t0, t0, t1
  00012304:	ffc10113	addi	sp, sp, -4
  00012308:	00512023	sw	t0, 0(sp)
  0001230c:	00012283	lw	t0, 0(sp)
  00012310:	00410113	addi	sp, sp, 4
  00012314:	ffc10113	addi	sp, sp, -4
  00012318:	00512023	sw	t0, 0(sp)
  0001231c:	00012303	lw	t1, 0(sp)
  00012320:	00412283	lw	t0, 4(sp)
  00012324:	00810113	addi	sp, sp, 8
  00012328:	006282b3	add	t0, t0, t1
  0001232c:	ffc10113	addi	sp, sp, -4
  00012330:	00512023	sw	t0, 0(sp)
  00012334:	00012503	lw	a0, 0(sp)
  00012338:	ffffe097	auipc	ra, 0xffffe	# 0x10338
  0001233c:	d58080e7	jalr	ra, -680(ra)
  00012340:	00410113	addi	sp, sp, 4
  00012344:	ffc10113	addi	sp, sp, -4
  00012348:	00a12023	sw	a0, 0(sp)
  0001234c:	00012283	lw	t0, 0(sp)
  00012350:	00410113	addi	sp, sp, 4
  00012354:	00028513	addi	a0, t0, 0
  00012358:	00040293	addi	t0, s0, 0
  0001235c:	ffc2a083	lw	ra, -4(t0)
  00012360:	ff82a403	lw	s0, -8(t0)
  00012364:	00028113	addi	sp, t0, 0
  00012368:	00008067	ret
  0001236c:	00040293	addi	t0, s0, 0
  00012370:	ffc2a083	lw	ra, -4(t0)
  00012374:	ff82a403	lw	s0, -8(t0)
  00012378:	00028113	addi	sp, t0, 0
  0001237c:	00008067	ret

00012380 <get__I8Array__i32>:
  00012380:	fe010113	addi	sp, sp, -32
  00012384:	00112e23	sw	ra, 28(sp)
  00012388:	00812c23	sw	s0, 24(sp)
  0001238c:	02010413	addi	s0, sp, 32
  00012390:	fea42a23	sw	a0, -12(s0)
  00012394:	feb42823	sw	a1, -16(s0)
  00012398:	ff442283	lw	t0, -12(s0)
  0001239c:	ffc10113	addi	sp, sp, -4
  000123a0:	00512023	sw	t0, 0(sp)
  000123a4:	00012283	lw	t0, 0(sp)
  000123a8:	00410113	addi	sp, sp, 4
  000123ac:	ffc10113	addi	sp, sp, -4
  000123b0:	00512023	sw	t0, 0(sp)
  000123b4:	00400293	addi	t0, zero, 4
  000123b8:	ffc10113	addi	sp, sp, -4
  000123bc:	00512023	sw	t0, 0(sp)
  000123c0:	00012303	lw	t1, 0(sp)
  000123c4:	00412283	lw	t0, 4(sp)
  000123c8:	00810113	addi	sp, sp, 8
  000123cc:	006282b3	add	t0, t0, t1
  000123d0:	ffc10113	addi	sp, sp, -4
  000123d4:	00512023	sw	t0, 0(sp)
  000123d8:	ff042283	lw	t0, -16(s0)
  000123dc:	ffc10113	addi	sp, sp, -4
  000123e0:	00512023	sw	t0, 0(sp)
  000123e4:	00012283	lw	t0, 0(sp)
  000123e8:	00410113	addi	sp, sp, 4
  000123ec:	ffc10113	addi	sp, sp, -4
  000123f0:	00512023	sw	t0, 0(sp)
  000123f4:	00012303	lw	t1, 0(sp)
  000123f8:	00412283	lw	t0, 4(sp)
  000123fc:	00810113	addi	sp, sp, 8
  00012400:	006282b3	add	t0, t0, t1
  00012404:	ffc10113	addi	sp, sp, -4
  00012408:	00512023	sw	t0, 0(sp)
  0001240c:	00012503	lw	a0, 0(sp)
  00012410:	ffffe097	auipc	ra, 0xffffe	# 0x10410
  00012414:	c70080e7	jalr	ra, -912(ra)
  00012418:	00410113	addi	sp, sp, 4
  0001241c:	ffc10113	addi	sp, sp, -4
  00012420:	00a12023	sw	a0, 0(sp)
  00012424:	00012283	lw	t0, 0(sp)
  00012428:	00410113	addi	sp, sp, 4
  0001242c:	01829293	slli	t0, t0, 24
  00012430:	4182d293	srai	t0, t0, 24
  00012434:	ffc10113	addi	sp, sp, -4
  00012438:	00512023	sw	t0, 0(sp)
  0001243c:	00012283	lw	t0, 0(sp)
  00012440:	00410113	addi	sp, sp, 4
  00012444:	00028513	addi	a0, t0, 0
  00012448:	00040293	addi	t0, s0, 0
  0001244c:	ffc2a083	lw	ra, -4(t0)
  00012450:	ff82a403	lw	s0, -8(t0)
  00012454:	00028113	addi	sp, t0, 0
  00012458:	00008067	ret
  0001245c:	00040293	addi	t0, s0, 0
  00012460:	ffc2a083	lw	ra, -4(t0)
  00012464:	ff82a403	lw	s0, -8(t0)
  00012468:	00028113	addi	sp, t0, 0
  0001246c:	00008067	ret

00012470 <get__I16Array__i32>:
  00012470:	fe010113	addi	sp, sp, -32
  00012474:	00112e23	sw	ra, 28(sp)
  00012478:	00812c23	sw	s0, 24(sp)
  0001247c:	02010413	addi	s0, sp, 32
  00012480:	fea42a23	sw	a0, -12(s0)
  00012484:	feb42823	sw	a1, -16(s0)
  00012488:	ff442283	lw	t0, -12(s0)
  0001248c:	ffc10113	addi	sp, sp, -4
  00012490:	00512023	sw	t0, 0(sp)
  00012494:	00012283	lw	t0, 0(sp)
  00012498:	00410113	addi	sp, sp, 4
  0001249c:	ffc10113	addi	sp, sp, -4
  000124a0:	00512023	sw	t0, 0(sp)
  000124a4:	00400293	addi	t0, zero, 4
  000124a8:	ffc10113	addi	sp, sp, -4
  000124ac:	00512023	sw	t0, 0(sp)
  000124b0:	00012303	lw	t1, 0(sp)
  000124b4:	00412283	lw	t0, 4(sp)
  000124b8:	00810113	addi	sp, sp, 8
  000124bc:	006282b3	add	t0, t0, t1
  000124c0:	ffc10113	addi	sp, sp, -4
  000124c4:	00512023	sw	t0, 0(sp)
  000124c8:	ff042283	lw	t0, -16(s0)
  000124cc:	ffc10113	addi	sp, sp, -4
  000124d0:	00512023	sw	t0, 0(sp)
  000124d4:	00200293	addi	t0, zero, 2
  000124d8:	ffc10113	addi	sp, sp, -4
  000124dc:	00512023	sw	t0, 0(sp)
  000124e0:	00012303	lw	t1, 0(sp)
  000124e4:	00412283	lw	t0, 4(sp)
  000124e8:	00810113	addi	sp, sp, 8
  000124ec:	026282b3	mul	t0, t0, t1
  000124f0:	ffc10113	addi	sp, sp, -4
  000124f4:	00512023	sw	t0, 0(sp)
  000124f8:	00012283	lw	t0, 0(sp)
  000124fc:	00410113	addi	sp, sp, 4
  00012500:	ffc10113	addi	sp, sp, -4
  00012504:	00512023	sw	t0, 0(sp)
  00012508:	00012303	lw	t1, 0(sp)
  0001250c:	00412283	lw	t0, 4(sp)
  00012510:	00810113	addi	sp, sp, 8
  00012514:	006282b3	add	t0, t0, t1
  00012518:	ffc10113	addi	sp, sp, -4
  0001251c:	00512023	sw	t0, 0(sp)
  00012520:	00012503	lw	a0, 0(sp)
  00012524:	ffffe097	auipc	ra, 0xffffe	# 0x10524
  00012528:	b64080e7	jalr	ra, -1180(ra)
  0001252c:	00410113	addi	sp, sp, 4
  00012530:	ffc10113	addi	sp, sp, -4
  00012534:	00a12023	sw	a0, 0(sp)
  00012538:	00012283	lw	t0, 0(sp)
  0001253c:	00410113	addi	sp, sp, 4
  00012540:	01029293	slli	t0, t0, 16
  00012544:	4102d293	srai	t0, t0, 16
  00012548:	ffc10113	addi	sp, sp, -4
  0001254c:	00512023	sw	t0, 0(sp)
  00012550:	00012283	lw	t0, 0(sp)
  00012554:	00410113	addi	sp, sp, 4
  00012558:	00028513	addi	a0, t0, 0
  0001255c:	00040293	addi	t0, s0, 0
  00012560:	ffc2a083	lw	ra, -4(t0)
  00012564:	ff82a403	lw	s0, -8(t0)
  00012568:	00028113	addi	sp, t0, 0
  0001256c:	00008067	ret
  00012570:	00040293	addi	t0, s0, 0
  00012574:	ffc2a083	lw	ra, -4(t0)
  00012578:	ff82a403	lw	s0, -8(t0)
  0001257c:	00028113	addi	sp, t0, 0
  00012580:	00008067	ret

00012584 <get__I32Array__i32>:
  00012584:	fe010113	addi	sp, sp, -32
  00012588:	00112e23	sw	ra, 28(sp)
  0001258c:	00812c23	sw	s0, 24(sp)
  00012590:	02010413	addi	s0, sp, 32
  00012594:	fea42a23	sw	a0, -12(s0)
  00012598:	feb42823	sw	a1, -16(s0)
  0001259c:	ff442283	lw	t0, -12(s0)
  000125a0:	ffc10113	addi	sp, sp, -4
  000125a4:	00512023	sw	t0, 0(sp)
  000125a8:	00012283	lw	t0, 0(sp)
  000125ac:	00410113	addi	sp, sp, 4
  000125b0:	ffc10113	addi	sp, sp, -4
  000125b4:	00512023	sw	t0, 0(sp)
  000125b8:	00400293	addi	t0, zero, 4
  000125bc:	ffc10113	addi	sp, sp, -4
  000125c0:	00512023	sw	t0, 0(sp)
  000125c4:	00012303	lw	t1, 0(sp)
  000125c8:	00412283	lw	t0, 4(sp)
  000125cc:	00810113	addi	sp, sp, 8
  000125d0:	006282b3	add	t0, t0, t1
  000125d4:	ffc10113	addi	sp, sp, -4
  000125d8:	00512023	sw	t0, 0(sp)
  000125dc:	ff042283	lw	t0, -16(s0)
  000125e0:	ffc10113	addi	sp, sp, -4
  000125e4:	00512023	sw	t0, 0(sp)
  000125e8:	00400293	addi	t0, zero, 4
  000125ec:	ffc10113	addi	sp, sp, -4
  000125f0:	00512023	sw	t0, 0(sp)
  000125f4:	00012303	lw	t1, 0(sp)
  000125f8:	00412283	lw	t0, 4(sp)
  000125fc:	00810113	addi	sp, sp, 8
  00012600:	026282b3	mul	t0, t0, t1
  00012604:	ffc10113	addi	sp, sp, -4
  00012608:	00512023	sw	t0, 0(sp)
  0001260c:	00012283	lw	t0, 0(sp)
  00012610:	00410113	addi	sp, sp, 4
  00012614:	ffc10113	addi	sp, sp, -4
  00012618:	00512023	sw	t0, 0(sp)
  0001261c:	00012303	lw	t1, 0(sp)
  00012620:	00412283	lw	t0, 4(sp)
  00012624:	00810113	addi	sp, sp, 8
  00012628:	006282b3	add	t0, t0, t1
  0001262c:	ffc10113	addi	sp, sp, -4
  00012630:	00512023	sw	t0, 0(sp)
  00012634:	00012503	lw	a0, 0(sp)
  00012638:	ffffe097	auipc	ra, 0xffffe	# 0x10638
  0001263c:	a58080e7	jalr	ra, -1448(ra)
  00012640:	00410113	addi	sp, sp, 4
  00012644:	ffc10113	addi	sp, sp, -4
  00012648:	00a12023	sw	a0, 0(sp)
  0001264c:	00012283	lw	t0, 0(sp)
  00012650:	00410113	addi	sp, sp, 4
  00012654:	ffc10113	addi	sp, sp, -4
  00012658:	00512023	sw	t0, 0(sp)
  0001265c:	00012283	lw	t0, 0(sp)
  00012660:	00410113	addi	sp, sp, 4
  00012664:	00028513	addi	a0, t0, 0
  00012668:	00040293	addi	t0, s0, 0
  0001266c:	ffc2a083	lw	ra, -4(t0)
  00012670:	ff82a403	lw	s0, -8(t0)
  00012674:	00028113	addi	sp, t0, 0
  00012678:	00008067	ret
  0001267c:	00040293	addi	t0, s0, 0
  00012680:	ffc2a083	lw	ra, -4(t0)
  00012684:	ff82a403	lw	s0, -8(t0)
  00012688:	00028113	addi	sp, t0, 0
  0001268c:	00008067	ret

00012690 <get__StringArray__i32>:
  00012690:	fe010113	addi	sp, sp, -32
  00012694:	00112e23	sw	ra, 28(sp)
  00012698:	00812c23	sw	s0, 24(sp)
  0001269c:	02010413	addi	s0, sp, 32
  000126a0:	fea42a23	sw	a0, -12(s0)
  000126a4:	feb42823	sw	a1, -16(s0)
  000126a8:	ff442283	lw	t0, -12(s0)
  000126ac:	ffc10113	addi	sp, sp, -4
  000126b0:	00512023	sw	t0, 0(sp)
  000126b4:	00012283	lw	t0, 0(sp)
  000126b8:	00410113	addi	sp, sp, 4
  000126bc:	ffc10113	addi	sp, sp, -4
  000126c0:	00512023	sw	t0, 0(sp)
  000126c4:	00400293	addi	t0, zero, 4
  000126c8:	ffc10113	addi	sp, sp, -4
  000126cc:	00512023	sw	t0, 0(sp)
  000126d0:	00012303	lw	t1, 0(sp)
  000126d4:	00412283	lw	t0, 4(sp)
  000126d8:	00810113	addi	sp, sp, 8
  000126dc:	006282b3	add	t0, t0, t1
  000126e0:	ffc10113	addi	sp, sp, -4
  000126e4:	00512023	sw	t0, 0(sp)
  000126e8:	ff042283	lw	t0, -16(s0)
  000126ec:	ffc10113	addi	sp, sp, -4
  000126f0:	00512023	sw	t0, 0(sp)
  000126f4:	00400293	addi	t0, zero, 4
  000126f8:	ffc10113	addi	sp, sp, -4
  000126fc:	00512023	sw	t0, 0(sp)
  00012700:	00012303	lw	t1, 0(sp)
  00012704:	00412283	lw	t0, 4(sp)
  00012708:	00810113	addi	sp, sp, 8
  0001270c:	026282b3	mul	t0, t0, t1
  00012710:	ffc10113	addi	sp, sp, -4
  00012714:	00512023	sw	t0, 0(sp)
  00012718:	00012283	lw	t0, 0(sp)
  0001271c:	00410113	addi	sp, sp, 4
  00012720:	ffc10113	addi	sp, sp, -4
  00012724:	00512023	sw	t0, 0(sp)
  00012728:	00012303	lw	t1, 0(sp)
  0001272c:	00412283	lw	t0, 4(sp)
  00012730:	00810113	addi	sp, sp, 8
  00012734:	006282b3	add	t0, t0, t1
  00012738:	ffc10113	addi	sp, sp, -4
  0001273c:	00512023	sw	t0, 0(sp)
  00012740:	00012503	lw	a0, 0(sp)
  00012744:	ffffe097	auipc	ra, 0xffffe	# 0x10744
  00012748:	94c080e7	jalr	ra, -1716(ra)
  0001274c:	00410113	addi	sp, sp, 4
  00012750:	ffc10113	addi	sp, sp, -4
  00012754:	00a12023	sw	a0, 0(sp)
  00012758:	00012283	lw	t0, 0(sp)
  0001275c:	00410113	addi	sp, sp, 4
  00012760:	00028513	addi	a0, t0, 0
  00012764:	00040293	addi	t0, s0, 0
  00012768:	ffc2a083	lw	ra, -4(t0)
  0001276c:	ff82a403	lw	s0, -8(t0)
  00012770:	00028113	addi	sp, t0, 0
  00012774:	00008067	ret
  00012778:	00040293	addi	t0, s0, 0
  0001277c:	ffc2a083	lw	ra, -4(t0)
  00012780:	ff82a403	lw	s0, -8(t0)
  00012784:	00028113	addi	sp, t0, 0
  00012788:	00008067	ret

0001278c <get__String__i32>:
  0001278c:	fe010113	addi	sp, sp, -32
  00012790:	00112e23	sw	ra, 28(sp)
  00012794:	00812c23	sw	s0, 24(sp)
  00012798:	02010413	addi	s0, sp, 32
  0001279c:	fea42a23	sw	a0, -12(s0)
  000127a0:	feb42823	sw	a1, -16(s0)
  000127a4:	ff442283	lw	t0, -12(s0)
  000127a8:	ffc10113	addi	sp, sp, -4
  000127ac:	00512023	sw	t0, 0(sp)
  000127b0:	00012283	lw	t0, 0(sp)
  000127b4:	00410113	addi	sp, sp, 4
  000127b8:	ffc10113	addi	sp, sp, -4
  000127bc:	00512023	sw	t0, 0(sp)
  000127c0:	00400293	addi	t0, zero, 4
  000127c4:	ffc10113	addi	sp, sp, -4
  000127c8:	00512023	sw	t0, 0(sp)
  000127cc:	00012303	lw	t1, 0(sp)
  000127d0:	00412283	lw	t0, 4(sp)
  000127d4:	00810113	addi	sp, sp, 8
  000127d8:	006282b3	add	t0, t0, t1
  000127dc:	ffc10113	addi	sp, sp, -4
  000127e0:	00512023	sw	t0, 0(sp)
  000127e4:	ff042283	lw	t0, -16(s0)
  000127e8:	ffc10113	addi	sp, sp, -4
  000127ec:	00512023	sw	t0, 0(sp)
  000127f0:	00012283	lw	t0, 0(sp)
  000127f4:	00410113	addi	sp, sp, 4
  000127f8:	ffc10113	addi	sp, sp, -4
  000127fc:	00512023	sw	t0, 0(sp)
  00012800:	00012303	lw	t1, 0(sp)
  00012804:	00412283	lw	t0, 4(sp)
  00012808:	00810113	addi	sp, sp, 8
  0001280c:	006282b3	add	t0, t0, t1
  00012810:	ffc10113	addi	sp, sp, -4
  00012814:	00512023	sw	t0, 0(sp)
  00012818:	00012503	lw	a0, 0(sp)
  0001281c:	ffffe097	auipc	ra, 0xffffe	# 0x1081c
  00012820:	864080e7	jalr	ra, -1948(ra)
  00012824:	00410113	addi	sp, sp, 4
  00012828:	ffc10113	addi	sp, sp, -4
  0001282c:	00a12023	sw	a0, 0(sp)
  00012830:	00012283	lw	t0, 0(sp)
  00012834:	00410113	addi	sp, sp, 4
  00012838:	0ff2f293	andi	t0, t0, 255
  0001283c:	ffc10113	addi	sp, sp, -4
  00012840:	00512023	sw	t0, 0(sp)
  00012844:	00012283	lw	t0, 0(sp)
  00012848:	00410113	addi	sp, sp, 4
  0001284c:	00028513	addi	a0, t0, 0
  00012850:	00040293	addi	t0, s0, 0
  00012854:	ffc2a083	lw	ra, -4(t0)
  00012858:	ff82a403	lw	s0, -8(t0)
  0001285c:	00028113	addi	sp, t0, 0
  00012860:	00008067	ret
  00012864:	00040293	addi	t0, s0, 0
  00012868:	ffc2a083	lw	ra, -4(t0)
  0001286c:	ff82a403	lw	s0, -8(t0)
  00012870:	00028113	addi	sp, t0, 0
  00012874:	00008067	ret

00012878 <get__StringLiteral__i32>:
  00012878:	fe010113	addi	sp, sp, -32
  0001287c:	00112e23	sw	ra, 28(sp)
  00012880:	00812c23	sw	s0, 24(sp)
  00012884:	02010413	addi	s0, sp, 32
  00012888:	fea42a23	sw	a0, -12(s0)
  0001288c:	feb42823	sw	a1, -16(s0)
  00012890:	ff442283	lw	t0, -12(s0)
  00012894:	ffc10113	addi	sp, sp, -4
  00012898:	00512023	sw	t0, 0(sp)
  0001289c:	00012283	lw	t0, 0(sp)
  000128a0:	00410113	addi	sp, sp, 4
  000128a4:	ffc10113	addi	sp, sp, -4
  000128a8:	00512023	sw	t0, 0(sp)
  000128ac:	00400293	addi	t0, zero, 4
  000128b0:	ffc10113	addi	sp, sp, -4
  000128b4:	00512023	sw	t0, 0(sp)
  000128b8:	00012303	lw	t1, 0(sp)
  000128bc:	00412283	lw	t0, 4(sp)
  000128c0:	00810113	addi	sp, sp, 8
  000128c4:	006282b3	add	t0, t0, t1
  000128c8:	ffc10113	addi	sp, sp, -4
  000128cc:	00512023	sw	t0, 0(sp)
  000128d0:	ff042283	lw	t0, -16(s0)
  000128d4:	ffc10113	addi	sp, sp, -4
  000128d8:	00512023	sw	t0, 0(sp)
  000128dc:	00012283	lw	t0, 0(sp)
  000128e0:	00410113	addi	sp, sp, 4
  000128e4:	ffc10113	addi	sp, sp, -4
  000128e8:	00512023	sw	t0, 0(sp)
  000128ec:	00012303	lw	t1, 0(sp)
  000128f0:	00412283	lw	t0, 4(sp)
  000128f4:	00810113	addi	sp, sp, 8
  000128f8:	006282b3	add	t0, t0, t1
  000128fc:	ffc10113	addi	sp, sp, -4
  00012900:	00512023	sw	t0, 0(sp)
  00012904:	00012503	lw	a0, 0(sp)
  00012908:	ffffd097	auipc	ra, 0xffffd	# 0xf908
  0001290c:	778080e7	jalr	ra, 1912(ra)
  00012910:	00410113	addi	sp, sp, 4
  00012914:	ffc10113	addi	sp, sp, -4
  00012918:	00a12023	sw	a0, 0(sp)
  0001291c:	00012283	lw	t0, 0(sp)
  00012920:	00410113	addi	sp, sp, 4
  00012924:	0ff2f293	andi	t0, t0, 255
  00012928:	ffc10113	addi	sp, sp, -4
  0001292c:	00512023	sw	t0, 0(sp)
  00012930:	00012283	lw	t0, 0(sp)
  00012934:	00410113	addi	sp, sp, 4
  00012938:	00028513	addi	a0, t0, 0
  0001293c:	00040293	addi	t0, s0, 0
  00012940:	ffc2a083	lw	ra, -4(t0)
  00012944:	ff82a403	lw	s0, -8(t0)
  00012948:	00028113	addi	sp, t0, 0
  0001294c:	00008067	ret
  00012950:	00040293	addi	t0, s0, 0
  00012954:	ffc2a083	lw	ra, -4(t0)
  00012958:	ff82a403	lw	s0, -8(t0)
  0001295c:	00028113	addi	sp, t0, 0
  00012960:	00008067	ret

00012964 <set__U8Array__i32__u8>:
  00012964:	fe010113	addi	sp, sp, -32
  00012968:	00112e23	sw	ra, 28(sp)
  0001296c:	00812c23	sw	s0, 24(sp)
  00012970:	02010413	addi	s0, sp, 32
  00012974:	fea42a23	sw	a0, -12(s0)
  00012978:	feb42823	sw	a1, -16(s0)
  0001297c:	fec42623	sw	a2, -20(s0)
  00012980:	ff442283	lw	t0, -12(s0)
  00012984:	ffc10113	addi	sp, sp, -4
  00012988:	00512023	sw	t0, 0(sp)
  0001298c:	00012283	lw	t0, 0(sp)
  00012990:	00410113	addi	sp, sp, 4
  00012994:	ffc10113	addi	sp, sp, -4
  00012998:	00512023	sw	t0, 0(sp)
  0001299c:	00400293	addi	t0, zero, 4
  000129a0:	ffc10113	addi	sp, sp, -4
  000129a4:	00512023	sw	t0, 0(sp)
  000129a8:	00012303	lw	t1, 0(sp)
  000129ac:	00412283	lw	t0, 4(sp)
  000129b0:	00810113	addi	sp, sp, 8
  000129b4:	006282b3	add	t0, t0, t1
  000129b8:	ffc10113	addi	sp, sp, -4
  000129bc:	00512023	sw	t0, 0(sp)
  000129c0:	ff042283	lw	t0, -16(s0)
  000129c4:	ffc10113	addi	sp, sp, -4
  000129c8:	00512023	sw	t0, 0(sp)
  000129cc:	00012283	lw	t0, 0(sp)
  000129d0:	00410113	addi	sp, sp, 4
  000129d4:	ffc10113	addi	sp, sp, -4
  000129d8:	00512023	sw	t0, 0(sp)
  000129dc:	00012303	lw	t1, 0(sp)
  000129e0:	00412283	lw	t0, 4(sp)
  000129e4:	00810113	addi	sp, sp, 8
  000129e8:	006282b3	add	t0, t0, t1
  000129ec:	ffc10113	addi	sp, sp, -4
  000129f0:	00512023	sw	t0, 0(sp)
  000129f4:	fec42283	lw	t0, -20(s0)
  000129f8:	ffc10113	addi	sp, sp, -4
  000129fc:	00512023	sw	t0, 0(sp)
  00012a00:	00012283	lw	t0, 0(sp)
  00012a04:	00410113	addi	sp, sp, 4
  00012a08:	0ff2f293	andi	t0, t0, 255
  00012a0c:	ffc10113	addi	sp, sp, -4
  00012a10:	00512023	sw	t0, 0(sp)
  00012a14:	00412503	lw	a0, 4(sp)
  00012a18:	00012583	lw	a1, 0(sp)
  00012a1c:	ffffd097	auipc	ra, 0xffffd	# 0xfa1c
  00012a20:	67c080e7	jalr	ra, 1660(ra)
  00012a24:	00810113	addi	sp, sp, 8
  00012a28:	ffc10113	addi	sp, sp, -4
  00012a2c:	00a12023	sw	a0, 0(sp)
  00012a30:	00410113	addi	sp, sp, 4
  00012a34:	00040293	addi	t0, s0, 0
  00012a38:	ffc2a083	lw	ra, -4(t0)
  00012a3c:	ff82a403	lw	s0, -8(t0)
  00012a40:	00028113	addi	sp, t0, 0
  00012a44:	00008067	ret
  00012a48:	00040293	addi	t0, s0, 0
  00012a4c:	ffc2a083	lw	ra, -4(t0)
  00012a50:	ff82a403	lw	s0, -8(t0)
  00012a54:	00028113	addi	sp, t0, 0
  00012a58:	00008067	ret

00012a5c <set__U16Array__i32__u16>:
  00012a5c:	fe010113	addi	sp, sp, -32
  00012a60:	00112e23	sw	ra, 28(sp)
  00012a64:	00812c23	sw	s0, 24(sp)
  00012a68:	02010413	addi	s0, sp, 32
  00012a6c:	fea42a23	sw	a0, -12(s0)
  00012a70:	feb42823	sw	a1, -16(s0)
  00012a74:	fec42623	sw	a2, -20(s0)
  00012a78:	ff442283	lw	t0, -12(s0)
  00012a7c:	ffc10113	addi	sp, sp, -4
  00012a80:	00512023	sw	t0, 0(sp)
  00012a84:	00012283	lw	t0, 0(sp)
  00012a88:	00410113	addi	sp, sp, 4
  00012a8c:	ffc10113	addi	sp, sp, -4
  00012a90:	00512023	sw	t0, 0(sp)
  00012a94:	00400293	addi	t0, zero, 4
  00012a98:	ffc10113	addi	sp, sp, -4
  00012a9c:	00512023	sw	t0, 0(sp)
  00012aa0:	00012303	lw	t1, 0(sp)
  00012aa4:	00412283	lw	t0, 4(sp)
  00012aa8:	00810113	addi	sp, sp, 8
  00012aac:	006282b3	add	t0, t0, t1
  00012ab0:	ffc10113	addi	sp, sp, -4
  00012ab4:	00512023	sw	t0, 0(sp)
  00012ab8:	ff042283	lw	t0, -16(s0)
  00012abc:	ffc10113	addi	sp, sp, -4
  00012ac0:	00512023	sw	t0, 0(sp)
  00012ac4:	00200293	addi	t0, zero, 2
  00012ac8:	ffc10113	addi	sp, sp, -4
  00012acc:	00512023	sw	t0, 0(sp)
  00012ad0:	00012303	lw	t1, 0(sp)
  00012ad4:	00412283	lw	t0, 4(sp)
  00012ad8:	00810113	addi	sp, sp, 8
  00012adc:	026282b3	mul	t0, t0, t1
  00012ae0:	ffc10113	addi	sp, sp, -4
  00012ae4:	00512023	sw	t0, 0(sp)
  00012ae8:	00012283	lw	t0, 0(sp)
  00012aec:	00410113	addi	sp, sp, 4
  00012af0:	ffc10113	addi	sp, sp, -4
  00012af4:	00512023	sw	t0, 0(sp)
  00012af8:	00012303	lw	t1, 0(sp)
  00012afc:	00412283	lw	t0, 4(sp)
  00012b00:	00810113	addi	sp, sp, 8
  00012b04:	006282b3	add	t0, t0, t1
  00012b08:	ffc10113	addi	sp, sp, -4
  00012b0c:	00512023	sw	t0, 0(sp)
  00012b10:	fec42283	lw	t0, -20(s0)
  00012b14:	ffc10113	addi	sp, sp, -4
  00012b18:	00512023	sw	t0, 0(sp)
  00012b1c:	00012283	lw	t0, 0(sp)
  00012b20:	00410113	addi	sp, sp, 4
  00012b24:	01029293	slli	t0, t0, 16
  00012b28:	0102d293	srli	t0, t0, 16
  00012b2c:	ffc10113	addi	sp, sp, -4
  00012b30:	00512023	sw	t0, 0(sp)
  00012b34:	00412503	lw	a0, 4(sp)
  00012b38:	00012583	lw	a1, 0(sp)
  00012b3c:	ffffd097	auipc	ra, 0xffffd	# 0xfb3c
  00012b40:	564080e7	jalr	ra, 1380(ra)
  00012b44:	00810113	addi	sp, sp, 8
  00012b48:	ffc10113	addi	sp, sp, -4
  00012b4c:	00a12023	sw	a0, 0(sp)
  00012b50:	00410113	addi	sp, sp, 4
  00012b54:	00040293	addi	t0, s0, 0
  00012b58:	ffc2a083	lw	ra, -4(t0)
  00012b5c:	ff82a403	lw	s0, -8(t0)
  00012b60:	00028113	addi	sp, t0, 0
  00012b64:	00008067	ret
  00012b68:	00040293	addi	t0, s0, 0
  00012b6c:	ffc2a083	lw	ra, -4(t0)
  00012b70:	ff82a403	lw	s0, -8(t0)
  00012b74:	00028113	addi	sp, t0, 0
  00012b78:	00008067	ret

00012b7c <set__U32Array__i32__u32>:
  00012b7c:	fe010113	addi	sp, sp, -32
  00012b80:	00112e23	sw	ra, 28(sp)
  00012b84:	00812c23	sw	s0, 24(sp)
  00012b88:	02010413	addi	s0, sp, 32
  00012b8c:	fea42a23	sw	a0, -12(s0)
  00012b90:	feb42823	sw	a1, -16(s0)
  00012b94:	fec42623	sw	a2, -20(s0)
  00012b98:	ff442283	lw	t0, -12(s0)
  00012b9c:	ffc10113	addi	sp, sp, -4
  00012ba0:	00512023	sw	t0, 0(sp)
  00012ba4:	00012283	lw	t0, 0(sp)
  00012ba8:	00410113	addi	sp, sp, 4
  00012bac:	ffc10113	addi	sp, sp, -4
  00012bb0:	00512023	sw	t0, 0(sp)
  00012bb4:	00400293	addi	t0, zero, 4
  00012bb8:	ffc10113	addi	sp, sp, -4
  00012bbc:	00512023	sw	t0, 0(sp)
  00012bc0:	00012303	lw	t1, 0(sp)
  00012bc4:	00412283	lw	t0, 4(sp)
  00012bc8:	00810113	addi	sp, sp, 8
  00012bcc:	006282b3	add	t0, t0, t1
  00012bd0:	ffc10113	addi	sp, sp, -4
  00012bd4:	00512023	sw	t0, 0(sp)
  00012bd8:	ff042283	lw	t0, -16(s0)
  00012bdc:	ffc10113	addi	sp, sp, -4
  00012be0:	00512023	sw	t0, 0(sp)
  00012be4:	00400293	addi	t0, zero, 4
  00012be8:	ffc10113	addi	sp, sp, -4
  00012bec:	00512023	sw	t0, 0(sp)
  00012bf0:	00012303	lw	t1, 0(sp)
  00012bf4:	00412283	lw	t0, 4(sp)
  00012bf8:	00810113	addi	sp, sp, 8
  00012bfc:	026282b3	mul	t0, t0, t1
  00012c00:	ffc10113	addi	sp, sp, -4
  00012c04:	00512023	sw	t0, 0(sp)
  00012c08:	00012283	lw	t0, 0(sp)
  00012c0c:	00410113	addi	sp, sp, 4
  00012c10:	ffc10113	addi	sp, sp, -4
  00012c14:	00512023	sw	t0, 0(sp)
  00012c18:	00012303	lw	t1, 0(sp)
  00012c1c:	00412283	lw	t0, 4(sp)
  00012c20:	00810113	addi	sp, sp, 8
  00012c24:	006282b3	add	t0, t0, t1
  00012c28:	ffc10113	addi	sp, sp, -4
  00012c2c:	00512023	sw	t0, 0(sp)
  00012c30:	fec42283	lw	t0, -20(s0)
  00012c34:	ffc10113	addi	sp, sp, -4
  00012c38:	00512023	sw	t0, 0(sp)
  00012c3c:	00412503	lw	a0, 4(sp)
  00012c40:	00012583	lw	a1, 0(sp)
  00012c44:	ffffd097	auipc	ra, 0xffffd	# 0xfc44
  00012c48:	464080e7	jalr	ra, 1124(ra)
  00012c4c:	00810113	addi	sp, sp, 8
  00012c50:	ffc10113	addi	sp, sp, -4
  00012c54:	00a12023	sw	a0, 0(sp)
  00012c58:	00410113	addi	sp, sp, 4
  00012c5c:	00040293	addi	t0, s0, 0
  00012c60:	ffc2a083	lw	ra, -4(t0)
  00012c64:	ff82a403	lw	s0, -8(t0)
  00012c68:	00028113	addi	sp, t0, 0
  00012c6c:	00008067	ret
  00012c70:	00040293	addi	t0, s0, 0
  00012c74:	ffc2a083	lw	ra, -4(t0)
  00012c78:	ff82a403	lw	s0, -8(t0)
  00012c7c:	00028113	addi	sp, t0, 0
  00012c80:	00008067	ret

00012c84 <set__I8Array__i32__i8>:
  00012c84:	fe010113	addi	sp, sp, -32
  00012c88:	00112e23	sw	ra, 28(sp)
  00012c8c:	00812c23	sw	s0, 24(sp)
  00012c90:	02010413	addi	s0, sp, 32
  00012c94:	fea42a23	sw	a0, -12(s0)
  00012c98:	feb42823	sw	a1, -16(s0)
  00012c9c:	fec42623	sw	a2, -20(s0)
  00012ca0:	ff442283	lw	t0, -12(s0)
  00012ca4:	ffc10113	addi	sp, sp, -4
  00012ca8:	00512023	sw	t0, 0(sp)
  00012cac:	00012283	lw	t0, 0(sp)
  00012cb0:	00410113	addi	sp, sp, 4
  00012cb4:	ffc10113	addi	sp, sp, -4
  00012cb8:	00512023	sw	t0, 0(sp)
  00012cbc:	00400293	addi	t0, zero, 4
  00012cc0:	ffc10113	addi	sp, sp, -4
  00012cc4:	00512023	sw	t0, 0(sp)
  00012cc8:	00012303	lw	t1, 0(sp)
  00012ccc:	00412283	lw	t0, 4(sp)
  00012cd0:	00810113	addi	sp, sp, 8
  00012cd4:	006282b3	add	t0, t0, t1
  00012cd8:	ffc10113	addi	sp, sp, -4
  00012cdc:	00512023	sw	t0, 0(sp)
  00012ce0:	ff042283	lw	t0, -16(s0)
  00012ce4:	ffc10113	addi	sp, sp, -4
  00012ce8:	00512023	sw	t0, 0(sp)
  00012cec:	00012283	lw	t0, 0(sp)
  00012cf0:	00410113	addi	sp, sp, 4
  00012cf4:	ffc10113	addi	sp, sp, -4
  00012cf8:	00512023	sw	t0, 0(sp)
  00012cfc:	00012303	lw	t1, 0(sp)
  00012d00:	00412283	lw	t0, 4(sp)
  00012d04:	00810113	addi	sp, sp, 8
  00012d08:	006282b3	add	t0, t0, t1
  00012d0c:	ffc10113	addi	sp, sp, -4
  00012d10:	00512023	sw	t0, 0(sp)
  00012d14:	fec42283	lw	t0, -20(s0)
  00012d18:	ffc10113	addi	sp, sp, -4
  00012d1c:	00512023	sw	t0, 0(sp)
  00012d20:	00012283	lw	t0, 0(sp)
  00012d24:	00410113	addi	sp, sp, 4
  00012d28:	0ff2f293	andi	t0, t0, 255
  00012d2c:	ffc10113	addi	sp, sp, -4
  00012d30:	00512023	sw	t0, 0(sp)
  00012d34:	00412503	lw	a0, 4(sp)
  00012d38:	00012583	lw	a1, 0(sp)
  00012d3c:	ffffd097	auipc	ra, 0xffffd	# 0xfd3c
  00012d40:	35c080e7	jalr	ra, 860(ra)
  00012d44:	00810113	addi	sp, sp, 8
  00012d48:	ffc10113	addi	sp, sp, -4
  00012d4c:	00a12023	sw	a0, 0(sp)
  00012d50:	00410113	addi	sp, sp, 4
  00012d54:	00040293	addi	t0, s0, 0
  00012d58:	ffc2a083	lw	ra, -4(t0)
  00012d5c:	ff82a403	lw	s0, -8(t0)
  00012d60:	00028113	addi	sp, t0, 0
  00012d64:	00008067	ret
  00012d68:	00040293	addi	t0, s0, 0
  00012d6c:	ffc2a083	lw	ra, -4(t0)
  00012d70:	ff82a403	lw	s0, -8(t0)
  00012d74:	00028113	addi	sp, t0, 0
  00012d78:	00008067	ret

00012d7c <set__I16Array__i32__i16>:
  00012d7c:	fe010113	addi	sp, sp, -32
  00012d80:	00112e23	sw	ra, 28(sp)
  00012d84:	00812c23	sw	s0, 24(sp)
  00012d88:	02010413	addi	s0, sp, 32
  00012d8c:	fea42a23	sw	a0, -12(s0)
  00012d90:	feb42823	sw	a1, -16(s0)
  00012d94:	fec42623	sw	a2, -20(s0)
  00012d98:	ff442283	lw	t0, -12(s0)
  00012d9c:	ffc10113	addi	sp, sp, -4
  00012da0:	00512023	sw	t0, 0(sp)
  00012da4:	00012283	lw	t0, 0(sp)
  00012da8:	00410113	addi	sp, sp, 4
  00012dac:	ffc10113	addi	sp, sp, -4
  00012db0:	00512023	sw	t0, 0(sp)
  00012db4:	00400293	addi	t0, zero, 4
  00012db8:	ffc10113	addi	sp, sp, -4
  00012dbc:	00512023	sw	t0, 0(sp)
  00012dc0:	00012303	lw	t1, 0(sp)
  00012dc4:	00412283	lw	t0, 4(sp)
  00012dc8:	00810113	addi	sp, sp, 8
  00012dcc:	006282b3	add	t0, t0, t1
  00012dd0:	ffc10113	addi	sp, sp, -4
  00012dd4:	00512023	sw	t0, 0(sp)
  00012dd8:	ff042283	lw	t0, -16(s0)
  00012ddc:	ffc10113	addi	sp, sp, -4
  00012de0:	00512023	sw	t0, 0(sp)
  00012de4:	00200293	addi	t0, zero, 2
  00012de8:	ffc10113	addi	sp, sp, -4
  00012dec:	00512023	sw	t0, 0(sp)
  00012df0:	00012303	lw	t1, 0(sp)
  00012df4:	00412283	lw	t0, 4(sp)
  00012df8:	00810113	addi	sp, sp, 8
  00012dfc:	026282b3	mul	t0, t0, t1
  00012e00:	ffc10113	addi	sp, sp, -4
  00012e04:	00512023	sw	t0, 0(sp)
  00012e08:	00012283	lw	t0, 0(sp)
  00012e0c:	00410113	addi	sp, sp, 4
  00012e10:	ffc10113	addi	sp, sp, -4
  00012e14:	00512023	sw	t0, 0(sp)
  00012e18:	00012303	lw	t1, 0(sp)
  00012e1c:	00412283	lw	t0, 4(sp)
  00012e20:	00810113	addi	sp, sp, 8
  00012e24:	006282b3	add	t0, t0, t1
  00012e28:	ffc10113	addi	sp, sp, -4
  00012e2c:	00512023	sw	t0, 0(sp)
  00012e30:	fec42283	lw	t0, -20(s0)
  00012e34:	ffc10113	addi	sp, sp, -4
  00012e38:	00512023	sw	t0, 0(sp)
  00012e3c:	00012283	lw	t0, 0(sp)
  00012e40:	00410113	addi	sp, sp, 4
  00012e44:	01029293	slli	t0, t0, 16
  00012e48:	0102d293	srli	t0, t0, 16
  00012e4c:	ffc10113	addi	sp, sp, -4
  00012e50:	00512023	sw	t0, 0(sp)
  00012e54:	00412503	lw	a0, 4(sp)
  00012e58:	00012583	lw	a1, 0(sp)
  00012e5c:	ffffd097	auipc	ra, 0xffffd	# 0xfe5c
  00012e60:	244080e7	jalr	ra, 580(ra)
  00012e64:	00810113	addi	sp, sp, 8
  00012e68:	ffc10113	addi	sp, sp, -4
  00012e6c:	00a12023	sw	a0, 0(sp)
  00012e70:	00410113	addi	sp, sp, 4
  00012e74:	00040293	addi	t0, s0, 0
  00012e78:	ffc2a083	lw	ra, -4(t0)
  00012e7c:	ff82a403	lw	s0, -8(t0)
  00012e80:	00028113	addi	sp, t0, 0
  00012e84:	00008067	ret
  00012e88:	00040293	addi	t0, s0, 0
  00012e8c:	ffc2a083	lw	ra, -4(t0)
  00012e90:	ff82a403	lw	s0, -8(t0)
  00012e94:	00028113	addi	sp, t0, 0
  00012e98:	00008067	ret

00012e9c <set__I32Array__i32__i32>:
  00012e9c:	fe010113	addi	sp, sp, -32
  00012ea0:	00112e23	sw	ra, 28(sp)
  00012ea4:	00812c23	sw	s0, 24(sp)
  00012ea8:	02010413	addi	s0, sp, 32
  00012eac:	fea42a23	sw	a0, -12(s0)
  00012eb0:	feb42823	sw	a1, -16(s0)
  00012eb4:	fec42623	sw	a2, -20(s0)
  00012eb8:	ff442283	lw	t0, -12(s0)
  00012ebc:	ffc10113	addi	sp, sp, -4
  00012ec0:	00512023	sw	t0, 0(sp)
  00012ec4:	00012283	lw	t0, 0(sp)
  00012ec8:	00410113	addi	sp, sp, 4
  00012ecc:	ffc10113	addi	sp, sp, -4
  00012ed0:	00512023	sw	t0, 0(sp)
  00012ed4:	00400293	addi	t0, zero, 4
  00012ed8:	ffc10113	addi	sp, sp, -4
  00012edc:	00512023	sw	t0, 0(sp)
  00012ee0:	00012303	lw	t1, 0(sp)
  00012ee4:	00412283	lw	t0, 4(sp)
  00012ee8:	00810113	addi	sp, sp, 8
  00012eec:	006282b3	add	t0, t0, t1
  00012ef0:	ffc10113	addi	sp, sp, -4
  00012ef4:	00512023	sw	t0, 0(sp)
  00012ef8:	ff042283	lw	t0, -16(s0)
  00012efc:	ffc10113	addi	sp, sp, -4
  00012f00:	00512023	sw	t0, 0(sp)
  00012f04:	00400293	addi	t0, zero, 4
  00012f08:	ffc10113	addi	sp, sp, -4
  00012f0c:	00512023	sw	t0, 0(sp)
  00012f10:	00012303	lw	t1, 0(sp)
  00012f14:	00412283	lw	t0, 4(sp)
  00012f18:	00810113	addi	sp, sp, 8
  00012f1c:	026282b3	mul	t0, t0, t1
  00012f20:	ffc10113	addi	sp, sp, -4
  00012f24:	00512023	sw	t0, 0(sp)
  00012f28:	00012283	lw	t0, 0(sp)
  00012f2c:	00410113	addi	sp, sp, 4
  00012f30:	ffc10113	addi	sp, sp, -4
  00012f34:	00512023	sw	t0, 0(sp)
  00012f38:	00012303	lw	t1, 0(sp)
  00012f3c:	00412283	lw	t0, 4(sp)
  00012f40:	00810113	addi	sp, sp, 8
  00012f44:	006282b3	add	t0, t0, t1
  00012f48:	ffc10113	addi	sp, sp, -4
  00012f4c:	00512023	sw	t0, 0(sp)
  00012f50:	fec42283	lw	t0, -20(s0)
  00012f54:	ffc10113	addi	sp, sp, -4
  00012f58:	00512023	sw	t0, 0(sp)
  00012f5c:	00012283	lw	t0, 0(sp)
  00012f60:	00410113	addi	sp, sp, 4
  00012f64:	ffc10113	addi	sp, sp, -4
  00012f68:	00512023	sw	t0, 0(sp)
  00012f6c:	00412503	lw	a0, 4(sp)
  00012f70:	00012583	lw	a1, 0(sp)
  00012f74:	ffffd097	auipc	ra, 0xffffd	# 0xff74
  00012f78:	134080e7	jalr	ra, 308(ra)
  00012f7c:	00810113	addi	sp, sp, 8
  00012f80:	ffc10113	addi	sp, sp, -4
  00012f84:	00a12023	sw	a0, 0(sp)
  00012f88:	00410113	addi	sp, sp, 4
  00012f8c:	00040293	addi	t0, s0, 0
  00012f90:	ffc2a083	lw	ra, -4(t0)
  00012f94:	ff82a403	lw	s0, -8(t0)
  00012f98:	00028113	addi	sp, t0, 0
  00012f9c:	00008067	ret
  00012fa0:	00040293	addi	t0, s0, 0
  00012fa4:	ffc2a083	lw	ra, -4(t0)
  00012fa8:	ff82a403	lw	s0, -8(t0)
  00012fac:	00028113	addi	sp, t0, 0
  00012fb0:	00008067	ret

00012fb4 <set__StringArray__i32__String>:
  00012fb4:	fe010113	addi	sp, sp, -32
  00012fb8:	00112e23	sw	ra, 28(sp)
  00012fbc:	00812c23	sw	s0, 24(sp)
  00012fc0:	02010413	addi	s0, sp, 32
  00012fc4:	fea42a23	sw	a0, -12(s0)
  00012fc8:	feb42823	sw	a1, -16(s0)
  00012fcc:	fec42623	sw	a2, -20(s0)
  00012fd0:	ff442283	lw	t0, -12(s0)
  00012fd4:	ffc10113	addi	sp, sp, -4
  00012fd8:	00512023	sw	t0, 0(sp)
  00012fdc:	00012283	lw	t0, 0(sp)
  00012fe0:	00410113	addi	sp, sp, 4
  00012fe4:	ffc10113	addi	sp, sp, -4
  00012fe8:	00512023	sw	t0, 0(sp)
  00012fec:	00400293	addi	t0, zero, 4
  00012ff0:	ffc10113	addi	sp, sp, -4
  00012ff4:	00512023	sw	t0, 0(sp)
  00012ff8:	00012303	lw	t1, 0(sp)
  00012ffc:	00412283	lw	t0, 4(sp)
  00013000:	00810113	addi	sp, sp, 8
  00013004:	006282b3	add	t0, t0, t1
  00013008:	ffc10113	addi	sp, sp, -4
  0001300c:	00512023	sw	t0, 0(sp)
  00013010:	ff042283	lw	t0, -16(s0)
  00013014:	ffc10113	addi	sp, sp, -4
  00013018:	00512023	sw	t0, 0(sp)
  0001301c:	00400293	addi	t0, zero, 4
  00013020:	ffc10113	addi	sp, sp, -4
  00013024:	00512023	sw	t0, 0(sp)
  00013028:	00012303	lw	t1, 0(sp)
  0001302c:	00412283	lw	t0, 4(sp)
  00013030:	00810113	addi	sp, sp, 8
  00013034:	026282b3	mul	t0, t0, t1
  00013038:	ffc10113	addi	sp, sp, -4
  0001303c:	00512023	sw	t0, 0(sp)
  00013040:	00012283	lw	t0, 0(sp)
  00013044:	00410113	addi	sp, sp, 4
  00013048:	ffc10113	addi	sp, sp, -4
  0001304c:	00512023	sw	t0, 0(sp)
  00013050:	00012303	lw	t1, 0(sp)
  00013054:	00412283	lw	t0, 4(sp)
  00013058:	00810113	addi	sp, sp, 8
  0001305c:	006282b3	add	t0, t0, t1
  00013060:	ffc10113	addi	sp, sp, -4
  00013064:	00512023	sw	t0, 0(sp)
  00013068:	fec42283	lw	t0, -20(s0)
  0001306c:	ffc10113	addi	sp, sp, -4
  00013070:	00512023	sw	t0, 0(sp)
  00013074:	00012283	lw	t0, 0(sp)
  00013078:	00410113	addi	sp, sp, 4
  0001307c:	ffc10113	addi	sp, sp, -4
  00013080:	00512023	sw	t0, 0(sp)
  00013084:	00412503	lw	a0, 4(sp)
  00013088:	00012583	lw	a1, 0(sp)
  0001308c:	ffffd097	auipc	ra, 0xffffd	# 0x1008c
  00013090:	01c080e7	jalr	ra, 28(ra)
  00013094:	00810113	addi	sp, sp, 8
  00013098:	ffc10113	addi	sp, sp, -4
  0001309c:	00a12023	sw	a0, 0(sp)
  000130a0:	00410113	addi	sp, sp, 4
  000130a4:	00040293	addi	t0, s0, 0
  000130a8:	ffc2a083	lw	ra, -4(t0)
  000130ac:	ff82a403	lw	s0, -8(t0)
  000130b0:	00028113	addi	sp, t0, 0
  000130b4:	00008067	ret
  000130b8:	00040293	addi	t0, s0, 0
  000130bc:	ffc2a083	lw	ra, -4(t0)
  000130c0:	ff82a403	lw	s0, -8(t0)
  000130c4:	00028113	addi	sp, t0, 0
  000130c8:	00008067	ret

000130cc <set__StringArray__i32__StringLiteral>:
  000130cc:	fe010113	addi	sp, sp, -32
  000130d0:	00112e23	sw	ra, 28(sp)
  000130d4:	00812c23	sw	s0, 24(sp)
  000130d8:	02010413	addi	s0, sp, 32
  000130dc:	fea42a23	sw	a0, -12(s0)
  000130e0:	feb42823	sw	a1, -16(s0)
  000130e4:	fec42623	sw	a2, -20(s0)
  000130e8:	ff442283	lw	t0, -12(s0)
  000130ec:	ffc10113	addi	sp, sp, -4
  000130f0:	00512023	sw	t0, 0(sp)
  000130f4:	00012283	lw	t0, 0(sp)
  000130f8:	00410113	addi	sp, sp, 4
  000130fc:	ffc10113	addi	sp, sp, -4
  00013100:	00512023	sw	t0, 0(sp)
  00013104:	00400293	addi	t0, zero, 4
  00013108:	ffc10113	addi	sp, sp, -4
  0001310c:	00512023	sw	t0, 0(sp)
  00013110:	00012303	lw	t1, 0(sp)
  00013114:	00412283	lw	t0, 4(sp)
  00013118:	00810113	addi	sp, sp, 8
  0001311c:	006282b3	add	t0, t0, t1
  00013120:	ffc10113	addi	sp, sp, -4
  00013124:	00512023	sw	t0, 0(sp)
  00013128:	ff042283	lw	t0, -16(s0)
  0001312c:	ffc10113	addi	sp, sp, -4
  00013130:	00512023	sw	t0, 0(sp)
  00013134:	00400293	addi	t0, zero, 4
  00013138:	ffc10113	addi	sp, sp, -4
  0001313c:	00512023	sw	t0, 0(sp)
  00013140:	00012303	lw	t1, 0(sp)
  00013144:	00412283	lw	t0, 4(sp)
  00013148:	00810113	addi	sp, sp, 8
  0001314c:	026282b3	mul	t0, t0, t1
  00013150:	ffc10113	addi	sp, sp, -4
  00013154:	00512023	sw	t0, 0(sp)
  00013158:	00012283	lw	t0, 0(sp)
  0001315c:	00410113	addi	sp, sp, 4
  00013160:	ffc10113	addi	sp, sp, -4
  00013164:	00512023	sw	t0, 0(sp)
  00013168:	00012303	lw	t1, 0(sp)
  0001316c:	00412283	lw	t0, 4(sp)
  00013170:	00810113	addi	sp, sp, 8
  00013174:	006282b3	add	t0, t0, t1
  00013178:	ffc10113	addi	sp, sp, -4
  0001317c:	00512023	sw	t0, 0(sp)
  00013180:	fec42283	lw	t0, -20(s0)
  00013184:	ffc10113	addi	sp, sp, -4
  00013188:	00512023	sw	t0, 0(sp)
  0001318c:	00012283	lw	t0, 0(sp)
  00013190:	00410113	addi	sp, sp, 4
  00013194:	ffc10113	addi	sp, sp, -4
  00013198:	00512023	sw	t0, 0(sp)
  0001319c:	00412503	lw	a0, 4(sp)
  000131a0:	00012583	lw	a1, 0(sp)
  000131a4:	ffffd097	auipc	ra, 0xffffd	# 0x101a4
  000131a8:	f04080e7	jalr	ra, -252(ra)
  000131ac:	00810113	addi	sp, sp, 8
  000131b0:	ffc10113	addi	sp, sp, -4
  000131b4:	00a12023	sw	a0, 0(sp)
  000131b8:	00410113	addi	sp, sp, 4
  000131bc:	00040293	addi	t0, s0, 0
  000131c0:	ffc2a083	lw	ra, -4(t0)
  000131c4:	ff82a403	lw	s0, -8(t0)
  000131c8:	00028113	addi	sp, t0, 0
  000131cc:	00008067	ret
  000131d0:	00040293	addi	t0, s0, 0
  000131d4:	ffc2a083	lw	ra, -4(t0)
  000131d8:	ff82a403	lw	s0, -8(t0)
  000131dc:	00028113	addi	sp, t0, 0
  000131e0:	00008067	ret

000131e4 <delete_impl__u32>:
  000131e4:	fe010113	addi	sp, sp, -32
  000131e8:	00112e23	sw	ra, 28(sp)
  000131ec:	00812c23	sw	s0, 24(sp)
  000131f0:	02010413	addi	s0, sp, 32
  000131f4:	fea42a23	sw	a0, -12(s0)
  000131f8:	ff442283	lw	t0, -12(s0)
  000131fc:	ffc10113	addi	sp, sp, -4
  00013200:	00512023	sw	t0, 0(sp)
  00013204:	00000293	addi	t0, zero, 0
  00013208:	ffc10113	addi	sp, sp, -4
  0001320c:	00512023	sw	t0, 0(sp)
  00013210:	00012303	lw	t1, 0(sp)
  00013214:	00412283	lw	t0, 4(sp)
  00013218:	00810113	addi	sp, sp, 8
  0001321c:	406282b3	sub	t0, t0, t1
  00013220:	0012b293	sltiu	t0, t0, 1
  00013224:	ffc10113	addi	sp, sp, -4
  00013228:	00512023	sw	t0, 0(sp)
  0001322c:	00012283	lw	t0, 0(sp)
  00013230:	00410113	addi	sp, sp, 4
  00013234:	00028c63	beq	t0, zero, 0x1324c
  00013238:	00040293	addi	t0, s0, 0
  0001323c:	ffc2a083	lw	ra, -4(t0)
  00013240:	ff82a403	lw	s0, -8(t0)
  00013244:	00028113	addi	sp, t0, 0
  00013248:	00008067	ret

0001324c <.L_f41_pc5>:
  0001324c:	ff442283	lw	t0, -12(s0)
  00013250:	ffc10113	addi	sp, sp, -4
  00013254:	00512023	sw	t0, 0(sp)
  00013258:	00012503	lw	a0, 0(sp)
  0001325c:	ffffe097	auipc	ra, 0xffffe	# 0x1125c
  00013260:	be8080e7	jalr	ra, -1048(ra)
  00013264:	00410113	addi	sp, sp, 4
  00013268:	ffc10113	addi	sp, sp, -4
  0001326c:	00a12023	sw	a0, 0(sp)
  00013270:	00410113	addi	sp, sp, 4
  00013274:	00040293	addi	t0, s0, 0
  00013278:	ffc2a083	lw	ra, -4(t0)
  0001327c:	ff82a403	lw	s0, -8(t0)
  00013280:	00028113	addi	sp, t0, 0
  00013284:	00008067	ret
  00013288:	00040293	addi	t0, s0, 0
  0001328c:	ffc2a083	lw	ra, -4(t0)
  00013290:	ff82a403	lw	s0, -8(t0)
  00013294:	00028113	addi	sp, t0, 0
  00013298:	00008067	ret

0001329c <delete__U8Array>:
  0001329c:	ff010113	addi	sp, sp, -16
  000132a0:	00112623	sw	ra, 12(sp)
  000132a4:	00812423	sw	s0, 8(sp)
  000132a8:	01010413	addi	s0, sp, 16
  000132ac:	fea42a23	sw	a0, -12(s0)
  000132b0:	ff442283	lw	t0, -12(s0)
  000132b4:	ffc10113	addi	sp, sp, -4
  000132b8:	00512023	sw	t0, 0(sp)
  000132bc:	00012283	lw	t0, 0(sp)
  000132c0:	00410113	addi	sp, sp, 4
  000132c4:	ffc10113	addi	sp, sp, -4
  000132c8:	00512023	sw	t0, 0(sp)
  000132cc:	00012503	lw	a0, 0(sp)
  000132d0:	00000097	auipc	ra, 0x0	# 0x132d0
  000132d4:	f14080e7	jalr	ra, -236(ra)
  000132d8:	00410113	addi	sp, sp, 4
  000132dc:	ffc10113	addi	sp, sp, -4
  000132e0:	00a12023	sw	a0, 0(sp)
  000132e4:	00410113	addi	sp, sp, 4
  000132e8:	00040293	addi	t0, s0, 0
  000132ec:	ffc2a083	lw	ra, -4(t0)
  000132f0:	ff82a403	lw	s0, -8(t0)
  000132f4:	00028113	addi	sp, t0, 0
  000132f8:	00008067	ret
  000132fc:	00040293	addi	t0, s0, 0
  00013300:	ffc2a083	lw	ra, -4(t0)
  00013304:	ff82a403	lw	s0, -8(t0)
  00013308:	00028113	addi	sp, t0, 0
  0001330c:	00008067	ret

00013310 <delete__U16Array>:
  00013310:	ff010113	addi	sp, sp, -16
  00013314:	00112623	sw	ra, 12(sp)
  00013318:	00812423	sw	s0, 8(sp)
  0001331c:	01010413	addi	s0, sp, 16
  00013320:	fea42a23	sw	a0, -12(s0)
  00013324:	ff442283	lw	t0, -12(s0)
  00013328:	ffc10113	addi	sp, sp, -4
  0001332c:	00512023	sw	t0, 0(sp)
  00013330:	00012283	lw	t0, 0(sp)
  00013334:	00410113	addi	sp, sp, 4
  00013338:	ffc10113	addi	sp, sp, -4
  0001333c:	00512023	sw	t0, 0(sp)
  00013340:	00012503	lw	a0, 0(sp)
  00013344:	00000097	auipc	ra, 0x0	# 0x13344
  00013348:	ea0080e7	jalr	ra, -352(ra)
  0001334c:	00410113	addi	sp, sp, 4
  00013350:	ffc10113	addi	sp, sp, -4
  00013354:	00a12023	sw	a0, 0(sp)
  00013358:	00410113	addi	sp, sp, 4
  0001335c:	00040293	addi	t0, s0, 0
  00013360:	ffc2a083	lw	ra, -4(t0)
  00013364:	ff82a403	lw	s0, -8(t0)
  00013368:	00028113	addi	sp, t0, 0
  0001336c:	00008067	ret
  00013370:	00040293	addi	t0, s0, 0
  00013374:	ffc2a083	lw	ra, -4(t0)
  00013378:	ff82a403	lw	s0, -8(t0)
  0001337c:	00028113	addi	sp, t0, 0
  00013380:	00008067	ret

00013384 <delete__U32Array>:
  00013384:	ff010113	addi	sp, sp, -16
  00013388:	00112623	sw	ra, 12(sp)
  0001338c:	00812423	sw	s0, 8(sp)
  00013390:	01010413	addi	s0, sp, 16
  00013394:	fea42a23	sw	a0, -12(s0)
  00013398:	ff442283	lw	t0, -12(s0)
  0001339c:	ffc10113	addi	sp, sp, -4
  000133a0:	00512023	sw	t0, 0(sp)
  000133a4:	00012283	lw	t0, 0(sp)
  000133a8:	00410113	addi	sp, sp, 4
  000133ac:	ffc10113	addi	sp, sp, -4
  000133b0:	00512023	sw	t0, 0(sp)
  000133b4:	00012503	lw	a0, 0(sp)
  000133b8:	00000097	auipc	ra, 0x0	# 0x133b8
  000133bc:	e2c080e7	jalr	ra, -468(ra)
  000133c0:	00410113	addi	sp, sp, 4
  000133c4:	ffc10113	addi	sp, sp, -4
  000133c8:	00a12023	sw	a0, 0(sp)
  000133cc:	00410113	addi	sp, sp, 4
  000133d0:	00040293	addi	t0, s0, 0
  000133d4:	ffc2a083	lw	ra, -4(t0)
  000133d8:	ff82a403	lw	s0, -8(t0)
  000133dc:	00028113	addi	sp, t0, 0
  000133e0:	00008067	ret
  000133e4:	00040293	addi	t0, s0, 0
  000133e8:	ffc2a083	lw	ra, -4(t0)
  000133ec:	ff82a403	lw	s0, -8(t0)
  000133f0:	00028113	addi	sp, t0, 0
  000133f4:	00008067	ret

000133f8 <delete__I8Array>:
  000133f8:	ff010113	addi	sp, sp, -16
  000133fc:	00112623	sw	ra, 12(sp)
  00013400:	00812423	sw	s0, 8(sp)
  00013404:	01010413	addi	s0, sp, 16
  00013408:	fea42a23	sw	a0, -12(s0)
  0001340c:	ff442283	lw	t0, -12(s0)
  00013410:	ffc10113	addi	sp, sp, -4
  00013414:	00512023	sw	t0, 0(sp)
  00013418:	00012283	lw	t0, 0(sp)
  0001341c:	00410113	addi	sp, sp, 4
  00013420:	ffc10113	addi	sp, sp, -4
  00013424:	00512023	sw	t0, 0(sp)
  00013428:	00012503	lw	a0, 0(sp)
  0001342c:	00000097	auipc	ra, 0x0	# 0x1342c
  00013430:	db8080e7	jalr	ra, -584(ra)
  00013434:	00410113	addi	sp, sp, 4
  00013438:	ffc10113	addi	sp, sp, -4
  0001343c:	00a12023	sw	a0, 0(sp)
  00013440:	00410113	addi	sp, sp, 4
  00013444:	00040293	addi	t0, s0, 0
  00013448:	ffc2a083	lw	ra, -4(t0)
  0001344c:	ff82a403	lw	s0, -8(t0)
  00013450:	00028113	addi	sp, t0, 0
  00013454:	00008067	ret
  00013458:	00040293	addi	t0, s0, 0
  0001345c:	ffc2a083	lw	ra, -4(t0)
  00013460:	ff82a403	lw	s0, -8(t0)
  00013464:	00028113	addi	sp, t0, 0
  00013468:	00008067	ret

0001346c <delete__I16Array>:
  0001346c:	ff010113	addi	sp, sp, -16
  00013470:	00112623	sw	ra, 12(sp)
  00013474:	00812423	sw	s0, 8(sp)
  00013478:	01010413	addi	s0, sp, 16
  0001347c:	fea42a23	sw	a0, -12(s0)
  00013480:	ff442283	lw	t0, -12(s0)
  00013484:	ffc10113	addi	sp, sp, -4
  00013488:	00512023	sw	t0, 0(sp)
  0001348c:	00012283	lw	t0, 0(sp)
  00013490:	00410113	addi	sp, sp, 4
  00013494:	ffc10113	addi	sp, sp, -4
  00013498:	00512023	sw	t0, 0(sp)
  0001349c:	00012503	lw	a0, 0(sp)
  000134a0:	00000097	auipc	ra, 0x0	# 0x134a0
  000134a4:	d44080e7	jalr	ra, -700(ra)
  000134a8:	00410113	addi	sp, sp, 4
  000134ac:	ffc10113	addi	sp, sp, -4
  000134b0:	00a12023	sw	a0, 0(sp)
  000134b4:	00410113	addi	sp, sp, 4
  000134b8:	00040293	addi	t0, s0, 0
  000134bc:	ffc2a083	lw	ra, -4(t0)
  000134c0:	ff82a403	lw	s0, -8(t0)
  000134c4:	00028113	addi	sp, t0, 0
  000134c8:	00008067	ret
  000134cc:	00040293	addi	t0, s0, 0
  000134d0:	ffc2a083	lw	ra, -4(t0)
  000134d4:	ff82a403	lw	s0, -8(t0)
  000134d8:	00028113	addi	sp, t0, 0
  000134dc:	00008067	ret

000134e0 <delete__I32Array>:
  000134e0:	ff010113	addi	sp, sp, -16
  000134e4:	00112623	sw	ra, 12(sp)
  000134e8:	00812423	sw	s0, 8(sp)
  000134ec:	01010413	addi	s0, sp, 16
  000134f0:	fea42a23	sw	a0, -12(s0)
  000134f4:	ff442283	lw	t0, -12(s0)
  000134f8:	ffc10113	addi	sp, sp, -4
  000134fc:	00512023	sw	t0, 0(sp)
  00013500:	00012283	lw	t0, 0(sp)
  00013504:	00410113	addi	sp, sp, 4
  00013508:	ffc10113	addi	sp, sp, -4
  0001350c:	00512023	sw	t0, 0(sp)
  00013510:	00012503	lw	a0, 0(sp)
  00013514:	00000097	auipc	ra, 0x0	# 0x13514
  00013518:	cd0080e7	jalr	ra, -816(ra)
  0001351c:	00410113	addi	sp, sp, 4
  00013520:	ffc10113	addi	sp, sp, -4
  00013524:	00a12023	sw	a0, 0(sp)
  00013528:	00410113	addi	sp, sp, 4
  0001352c:	00040293	addi	t0, s0, 0
  00013530:	ffc2a083	lw	ra, -4(t0)
  00013534:	ff82a403	lw	s0, -8(t0)
  00013538:	00028113	addi	sp, t0, 0
  0001353c:	00008067	ret
  00013540:	00040293	addi	t0, s0, 0
  00013544:	ffc2a083	lw	ra, -4(t0)
  00013548:	ff82a403	lw	s0, -8(t0)
  0001354c:	00028113	addi	sp, t0, 0
  00013550:	00008067	ret

00013554 <delete__StringArray>:
  00013554:	ff010113	addi	sp, sp, -16
  00013558:	00112623	sw	ra, 12(sp)
  0001355c:	00812423	sw	s0, 8(sp)
  00013560:	01010413	addi	s0, sp, 16
  00013564:	fea42a23	sw	a0, -12(s0)
  00013568:	ff442283	lw	t0, -12(s0)
  0001356c:	ffc10113	addi	sp, sp, -4
  00013570:	00512023	sw	t0, 0(sp)
  00013574:	00012283	lw	t0, 0(sp)
  00013578:	00410113	addi	sp, sp, 4
  0001357c:	ffc10113	addi	sp, sp, -4
  00013580:	00512023	sw	t0, 0(sp)
  00013584:	00012503	lw	a0, 0(sp)
  00013588:	00000097	auipc	ra, 0x0	# 0x13588
  0001358c:	c5c080e7	jalr	ra, -932(ra)
  00013590:	00410113	addi	sp, sp, 4
  00013594:	ffc10113	addi	sp, sp, -4
  00013598:	00a12023	sw	a0, 0(sp)
  0001359c:	00410113	addi	sp, sp, 4
  000135a0:	00040293	addi	t0, s0, 0
  000135a4:	ffc2a083	lw	ra, -4(t0)
  000135a8:	ff82a403	lw	s0, -8(t0)
  000135ac:	00028113	addi	sp, t0, 0
  000135b0:	00008067	ret
  000135b4:	00040293	addi	t0, s0, 0
  000135b8:	ffc2a083	lw	ra, -4(t0)
  000135bc:	ff82a403	lw	s0, -8(t0)
  000135c0:	00028113	addi	sp, t0, 0
  000135c4:	00008067	ret

000135c8 <delete__String>:
  000135c8:	ff010113	addi	sp, sp, -16
  000135cc:	00112623	sw	ra, 12(sp)
  000135d0:	00812423	sw	s0, 8(sp)
  000135d4:	01010413	addi	s0, sp, 16
  000135d8:	fea42a23	sw	a0, -12(s0)
  000135dc:	ff442283	lw	t0, -12(s0)
  000135e0:	ffc10113	addi	sp, sp, -4
  000135e4:	00512023	sw	t0, 0(sp)
  000135e8:	00012283	lw	t0, 0(sp)
  000135ec:	00410113	addi	sp, sp, 4
  000135f0:	ffc10113	addi	sp, sp, -4
  000135f4:	00512023	sw	t0, 0(sp)
  000135f8:	00012503	lw	a0, 0(sp)
  000135fc:	00000097	auipc	ra, 0x0	# 0x135fc
  00013600:	be8080e7	jalr	ra, -1048(ra)
  00013604:	00410113	addi	sp, sp, 4
  00013608:	ffc10113	addi	sp, sp, -4
  0001360c:	00a12023	sw	a0, 0(sp)
  00013610:	00410113	addi	sp, sp, 4
  00013614:	00040293	addi	t0, s0, 0
  00013618:	ffc2a083	lw	ra, -4(t0)
  0001361c:	ff82a403	lw	s0, -8(t0)
  00013620:	00028113	addi	sp, t0, 0
  00013624:	00008067	ret
  00013628:	00040293	addi	t0, s0, 0
  0001362c:	ffc2a083	lw	ra, -4(t0)
  00013630:	ff82a403	lw	s0, -8(t0)
  00013634:	00028113	addi	sp, t0, 0
  00013638:	00008067	ret

0001363c <delete__StringLiteral>:
  0001363c:	ff010113	addi	sp, sp, -16
  00013640:	00112623	sw	ra, 12(sp)
  00013644:	00812423	sw	s0, 8(sp)
  00013648:	01010413	addi	s0, sp, 16
  0001364c:	fea42a23	sw	a0, -12(s0)
  00013650:	00040293	addi	t0, s0, 0
  00013654:	ffc2a083	lw	ra, -4(t0)
  00013658:	ff82a403	lw	s0, -8(t0)
  0001365c:	00028113	addi	sp, t0, 0
  00013660:	00008067	ret
  00013664:	00040293	addi	t0, s0, 0
  00013668:	ffc2a083	lw	ra, -4(t0)
  0001366c:	ff82a403	lw	s0, -8(t0)
  00013670:	00028113	addi	sp, t0, 0
  00013674:	00008067	ret

00013678 <heap_mark>:
  00013678:	ff010113	addi	sp, sp, -16
  0001367c:	00112623	sw	ra, 12(sp)
  00013680:	00812423	sw	s0, 8(sp)
  00013684:	01010413	addi	s0, sp, 16
  00013688:	00000293	addi	t0, zero, 0
  0001368c:	ffc10113	addi	sp, sp, -4
  00013690:	00512023	sw	t0, 0(sp)
  00013694:	00012283	lw	t0, 0(sp)
  00013698:	00410113	addi	sp, sp, 4
  0001369c:	00028513	addi	a0, t0, 0
  000136a0:	00040293	addi	t0, s0, 0
  000136a4:	ffc2a083	lw	ra, -4(t0)
  000136a8:	ff82a403	lw	s0, -8(t0)
  000136ac:	00028113	addi	sp, t0, 0
  000136b0:	00008067	ret
  000136b4:	00040293	addi	t0, s0, 0
  000136b8:	ffc2a083	lw	ra, -4(t0)
  000136bc:	ff82a403	lw	s0, -8(t0)
  000136c0:	00028113	addi	sp, t0, 0
  000136c4:	00008067	ret

000136c8 <heap_reset__i32>:
  000136c8:	ff010113	addi	sp, sp, -16
  000136cc:	00112623	sw	ra, 12(sp)
  000136d0:	00812423	sw	s0, 8(sp)
  000136d4:	01010413	addi	s0, sp, 16
  000136d8:	fea42a23	sw	a0, -12(s0)
  000136dc:	00040293	addi	t0, s0, 0
  000136e0:	ffc2a083	lw	ra, -4(t0)
  000136e4:	ff82a403	lw	s0, -8(t0)
  000136e8:	00028113	addi	sp, t0, 0
  000136ec:	00008067	ret
  000136f0:	00040293	addi	t0, s0, 0
  000136f4:	ffc2a083	lw	ra, -4(t0)
  000136f8:	ff82a403	lw	s0, -8(t0)
  000136fc:	00028113	addi	sp, t0, 0
  00013700:	00008067	ret

00013704 <sys_write__i32__U8Array__i32>:
  00013704:	fd010113	addi	sp, sp, -48
  00013708:	02112623	sw	ra, 44(sp)
  0001370c:	02812423	sw	s0, 40(sp)
  00013710:	03010413	addi	s0, sp, 48
  00013714:	fea42a23	sw	a0, -12(s0)
  00013718:	feb42823	sw	a1, -16(s0)
  0001371c:	fec42623	sw	a2, -20(s0)
  00013720:	fe042423	sw	zero, -24(s0)
  00013724:	fe042223	sw	zero, -28(s0)
  00013728:	ff042283	lw	t0, -16(s0)
  0001372c:	ffc10113	addi	sp, sp, -4
  00013730:	00512023	sw	t0, 0(sp)
  00013734:	00012283	lw	t0, 0(sp)
  00013738:	00410113	addi	sp, sp, 4
  0001373c:	ffc10113	addi	sp, sp, -4
  00013740:	00512023	sw	t0, 0(sp)
  00013744:	00000293	addi	t0, zero, 0
  00013748:	ffc10113	addi	sp, sp, -4
  0001374c:	00512023	sw	t0, 0(sp)
  00013750:	00012303	lw	t1, 0(sp)
  00013754:	00412283	lw	t0, 4(sp)
  00013758:	00810113	addi	sp, sp, 8
  0001375c:	406282b3	sub	t0, t0, t1
  00013760:	0012b293	sltiu	t0, t0, 1
  00013764:	ffc10113	addi	sp, sp, -4
  00013768:	00512023	sw	t0, 0(sp)
  0001376c:	00012283	lw	t0, 0(sp)
  00013770:	00410113	addi	sp, sp, 4
  00013774:	04028a63	beq	t0, zero, 0x137c8
  00013778:	00000293	addi	t0, zero, 0
  0001377c:	ffc10113	addi	sp, sp, -4
  00013780:	00512023	sw	t0, 0(sp)
  00013784:	00100293	addi	t0, zero, 1
  00013788:	ffc10113	addi	sp, sp, -4
  0001378c:	00512023	sw	t0, 0(sp)
  00013790:	00012303	lw	t1, 0(sp)
  00013794:	00412283	lw	t0, 4(sp)
  00013798:	00810113	addi	sp, sp, 8
  0001379c:	406282b3	sub	t0, t0, t1
  000137a0:	ffc10113	addi	sp, sp, -4
  000137a4:	00512023	sw	t0, 0(sp)
  000137a8:	00012283	lw	t0, 0(sp)
  000137ac:	00410113	addi	sp, sp, 4
  000137b0:	00028513	addi	a0, t0, 0
  000137b4:	00040293	addi	t0, s0, 0
  000137b8:	ffc2a083	lw	ra, -4(t0)
  000137bc:	ff82a403	lw	s0, -8(t0)
  000137c0:	00028113	addi	sp, t0, 0
  000137c4:	00008067	ret

000137c8 <.L_f53_pc9>:
  000137c8:	ff042283	lw	t0, -16(s0)
  000137cc:	ffc10113	addi	sp, sp, -4
  000137d0:	00512023	sw	t0, 0(sp)
  000137d4:	00012283	lw	t0, 0(sp)
  000137d8:	00410113	addi	sp, sp, 4
  000137dc:	ffc10113	addi	sp, sp, -4
  000137e0:	00512023	sw	t0, 0(sp)
  000137e4:	00012503	lw	a0, 0(sp)
  000137e8:	ffffd097	auipc	ra, 0xffffd	# 0x107e8
  000137ec:	8a8080e7	jalr	ra, -1880(ra)
  000137f0:	00410113	addi	sp, sp, 4
  000137f4:	ffc10113	addi	sp, sp, -4
  000137f8:	00a12023	sw	a0, 0(sp)
  000137fc:	00012283	lw	t0, 0(sp)
  00013800:	00410113	addi	sp, sp, 4
  00013804:	ffc10113	addi	sp, sp, -4
  00013808:	00512023	sw	t0, 0(sp)
  0001380c:	00012283	lw	t0, 0(sp)
  00013810:	00410113	addi	sp, sp, 4
  00013814:	fe542423	sw	t0, -24(s0)
  00013818:	fec42283	lw	t0, -20(s0)
  0001381c:	ffc10113	addi	sp, sp, -4
  00013820:	00512023	sw	t0, 0(sp)
  00013824:	fe842283	lw	t0, -24(s0)
  00013828:	ffc10113	addi	sp, sp, -4
  0001382c:	00512023	sw	t0, 0(sp)
  00013830:	00012303	lw	t1, 0(sp)
  00013834:	00412283	lw	t0, 4(sp)
  00013838:	00810113	addi	sp, sp, 8
  0001383c:	0062a2b3	slt	t0, t0, t1
  00013840:	ffc10113	addi	sp, sp, -4
  00013844:	00512023	sw	t0, 0(sp)
  00013848:	00012283	lw	t0, 0(sp)
  0001384c:	00410113	addi	sp, sp, 4
  00013850:	00028e63	beq	t0, zero, 0x1386c
  00013854:	fec42283	lw	t0, -20(s0)
  00013858:	ffc10113	addi	sp, sp, -4
  0001385c:	00512023	sw	t0, 0(sp)
  00013860:	00012283	lw	t0, 0(sp)
  00013864:	00410113	addi	sp, sp, 4
  00013868:	fe542423	sw	t0, -24(s0)

0001386c <.L_f53_pc20>:
  0001386c:	ff042283	lw	t0, -16(s0)
  00013870:	ffc10113	addi	sp, sp, -4
  00013874:	00512023	sw	t0, 0(sp)
  00013878:	00012283	lw	t0, 0(sp)
  0001387c:	00410113	addi	sp, sp, 4
  00013880:	ffc10113	addi	sp, sp, -4
  00013884:	00512023	sw	t0, 0(sp)
  00013888:	00400293	addi	t0, zero, 4
  0001388c:	ffc10113	addi	sp, sp, -4
  00013890:	00512023	sw	t0, 0(sp)
  00013894:	00012303	lw	t1, 0(sp)
  00013898:	00412283	lw	t0, 4(sp)
  0001389c:	00810113	addi	sp, sp, 8
  000138a0:	006282b3	add	t0, t0, t1
  000138a4:	ffc10113	addi	sp, sp, -4
  000138a8:	00512023	sw	t0, 0(sp)
  000138ac:	00012283	lw	t0, 0(sp)
  000138b0:	00410113	addi	sp, sp, 4
  000138b4:	fe542223	sw	t0, -28(s0)
  000138b8:	ff442283	lw	t0, -12(s0)
  000138bc:	ffc10113	addi	sp, sp, -4
  000138c0:	00512023	sw	t0, 0(sp)
  000138c4:	fe442283	lw	t0, -28(s0)
  000138c8:	ffc10113	addi	sp, sp, -4
  000138cc:	00512023	sw	t0, 0(sp)
  000138d0:	fe842283	lw	t0, -24(s0)
  000138d4:	ffc10113	addi	sp, sp, -4
  000138d8:	00512023	sw	t0, 0(sp)
  000138dc:	00812503	lw	a0, 8(sp)
  000138e0:	00412583	lw	a1, 4(sp)
  000138e4:	00012603	lw	a2, 0(sp)
  000138e8:	ffffc097	auipc	ra, 0xffffc	# 0xf8e8
  000138ec:	774080e7	jalr	ra, 1908(ra)
  000138f0:	00c10113	addi	sp, sp, 12
  000138f4:	ffc10113	addi	sp, sp, -4
  000138f8:	00a12023	sw	a0, 0(sp)
  000138fc:	00012283	lw	t0, 0(sp)
  00013900:	00410113	addi	sp, sp, 4
  00013904:	00028513	addi	a0, t0, 0
  00013908:	00040293	addi	t0, s0, 0
  0001390c:	ffc2a083	lw	ra, -4(t0)
  00013910:	ff82a403	lw	s0, -8(t0)
  00013914:	00028113	addi	sp, t0, 0
  00013918:	00008067	ret
  0001391c:	00040293	addi	t0, s0, 0
  00013920:	ffc2a083	lw	ra, -4(t0)
  00013924:	ff82a403	lw	s0, -8(t0)
  00013928:	00028113	addi	sp, t0, 0
  0001392c:	00008067	ret

00013930 <sys_read__i32__U8Array__i32>:
  00013930:	fc010113	addi	sp, sp, -64
  00013934:	02112e23	sw	ra, 60(sp)
  00013938:	02812c23	sw	s0, 56(sp)
  0001393c:	04010413	addi	s0, sp, 64
  00013940:	fea42a23	sw	a0, -12(s0)
  00013944:	feb42823	sw	a1, -16(s0)
  00013948:	fec42623	sw	a2, -20(s0)
  0001394c:	fe042423	sw	zero, -24(s0)
  00013950:	fe042223	sw	zero, -28(s0)
  00013954:	fe042023	sw	zero, -32(s0)
  00013958:	fc042e23	sw	zero, -36(s0)
  0001395c:	ff042283	lw	t0, -16(s0)
  00013960:	ffc10113	addi	sp, sp, -4
  00013964:	00512023	sw	t0, 0(sp)
  00013968:	00012283	lw	t0, 0(sp)
  0001396c:	00410113	addi	sp, sp, 4
  00013970:	ffc10113	addi	sp, sp, -4
  00013974:	00512023	sw	t0, 0(sp)
  00013978:	00000293	addi	t0, zero, 0
  0001397c:	ffc10113	addi	sp, sp, -4
  00013980:	00512023	sw	t0, 0(sp)
  00013984:	00012303	lw	t1, 0(sp)
  00013988:	00412283	lw	t0, 4(sp)
  0001398c:	00810113	addi	sp, sp, 8
  00013990:	406282b3	sub	t0, t0, t1
  00013994:	0012b293	sltiu	t0, t0, 1
  00013998:	ffc10113	addi	sp, sp, -4
  0001399c:	00512023	sw	t0, 0(sp)
  000139a0:	00012283	lw	t0, 0(sp)
  000139a4:	00410113	addi	sp, sp, 4
  000139a8:	04028a63	beq	t0, zero, 0x139fc
  000139ac:	00000293	addi	t0, zero, 0
  000139b0:	ffc10113	addi	sp, sp, -4
  000139b4:	00512023	sw	t0, 0(sp)
  000139b8:	00100293	addi	t0, zero, 1
  000139bc:	ffc10113	addi	sp, sp, -4
  000139c0:	00512023	sw	t0, 0(sp)
  000139c4:	00012303	lw	t1, 0(sp)
  000139c8:	00412283	lw	t0, 4(sp)
  000139cc:	00810113	addi	sp, sp, 8
  000139d0:	406282b3	sub	t0, t0, t1
  000139d4:	ffc10113	addi	sp, sp, -4
  000139d8:	00512023	sw	t0, 0(sp)
  000139dc:	00012283	lw	t0, 0(sp)
  000139e0:	00410113	addi	sp, sp, 4
  000139e4:	00028513	addi	a0, t0, 0
  000139e8:	00040293	addi	t0, s0, 0
  000139ec:	ffc2a083	lw	ra, -4(t0)
  000139f0:	ff82a403	lw	s0, -8(t0)
  000139f4:	00028113	addi	sp, t0, 0
  000139f8:	00008067	ret

000139fc <.L_f54_pc9>:
  000139fc:	ff042283	lw	t0, -16(s0)
  00013a00:	ffc10113	addi	sp, sp, -4
  00013a04:	00512023	sw	t0, 0(sp)
  00013a08:	00012283	lw	t0, 0(sp)
  00013a0c:	00410113	addi	sp, sp, 4
  00013a10:	ffc10113	addi	sp, sp, -4
  00013a14:	00512023	sw	t0, 0(sp)
  00013a18:	00012503	lw	a0, 0(sp)
  00013a1c:	ffffc097	auipc	ra, 0xffffc	# 0xfa1c
  00013a20:	674080e7	jalr	ra, 1652(ra)
  00013a24:	00410113	addi	sp, sp, 4
  00013a28:	ffc10113	addi	sp, sp, -4
  00013a2c:	00a12023	sw	a0, 0(sp)
  00013a30:	00012283	lw	t0, 0(sp)
  00013a34:	00410113	addi	sp, sp, 4
  00013a38:	ffc10113	addi	sp, sp, -4
  00013a3c:	00512023	sw	t0, 0(sp)
  00013a40:	00012283	lw	t0, 0(sp)
  00013a44:	00410113	addi	sp, sp, 4
  00013a48:	fe542423	sw	t0, -24(s0)
  00013a4c:	fec42283	lw	t0, -20(s0)
  00013a50:	ffc10113	addi	sp, sp, -4
  00013a54:	00512023	sw	t0, 0(sp)
  00013a58:	fe842283	lw	t0, -24(s0)
  00013a5c:	ffc10113	addi	sp, sp, -4
  00013a60:	00512023	sw	t0, 0(sp)
  00013a64:	00012303	lw	t1, 0(sp)
  00013a68:	00412283	lw	t0, 4(sp)
  00013a6c:	00810113	addi	sp, sp, 8
  00013a70:	0062a2b3	slt	t0, t0, t1
  00013a74:	ffc10113	addi	sp, sp, -4
  00013a78:	00512023	sw	t0, 0(sp)
  00013a7c:	00012283	lw	t0, 0(sp)
  00013a80:	00410113	addi	sp, sp, 4
  00013a84:	00028e63	beq	t0, zero, 0x13aa0
  00013a88:	fec42283	lw	t0, -20(s0)
  00013a8c:	ffc10113	addi	sp, sp, -4
  00013a90:	00512023	sw	t0, 0(sp)
  00013a94:	00012283	lw	t0, 0(sp)
  00013a98:	00410113	addi	sp, sp, 4
  00013a9c:	fe542423	sw	t0, -24(s0)

00013aa0 <.L_f54_pc20>:
  00013aa0:	ff042283	lw	t0, -16(s0)
  00013aa4:	ffc10113	addi	sp, sp, -4
  00013aa8:	00512023	sw	t0, 0(sp)
  00013aac:	00012283	lw	t0, 0(sp)
  00013ab0:	00410113	addi	sp, sp, 4
  00013ab4:	ffc10113	addi	sp, sp, -4
  00013ab8:	00512023	sw	t0, 0(sp)
  00013abc:	00400293	addi	t0, zero, 4
  00013ac0:	ffc10113	addi	sp, sp, -4
  00013ac4:	00512023	sw	t0, 0(sp)
  00013ac8:	00012303	lw	t1, 0(sp)
  00013acc:	00412283	lw	t0, 4(sp)
  00013ad0:	00810113	addi	sp, sp, 8
  00013ad4:	006282b3	add	t0, t0, t1
  00013ad8:	ffc10113	addi	sp, sp, -4
  00013adc:	00512023	sw	t0, 0(sp)
  00013ae0:	00012283	lw	t0, 0(sp)
  00013ae4:	00410113	addi	sp, sp, 4
  00013ae8:	fe542223	sw	t0, -28(s0)
  00013aec:	00000293	addi	t0, zero, 0
  00013af0:	ffc10113	addi	sp, sp, -4
  00013af4:	00512023	sw	t0, 0(sp)
  00013af8:	00012283	lw	t0, 0(sp)
  00013afc:	00410113	addi	sp, sp, 4
  00013b00:	fe542023	sw	t0, -32(s0)

00013b04 <.L_f54_pc27>:
  00013b04:	fe042283	lw	t0, -32(s0)
  00013b08:	ffc10113	addi	sp, sp, -4
  00013b0c:	00512023	sw	t0, 0(sp)
  00013b10:	fe842283	lw	t0, -24(s0)
  00013b14:	ffc10113	addi	sp, sp, -4
  00013b18:	00512023	sw	t0, 0(sp)
  00013b1c:	00012303	lw	t1, 0(sp)
  00013b20:	00412283	lw	t0, 4(sp)
  00013b24:	00810113	addi	sp, sp, 8
  00013b28:	0062a2b3	slt	t0, t0, t1
  00013b2c:	ffc10113	addi	sp, sp, -4
  00013b30:	00512023	sw	t0, 0(sp)
  00013b34:	00012283	lw	t0, 0(sp)
  00013b38:	00410113	addi	sp, sp, 4
  00013b3c:	14028c63	beq	t0, zero, 0x13c94
  00013b40:	ff442283	lw	t0, -12(s0)
  00013b44:	ffc10113	addi	sp, sp, -4
  00013b48:	00512023	sw	t0, 0(sp)
  00013b4c:	fe442283	lw	t0, -28(s0)
  00013b50:	ffc10113	addi	sp, sp, -4
  00013b54:	00512023	sw	t0, 0(sp)
  00013b58:	fe042283	lw	t0, -32(s0)
  00013b5c:	ffc10113	addi	sp, sp, -4
  00013b60:	00512023	sw	t0, 0(sp)
  00013b64:	00012283	lw	t0, 0(sp)
  00013b68:	00410113	addi	sp, sp, 4
  00013b6c:	ffc10113	addi	sp, sp, -4
  00013b70:	00512023	sw	t0, 0(sp)
  00013b74:	00012303	lw	t1, 0(sp)
  00013b78:	00412283	lw	t0, 4(sp)
  00013b7c:	00810113	addi	sp, sp, 8
  00013b80:	006282b3	add	t0, t0, t1
  00013b84:	ffc10113	addi	sp, sp, -4
  00013b88:	00512023	sw	t0, 0(sp)
  00013b8c:	fe842283	lw	t0, -24(s0)
  00013b90:	ffc10113	addi	sp, sp, -4
  00013b94:	00512023	sw	t0, 0(sp)
  00013b98:	fe042283	lw	t0, -32(s0)
  00013b9c:	ffc10113	addi	sp, sp, -4
  00013ba0:	00512023	sw	t0, 0(sp)
  00013ba4:	00012303	lw	t1, 0(sp)
  00013ba8:	00412283	lw	t0, 4(sp)
  00013bac:	00810113	addi	sp, sp, 8
  00013bb0:	406282b3	sub	t0, t0, t1
  00013bb4:	ffc10113	addi	sp, sp, -4
  00013bb8:	00512023	sw	t0, 0(sp)
  00013bbc:	00812503	lw	a0, 8(sp)
  00013bc0:	00412583	lw	a1, 4(sp)
  00013bc4:	00012603	lw	a2, 0(sp)
  00013bc8:	ffffc097	auipc	ra, 0xffffc	# 0xfbc8
  00013bcc:	4a0080e7	jalr	ra, 1184(ra)
  00013bd0:	00c10113	addi	sp, sp, 12
  00013bd4:	ffc10113	addi	sp, sp, -4
  00013bd8:	00a12023	sw	a0, 0(sp)
  00013bdc:	00012283	lw	t0, 0(sp)
  00013be0:	00410113	addi	sp, sp, 4
  00013be4:	fc542e23	sw	t0, -36(s0)
  00013be8:	fdc42283	lw	t0, -36(s0)
  00013bec:	ffc10113	addi	sp, sp, -4
  00013bf0:	00512023	sw	t0, 0(sp)
  00013bf4:	00000293	addi	t0, zero, 0
  00013bf8:	ffc10113	addi	sp, sp, -4
  00013bfc:	00512023	sw	t0, 0(sp)
  00013c00:	00012303	lw	t1, 0(sp)
  00013c04:	00412283	lw	t0, 4(sp)
  00013c08:	00810113	addi	sp, sp, 8
  00013c0c:	005322b3	slt	t0, t1, t0
  00013c10:	0012c293	xori	t0, t0, 1
  00013c14:	ffc10113	addi	sp, sp, -4
  00013c18:	00512023	sw	t0, 0(sp)
  00013c1c:	00012283	lw	t0, 0(sp)
  00013c20:	00410113	addi	sp, sp, 4
  00013c24:	02028863	beq	t0, zero, 0x13c54
  00013c28:	fe042283	lw	t0, -32(s0)
  00013c2c:	ffc10113	addi	sp, sp, -4
  00013c30:	00512023	sw	t0, 0(sp)
  00013c34:	00012283	lw	t0, 0(sp)
  00013c38:	00410113	addi	sp, sp, 4
  00013c3c:	00028513	addi	a0, t0, 0
  00013c40:	00040293	addi	t0, s0, 0
  00013c44:	ffc2a083	lw	ra, -4(t0)
  00013c48:	ff82a403	lw	s0, -8(t0)
  00013c4c:	00028113	addi	sp, t0, 0
  00013c50:	00008067	ret

00013c54 <.L_f54_pc47>:
  00013c54:	fe042283	lw	t0, -32(s0)
  00013c58:	ffc10113	addi	sp, sp, -4
  00013c5c:	00512023	sw	t0, 0(sp)
  00013c60:	fdc42283	lw	t0, -36(s0)
  00013c64:	ffc10113	addi	sp, sp, -4
  00013c68:	00512023	sw	t0, 0(sp)
  00013c6c:	00012303	lw	t1, 0(sp)
  00013c70:	00412283	lw	t0, 4(sp)
  00013c74:	00810113	addi	sp, sp, 8
  00013c78:	006282b3	add	t0, t0, t1
  00013c7c:	ffc10113	addi	sp, sp, -4
  00013c80:	00512023	sw	t0, 0(sp)
  00013c84:	00012283	lw	t0, 0(sp)
  00013c88:	00410113	addi	sp, sp, 4
  00013c8c:	fe542023	sw	t0, -32(s0)
  00013c90:	e75ff06f	jal	zero, 0x13b04 <.L_f54_pc27>

00013c94 <.L_f54_pc52>:
  00013c94:	fe042283	lw	t0, -32(s0)
  00013c98:	ffc10113	addi	sp, sp, -4
  00013c9c:	00512023	sw	t0, 0(sp)
  00013ca0:	00012283	lw	t0, 0(sp)
  00013ca4:	00410113	addi	sp, sp, 4
  00013ca8:	00028513	addi	a0, t0, 0
  00013cac:	00040293	addi	t0, s0, 0
  00013cb0:	ffc2a083	lw	ra, -4(t0)
  00013cb4:	ff82a403	lw	s0, -8(t0)
  00013cb8:	00028113	addi	sp, t0, 0
  00013cbc:	00008067	ret
  00013cc0:	00040293	addi	t0, s0, 0
  00013cc4:	ffc2a083	lw	ra, -4(t0)
  00013cc8:	ff82a403	lw	s0, -8(t0)
  00013ccc:	00028113	addi	sp, t0, 0
  00013cd0:	00008067	ret

00013cd4 <sys_exit__i32>:
  00013cd4:	ff010113	addi	sp, sp, -16
  00013cd8:	00112623	sw	ra, 12(sp)
  00013cdc:	00812423	sw	s0, 8(sp)
  00013ce0:	01010413	addi	s0, sp, 16
  00013ce4:	fea42a23	sw	a0, -12(s0)
  00013ce8:	ff442283	lw	t0, -12(s0)
  00013cec:	ffc10113	addi	sp, sp, -4
  00013cf0:	00512023	sw	t0, 0(sp)
  00013cf4:	00012503	lw	a0, 0(sp)
  00013cf8:	ffffc097	auipc	ra, 0xffffc	# 0xfcf8
  00013cfc:	37c080e7	jalr	ra, 892(ra)
  00013d00:	00410113	addi	sp, sp, 4
  00013d04:	ffc10113	addi	sp, sp, -4
  00013d08:	00a12023	sw	a0, 0(sp)
  00013d0c:	00410113	addi	sp, sp, 4
  00013d10:	00040293	addi	t0, s0, 0
  00013d14:	ffc2a083	lw	ra, -4(t0)
  00013d18:	ff82a403	lw	s0, -8(t0)
  00013d1c:	00028113	addi	sp, t0, 0
  00013d20:	00008067	ret
  00013d24:	00040293	addi	t0, s0, 0
  00013d28:	ffc2a083	lw	ra, -4(t0)
  00013d2c:	ff82a403	lw	s0, -8(t0)
  00013d30:	00028113	addi	sp, t0, 0
  00013d34:	00008067	ret

00013d38 <print_i32__i32>:
  00013d38:	fc010113	addi	sp, sp, -64
  00013d3c:	02112e23	sw	ra, 60(sp)
  00013d40:	02812c23	sw	s0, 56(sp)
  00013d44:	04010413	addi	s0, sp, 64
  00013d48:	fea42a23	sw	a0, -12(s0)
  00013d4c:	fe042823	sw	zero, -16(s0)
  00013d50:	fe042623	sw	zero, -20(s0)
  00013d54:	fe042423	sw	zero, -24(s0)
  00013d58:	fe042223	sw	zero, -28(s0)
  00013d5c:	fe042023	sw	zero, -32(s0)
  00013d60:	fc042e23	sw	zero, -36(s0)
  00013d64:	01000293	addi	t0, zero, 16
  00013d68:	ffc10113	addi	sp, sp, -4
  00013d6c:	00512023	sw	t0, 0(sp)
  00013d70:	00012503	lw	a0, 0(sp)
  00013d74:	ffffd097	auipc	ra, 0xffffd	# 0x10d74
  00013d78:	5b0080e7	jalr	ra, 1456(ra)
  00013d7c:	00410113	addi	sp, sp, 4
  00013d80:	ffc10113	addi	sp, sp, -4
  00013d84:	00a12023	sw	a0, 0(sp)
  00013d88:	00012283	lw	t0, 0(sp)
  00013d8c:	00410113	addi	sp, sp, 4
  00013d90:	fe542823	sw	t0, -16(s0)
  00013d94:	00000293	addi	t0, zero, 0
  00013d98:	ffc10113	addi	sp, sp, -4
  00013d9c:	00512023	sw	t0, 0(sp)
  00013da0:	00012283	lw	t0, 0(sp)
  00013da4:	00410113	addi	sp, sp, 4
  00013da8:	fe542623	sw	t0, -20(s0)
  00013dac:	ff442283	lw	t0, -12(s0)
  00013db0:	ffc10113	addi	sp, sp, -4
  00013db4:	00512023	sw	t0, 0(sp)
  00013db8:	00000293	addi	t0, zero, 0
  00013dbc:	ffc10113	addi	sp, sp, -4
  00013dc0:	00512023	sw	t0, 0(sp)
  00013dc4:	00012303	lw	t1, 0(sp)
  00013dc8:	00412283	lw	t0, 4(sp)
  00013dcc:	00810113	addi	sp, sp, 8
  00013dd0:	0062a2b3	slt	t0, t0, t1
  00013dd4:	ffc10113	addi	sp, sp, -4
  00013dd8:	00512023	sw	t0, 0(sp)
  00013ddc:	00012283	lw	t0, 0(sp)
  00013de0:	00410113	addi	sp, sp, 4
  00013de4:	04028c63	beq	t0, zero, 0x13e3c
  00013de8:	00100293	addi	t0, zero, 1
  00013dec:	ffc10113	addi	sp, sp, -4
  00013df0:	00512023	sw	t0, 0(sp)
  00013df4:	00012283	lw	t0, 0(sp)
  00013df8:	00410113	addi	sp, sp, 4
  00013dfc:	fe542623	sw	t0, -20(s0)
  00013e00:	00000293	addi	t0, zero, 0
  00013e04:	ffc10113	addi	sp, sp, -4
  00013e08:	00512023	sw	t0, 0(sp)
  00013e0c:	ff442283	lw	t0, -12(s0)
  00013e10:	ffc10113	addi	sp, sp, -4
  00013e14:	00512023	sw	t0, 0(sp)
  00013e18:	00012303	lw	t1, 0(sp)
  00013e1c:	00412283	lw	t0, 4(sp)
  00013e20:	00810113	addi	sp, sp, 8
  00013e24:	406282b3	sub	t0, t0, t1
  00013e28:	ffc10113	addi	sp, sp, -4
  00013e2c:	00512023	sw	t0, 0(sp)
  00013e30:	00012283	lw	t0, 0(sp)
  00013e34:	00410113	addi	sp, sp, 4
  00013e38:	fe542a23	sw	t0, -12(s0)

00013e3c <.L_f56_pc15>:
  00013e3c:	ff442283	lw	t0, -12(s0)
  00013e40:	ffc10113	addi	sp, sp, -4
  00013e44:	00512023	sw	t0, 0(sp)
  00013e48:	00000293	addi	t0, zero, 0
  00013e4c:	ffc10113	addi	sp, sp, -4
  00013e50:	00512023	sw	t0, 0(sp)
  00013e54:	00012303	lw	t1, 0(sp)
  00013e58:	00412283	lw	t0, 4(sp)
  00013e5c:	00810113	addi	sp, sp, 8
  00013e60:	406282b3	sub	t0, t0, t1
  00013e64:	0012b293	sltiu	t0, t0, 1
  00013e68:	ffc10113	addi	sp, sp, -4
  00013e6c:	00512023	sw	t0, 0(sp)
  00013e70:	00012283	lw	t0, 0(sp)
  00013e74:	00410113	addi	sp, sp, 4
  00013e78:	20028063	beq	t0, zero, 0x14078
  00013e7c:	ff042283	lw	t0, -16(s0)
  00013e80:	ffc10113	addi	sp, sp, -4
  00013e84:	00512023	sw	t0, 0(sp)
  00013e88:	00012283	lw	t0, 0(sp)
  00013e8c:	00410113	addi	sp, sp, 4
  00013e90:	ffc10113	addi	sp, sp, -4
  00013e94:	00512023	sw	t0, 0(sp)
  00013e98:	00400293	addi	t0, zero, 4
  00013e9c:	ffc10113	addi	sp, sp, -4
  00013ea0:	00512023	sw	t0, 0(sp)
  00013ea4:	00012303	lw	t1, 0(sp)
  00013ea8:	00412283	lw	t0, 4(sp)
  00013eac:	00810113	addi	sp, sp, 8
  00013eb0:	006282b3	add	t0, t0, t1
  00013eb4:	ffc10113	addi	sp, sp, -4
  00013eb8:	00512023	sw	t0, 0(sp)
  00013ebc:	00000293	addi	t0, zero, 0
  00013ec0:	ffc10113	addi	sp, sp, -4
  00013ec4:	00512023	sw	t0, 0(sp)
  00013ec8:	00012283	lw	t0, 0(sp)
  00013ecc:	00410113	addi	sp, sp, 4
  00013ed0:	ffc10113	addi	sp, sp, -4
  00013ed4:	00512023	sw	t0, 0(sp)
  00013ed8:	00012303	lw	t1, 0(sp)
  00013edc:	00412283	lw	t0, 4(sp)
  00013ee0:	00810113	addi	sp, sp, 8
  00013ee4:	006282b3	add	t0, t0, t1
  00013ee8:	ffc10113	addi	sp, sp, -4
  00013eec:	00512023	sw	t0, 0(sp)
  00013ef0:	03000293	addi	t0, zero, 48
  00013ef4:	ffc10113	addi	sp, sp, -4
  00013ef8:	00512023	sw	t0, 0(sp)
  00013efc:	00012283	lw	t0, 0(sp)
  00013f00:	00410113	addi	sp, sp, 4
  00013f04:	0ff2f293	andi	t0, t0, 255
  00013f08:	ffc10113	addi	sp, sp, -4
  00013f0c:	00512023	sw	t0, 0(sp)
  00013f10:	00412503	lw	a0, 4(sp)
  00013f14:	00012583	lw	a1, 0(sp)
  00013f18:	ffffc097	auipc	ra, 0xffffc	# 0xff18
  00013f1c:	180080e7	jalr	ra, 384(ra)
  00013f20:	00810113	addi	sp, sp, 8
  00013f24:	ffc10113	addi	sp, sp, -4
  00013f28:	00a12023	sw	a0, 0(sp)
  00013f2c:	00410113	addi	sp, sp, 4
  00013f30:	ff042283	lw	t0, -16(s0)
  00013f34:	ffc10113	addi	sp, sp, -4
  00013f38:	00512023	sw	t0, 0(sp)
  00013f3c:	00012283	lw	t0, 0(sp)
  00013f40:	00410113	addi	sp, sp, 4
  00013f44:	ffc10113	addi	sp, sp, -4
  00013f48:	00512023	sw	t0, 0(sp)
  00013f4c:	00400293	addi	t0, zero, 4
  00013f50:	ffc10113	addi	sp, sp, -4
  00013f54:	00512023	sw	t0, 0(sp)
  00013f58:	00012303	lw	t1, 0(sp)
  00013f5c:	00412283	lw	t0, 4(sp)
  00013f60:	00810113	addi	sp, sp, 8
  00013f64:	006282b3	add	t0, t0, t1
  00013f68:	ffc10113	addi	sp, sp, -4
  00013f6c:	00512023	sw	t0, 0(sp)
  00013f70:	00100293	addi	t0, zero, 1
  00013f74:	ffc10113	addi	sp, sp, -4
  00013f78:	00512023	sw	t0, 0(sp)
  00013f7c:	00012283	lw	t0, 0(sp)
  00013f80:	00410113	addi	sp, sp, 4
  00013f84:	ffc10113	addi	sp, sp, -4
  00013f88:	00512023	sw	t0, 0(sp)
  00013f8c:	00012303	lw	t1, 0(sp)
  00013f90:	00412283	lw	t0, 4(sp)
  00013f94:	00810113	addi	sp, sp, 8
  00013f98:	006282b3	add	t0, t0, t1
  00013f9c:	ffc10113	addi	sp, sp, -4
  00013fa0:	00512023	sw	t0, 0(sp)
  00013fa4:	00a00293	addi	t0, zero, 10
  00013fa8:	ffc10113	addi	sp, sp, -4
  00013fac:	00512023	sw	t0, 0(sp)
  00013fb0:	00012283	lw	t0, 0(sp)
  00013fb4:	00410113	addi	sp, sp, 4
  00013fb8:	0ff2f293	andi	t0, t0, 255
  00013fbc:	ffc10113	addi	sp, sp, -4
  00013fc0:	00512023	sw	t0, 0(sp)
  00013fc4:	00412503	lw	a0, 4(sp)
  00013fc8:	00012583	lw	a1, 0(sp)
  00013fcc:	ffffc097	auipc	ra, 0xffffc	# 0xffcc
  00013fd0:	0cc080e7	jalr	ra, 204(ra)
  00013fd4:	00810113	addi	sp, sp, 8
  00013fd8:	ffc10113	addi	sp, sp, -4
  00013fdc:	00a12023	sw	a0, 0(sp)
  00013fe0:	00410113	addi	sp, sp, 4
  00013fe4:	00100293	addi	t0, zero, 1
  00013fe8:	ffc10113	addi	sp, sp, -4
  00013fec:	00512023	sw	t0, 0(sp)
  00013ff0:	ff042283	lw	t0, -16(s0)
  00013ff4:	ffc10113	addi	sp, sp, -4
  00013ff8:	00512023	sw	t0, 0(sp)
  00013ffc:	00200293	addi	t0, zero, 2
  00014000:	ffc10113	addi	sp, sp, -4
  00014004:	00512023	sw	t0, 0(sp)
  00014008:	00812503	lw	a0, 8(sp)
  0001400c:	00412583	lw	a1, 4(sp)
  00014010:	00012603	lw	a2, 0(sp)
  00014014:	fffff097	auipc	ra, 0xfffff	# 0x13014
  00014018:	6f0080e7	jalr	ra, 1776(ra)
  0001401c:	00c10113	addi	sp, sp, 12
  00014020:	ffc10113	addi	sp, sp, -4
  00014024:	00a12023	sw	a0, 0(sp)
  00014028:	00410113	addi	sp, sp, 4
  0001402c:	ff042283	lw	t0, -16(s0)
  00014030:	ffc10113	addi	sp, sp, -4
  00014034:	00512023	sw	t0, 0(sp)
  00014038:	00012283	lw	t0, 0(sp)
  0001403c:	00410113	addi	sp, sp, 4
  00014040:	ffc10113	addi	sp, sp, -4
  00014044:	00512023	sw	t0, 0(sp)
  00014048:	00012503	lw	a0, 0(sp)
  0001404c:	fffff097	auipc	ra, 0xfffff	# 0x1304c
  00014050:	198080e7	jalr	ra, 408(ra)
  00014054:	00410113	addi	sp, sp, 4
  00014058:	ffc10113	addi	sp, sp, -4
  0001405c:	00a12023	sw	a0, 0(sp)
  00014060:	00410113	addi	sp, sp, 4
  00014064:	00040293	addi	t0, s0, 0
  00014068:	ffc2a083	lw	ra, -4(t0)
  0001406c:	ff82a403	lw	s0, -8(t0)
  00014070:	00028113	addi	sp, t0, 0
  00014074:	00008067	ret

00014078 <.L_f56_pc51>:
  00014078:	00c00293	addi	t0, zero, 12
  0001407c:	ffc10113	addi	sp, sp, -4
  00014080:	00512023	sw	t0, 0(sp)
  00014084:	00012503	lw	a0, 0(sp)
  00014088:	ffffd097	auipc	ra, 0xffffd	# 0x11088
  0001408c:	29c080e7	jalr	ra, 668(ra)
  00014090:	00410113	addi	sp, sp, 4
  00014094:	ffc10113	addi	sp, sp, -4
  00014098:	00a12023	sw	a0, 0(sp)
  0001409c:	00012283	lw	t0, 0(sp)
  000140a0:	00410113	addi	sp, sp, 4
  000140a4:	fe542423	sw	t0, -24(s0)
  000140a8:	00000293	addi	t0, zero, 0
  000140ac:	ffc10113	addi	sp, sp, -4
  000140b0:	00512023	sw	t0, 0(sp)
  000140b4:	00012283	lw	t0, 0(sp)
  000140b8:	00410113	addi	sp, sp, 4
  000140bc:	fe542223	sw	t0, -28(s0)

000140c0 <.L_f56_pc56>:
  000140c0:	ff442283	lw	t0, -12(s0)
  000140c4:	ffc10113	addi	sp, sp, -4
  000140c8:	00512023	sw	t0, 0(sp)
  000140cc:	00000293	addi	t0, zero, 0
  000140d0:	ffc10113	addi	sp, sp, -4
  000140d4:	00512023	sw	t0, 0(sp)
  000140d8:	00012303	lw	t1, 0(sp)
  000140dc:	00412283	lw	t0, 4(sp)
  000140e0:	00810113	addi	sp, sp, 8
  000140e4:	005322b3	slt	t0, t1, t0
  000140e8:	ffc10113	addi	sp, sp, -4
  000140ec:	00512023	sw	t0, 0(sp)
  000140f0:	00012283	lw	t0, 0(sp)
  000140f4:	00410113	addi	sp, sp, 4
  000140f8:	18028863	beq	t0, zero, 0x14288
  000140fc:	fe842283	lw	t0, -24(s0)
  00014100:	ffc10113	addi	sp, sp, -4
  00014104:	00512023	sw	t0, 0(sp)
  00014108:	00012283	lw	t0, 0(sp)
  0001410c:	00410113	addi	sp, sp, 4
  00014110:	ffc10113	addi	sp, sp, -4
  00014114:	00512023	sw	t0, 0(sp)
  00014118:	00400293	addi	t0, zero, 4
  0001411c:	ffc10113	addi	sp, sp, -4
  00014120:	00512023	sw	t0, 0(sp)
  00014124:	00012303	lw	t1, 0(sp)
  00014128:	00412283	lw	t0, 4(sp)
  0001412c:	00810113	addi	sp, sp, 8
  00014130:	006282b3	add	t0, t0, t1
  00014134:	ffc10113	addi	sp, sp, -4
  00014138:	00512023	sw	t0, 0(sp)
  0001413c:	fe442283	lw	t0, -28(s0)
  00014140:	ffc10113	addi	sp, sp, -4
  00014144:	00512023	sw	t0, 0(sp)
  00014148:	00012283	lw	t0, 0(sp)
  0001414c:	00410113	addi	sp, sp, 4
  00014150:	ffc10113	addi	sp, sp, -4
  00014154:	00512023	sw	t0, 0(sp)
  00014158:	00012303	lw	t1, 0(sp)
  0001415c:	00412283	lw	t0, 4(sp)
  00014160:	00810113	addi	sp, sp, 8
  00014164:	006282b3	add	t0, t0, t1
  00014168:	ffc10113	addi	sp, sp, -4
  0001416c:	00512023	sw	t0, 0(sp)
  00014170:	03000293	addi	t0, zero, 48
  00014174:	ffc10113	addi	sp, sp, -4
  00014178:	00512023	sw	t0, 0(sp)
  0001417c:	ff442283	lw	t0, -12(s0)
  00014180:	ffc10113	addi	sp, sp, -4
  00014184:	00512023	sw	t0, 0(sp)
  00014188:	00a00293	addi	t0, zero, 10
  0001418c:	ffc10113	addi	sp, sp, -4
  00014190:	00512023	sw	t0, 0(sp)
  00014194:	00012303	lw	t1, 0(sp)
  00014198:	00412283	lw	t0, 4(sp)
  0001419c:	00810113	addi	sp, sp, 8
  000141a0:	0262e2b3	rem	t0, t0, t1
  000141a4:	ffc10113	addi	sp, sp, -4
  000141a8:	00512023	sw	t0, 0(sp)
  000141ac:	00012303	lw	t1, 0(sp)
  000141b0:	00412283	lw	t0, 4(sp)
  000141b4:	00810113	addi	sp, sp, 8
  000141b8:	006282b3	add	t0, t0, t1
  000141bc:	ffc10113	addi	sp, sp, -4
  000141c0:	00512023	sw	t0, 0(sp)
  000141c4:	00012283	lw	t0, 0(sp)
  000141c8:	00410113	addi	sp, sp, 4
  000141cc:	0ff2f293	andi	t0, t0, 255
  000141d0:	ffc10113	addi	sp, sp, -4
  000141d4:	00512023	sw	t0, 0(sp)
  000141d8:	00012283	lw	t0, 0(sp)
  000141dc:	00410113	addi	sp, sp, 4
  000141e0:	0ff2f293	andi	t0, t0, 255
  000141e4:	ffc10113	addi	sp, sp, -4
  000141e8:	00512023	sw	t0, 0(sp)
  000141ec:	00412503	lw	a0, 4(sp)
  000141f0:	00012583	lw	a1, 0(sp)
  000141f4:	ffffc097	auipc	ra, 0xffffc	# 0x101f4
  000141f8:	ea4080e7	jalr	ra, -348(ra)
  000141fc:	00810113	addi	sp, sp, 8
  00014200:	ffc10113	addi	sp, sp, -4
  00014204:	00a12023	sw	a0, 0(sp)
  00014208:	00410113	addi	sp, sp, 4
  0001420c:	fe442283	lw	t0, -28(s0)
  00014210:	ffc10113	addi	sp, sp, -4
  00014214:	00512023	sw	t0, 0(sp)
  00014218:	00100293	addi	t0, zero, 1
  0001421c:	ffc10113	addi	sp, sp, -4
  00014220:	00512023	sw	t0, 0(sp)
  00014224:	00012303	lw	t1, 0(sp)
  00014228:	00412283	lw	t0, 4(sp)
  0001422c:	00810113	addi	sp, sp, 8
  00014230:	006282b3	add	t0, t0, t1
  00014234:	ffc10113	addi	sp, sp, -4
  00014238:	00512023	sw	t0, 0(sp)
  0001423c:	00012283	lw	t0, 0(sp)
  00014240:	00410113	addi	sp, sp, 4
  00014244:	fe542223	sw	t0, -28(s0)
  00014248:	ff442283	lw	t0, -12(s0)
  0001424c:	ffc10113	addi	sp, sp, -4
  00014250:	00512023	sw	t0, 0(sp)
  00014254:	00a00293	addi	t0, zero, 10
  00014258:	ffc10113	addi	sp, sp, -4
  0001425c:	00512023	sw	t0, 0(sp)
  00014260:	00012303	lw	t1, 0(sp)
  00014264:	00412283	lw	t0, 4(sp)
  00014268:	00810113	addi	sp, sp, 8
  0001426c:	0262c2b3	div	t0, t0, t1
  00014270:	ffc10113	addi	sp, sp, -4
  00014274:	00512023	sw	t0, 0(sp)
  00014278:	00012283	lw	t0, 0(sp)
  0001427c:	00410113	addi	sp, sp, 4
  00014280:	fe542a23	sw	t0, -12(s0)
  00014284:	e3dff06f	jal	zero, 0x140c0 <.L_f56_pc56>

00014288 <.L_f56_pc85>:
  00014288:	00000293	addi	t0, zero, 0
  0001428c:	ffc10113	addi	sp, sp, -4
  00014290:	00512023	sw	t0, 0(sp)
  00014294:	00012283	lw	t0, 0(sp)
  00014298:	00410113	addi	sp, sp, 4
  0001429c:	fe542023	sw	t0, -32(s0)
  000142a0:	fec42283	lw	t0, -20(s0)
  000142a4:	ffc10113	addi	sp, sp, -4
  000142a8:	00512023	sw	t0, 0(sp)
  000142ac:	00100293	addi	t0, zero, 1
  000142b0:	ffc10113	addi	sp, sp, -4
  000142b4:	00512023	sw	t0, 0(sp)
  000142b8:	00012303	lw	t1, 0(sp)
  000142bc:	00412283	lw	t0, 4(sp)
  000142c0:	00810113	addi	sp, sp, 8
  000142c4:	406282b3	sub	t0, t0, t1
  000142c8:	0012b293	sltiu	t0, t0, 1
  000142cc:	ffc10113	addi	sp, sp, -4
  000142d0:	00512023	sw	t0, 0(sp)
  000142d4:	00012283	lw	t0, 0(sp)
  000142d8:	00410113	addi	sp, sp, 4
  000142dc:	0e028a63	beq	t0, zero, 0x143d0
  000142e0:	ff042283	lw	t0, -16(s0)
  000142e4:	ffc10113	addi	sp, sp, -4
  000142e8:	00512023	sw	t0, 0(sp)
  000142ec:	00012283	lw	t0, 0(sp)
  000142f0:	00410113	addi	sp, sp, 4
  000142f4:	ffc10113	addi	sp, sp, -4
  000142f8:	00512023	sw	t0, 0(sp)
  000142fc:	00400293	addi	t0, zero, 4
  00014300:	ffc10113	addi	sp, sp, -4
  00014304:	00512023	sw	t0, 0(sp)
  00014308:	00012303	lw	t1, 0(sp)
  0001430c:	00412283	lw	t0, 4(sp)
  00014310:	00810113	addi	sp, sp, 8
  00014314:	006282b3	add	t0, t0, t1
  00014318:	ffc10113	addi	sp, sp, -4
  0001431c:	00512023	sw	t0, 0(sp)
  00014320:	fe042283	lw	t0, -32(s0)
  00014324:	ffc10113	addi	sp, sp, -4
  00014328:	00512023	sw	t0, 0(sp)
  0001432c:	00012283	lw	t0, 0(sp)
  00014330:	00410113	addi	sp, sp, 4
  00014334:	ffc10113	addi	sp, sp, -4
  00014338:	00512023	sw	t0, 0(sp)
  0001433c:	00012303	lw	t1, 0(sp)
  00014340:	00412283	lw	t0, 4(sp)
  00014344:	00810113	addi	sp, sp, 8
  00014348:	006282b3	add	t0, t0, t1
  0001434c:	ffc10113	addi	sp, sp, -4
  00014350:	00512023	sw	t0, 0(sp)
  00014354:	02d00293	addi	t0, zero, 45
  00014358:	ffc10113	addi	sp, sp, -4
  0001435c:	00512023	sw	t0, 0(sp)
  00014360:	00012283	lw	t0, 0(sp)
  00014364:	00410113	addi	sp, sp, 4
  00014368:	0ff2f293	andi	t0, t0, 255
  0001436c:	ffc10113	addi	sp, sp, -4
  00014370:	00512023	sw	t0, 0(sp)
  00014374:	00412503	lw	a0, 4(sp)
  00014378:	00012583	lw	a1, 0(sp)
  0001437c:	ffffc097	auipc	ra, 0xffffc	# 0x1037c
  00014380:	d1c080e7	jalr	ra, -740(ra)
  00014384:	00810113	addi	sp, sp, 8
  00014388:	ffc10113	addi	sp, sp, -4
  0001438c:	00a12023	sw	a0, 0(sp)
  00014390:	00410113	addi	sp, sp, 4
  00014394:	fe042283	lw	t0, -32(s0)
  00014398:	ffc10113	addi	sp, sp, -4
  0001439c:	00512023	sw	t0, 0(sp)
  000143a0:	00100293	addi	t0, zero, 1
  000143a4:	ffc10113	addi	sp, sp, -4
  000143a8:	00512023	sw	t0, 0(sp)
  000143ac:	00012303	lw	t1, 0(sp)
  000143b0:	00412283	lw	t0, 4(sp)
  000143b4:	00810113	addi	sp, sp, 8
  000143b8:	006282b3	add	t0, t0, t1
  000143bc:	ffc10113	addi	sp, sp, -4
  000143c0:	00512023	sw	t0, 0(sp)
  000143c4:	00012283	lw	t0, 0(sp)
  000143c8:	00410113	addi	sp, sp, 4
  000143cc:	fe542023	sw	t0, -32(s0)

000143d0 <.L_f56_pc106>:
  000143d0:	fe442283	lw	t0, -28(s0)
  000143d4:	ffc10113	addi	sp, sp, -4
  000143d8:	00512023	sw	t0, 0(sp)
  000143dc:	00100293	addi	t0, zero, 1
  000143e0:	ffc10113	addi	sp, sp, -4
  000143e4:	00512023	sw	t0, 0(sp)
  000143e8:	00012303	lw	t1, 0(sp)
  000143ec:	00412283	lw	t0, 4(sp)
  000143f0:	00810113	addi	sp, sp, 8
  000143f4:	406282b3	sub	t0, t0, t1
  000143f8:	ffc10113	addi	sp, sp, -4
  000143fc:	00512023	sw	t0, 0(sp)
  00014400:	00012283	lw	t0, 0(sp)
  00014404:	00410113	addi	sp, sp, 4
  00014408:	fc542e23	sw	t0, -36(s0)

0001440c <.L_f56_pc110>:
  0001440c:	fdc42283	lw	t0, -36(s0)
  00014410:	ffc10113	addi	sp, sp, -4
  00014414:	00512023	sw	t0, 0(sp)
  00014418:	00000293	addi	t0, zero, 0
  0001441c:	ffc10113	addi	sp, sp, -4
  00014420:	00512023	sw	t0, 0(sp)
  00014424:	00012303	lw	t1, 0(sp)
  00014428:	00412283	lw	t0, 4(sp)
  0001442c:	00810113	addi	sp, sp, 8
  00014430:	0062a2b3	slt	t0, t0, t1
  00014434:	0012c293	xori	t0, t0, 1
  00014438:	ffc10113	addi	sp, sp, -4
  0001443c:	00512023	sw	t0, 0(sp)
  00014440:	00012283	lw	t0, 0(sp)
  00014444:	00410113	addi	sp, sp, 4
  00014448:	1c028463	beq	t0, zero, 0x14610
  0001444c:	ff042283	lw	t0, -16(s0)
  00014450:	ffc10113	addi	sp, sp, -4
  00014454:	00512023	sw	t0, 0(sp)
  00014458:	00012283	lw	t0, 0(sp)
  0001445c:	00410113	addi	sp, sp, 4
  00014460:	ffc10113	addi	sp, sp, -4
  00014464:	00512023	sw	t0, 0(sp)
  00014468:	00400293	addi	t0, zero, 4
  0001446c:	ffc10113	addi	sp, sp, -4
  00014470:	00512023	sw	t0, 0(sp)
  00014474:	00012303	lw	t1, 0(sp)
  00014478:	00412283	lw	t0, 4(sp)
  0001447c:	00810113	addi	sp, sp, 8
  00014480:	006282b3	add	t0, t0, t1
  00014484:	ffc10113	addi	sp, sp, -4
  00014488:	00512023	sw	t0, 0(sp)
  0001448c:	fe042283	lw	t0, -32(s0)
  00014490:	ffc10113	addi	sp, sp, -4
  00014494:	00512023	sw	t0, 0(sp)
  00014498:	00012283	lw	t0, 0(sp)
  0001449c:	00410113	addi	sp, sp, 4
  000144a0:	ffc10113	addi	sp, sp, -4
  000144a4:	00512023	sw	t0, 0(sp)
  000144a8:	00012303	lw	t1, 0(sp)
  000144ac:	00412283	lw	t0, 4(sp)
  000144b0:	00810113	addi	sp, sp, 8
  000144b4:	006282b3	add	t0, t0, t1
  000144b8:	ffc10113	addi	sp, sp, -4
  000144bc:	00512023	sw	t0, 0(sp)
  000144c0:	fe842283	lw	t0, -24(s0)
  000144c4:	ffc10113	addi	sp, sp, -4
  000144c8:	00512023	sw	t0, 0(sp)
  000144cc:	00012283	lw	t0, 0(sp)
  000144d0:	00410113	addi	sp, sp, 4
  000144d4:	ffc10113	addi	sp, sp, -4
  000144d8:	00512023	sw	t0, 0(sp)
  000144dc:	00400293	addi	t0, zero, 4
  000144e0:	ffc10113	addi	sp, sp, -4
  000144e4:	00512023	sw	t0, 0(sp)
  000144e8:	00012303	lw	t1, 0(sp)
  000144ec:	00412283	lw	t0, 4(sp)
  000144f0:	00810113	addi	sp, sp, 8
  000144f4:	006282b3	add	t0, t0, t1
  000144f8:	ffc10113	addi	sp, sp, -4
  000144fc:	00512023	sw	t0, 0(sp)
  00014500:	fdc42283	lw	t0, -36(s0)
  00014504:	ffc10113	addi	sp, sp, -4
  00014508:	00512023	sw	t0, 0(sp)
  0001450c:	00012283	lw	t0, 0(sp)
  00014510:	00410113	addi	sp, sp, 4
  00014514:	ffc10113	addi	sp, sp, -4
  00014518:	00512023	sw	t0, 0(sp)
  0001451c:	00012303	lw	t1, 0(sp)
  00014520:	00412283	lw	t0, 4(sp)
  00014524:	00810113	addi	sp, sp, 8
  00014528:	006282b3	add	t0, t0, t1
  0001452c:	ffc10113	addi	sp, sp, -4
  00014530:	00512023	sw	t0, 0(sp)
  00014534:	00012503	lw	a0, 0(sp)
  00014538:	ffffc097	auipc	ra, 0xffffc	# 0x10538
  0001453c:	b48080e7	jalr	ra, -1208(ra)
  00014540:	00410113	addi	sp, sp, 4
  00014544:	ffc10113	addi	sp, sp, -4
  00014548:	00a12023	sw	a0, 0(sp)
  0001454c:	00012283	lw	t0, 0(sp)
  00014550:	00410113	addi	sp, sp, 4
  00014554:	0ff2f293	andi	t0, t0, 255
  00014558:	ffc10113	addi	sp, sp, -4
  0001455c:	00512023	sw	t0, 0(sp)
  00014560:	00012283	lw	t0, 0(sp)
  00014564:	00410113	addi	sp, sp, 4
  00014568:	0ff2f293	andi	t0, t0, 255
  0001456c:	ffc10113	addi	sp, sp, -4
  00014570:	00512023	sw	t0, 0(sp)
  00014574:	00412503	lw	a0, 4(sp)
  00014578:	00012583	lw	a1, 0(sp)
  0001457c:	ffffc097	auipc	ra, 0xffffc	# 0x1057c
  00014580:	b1c080e7	jalr	ra, -1252(ra)
  00014584:	00810113	addi	sp, sp, 8
  00014588:	ffc10113	addi	sp, sp, -4
  0001458c:	00a12023	sw	a0, 0(sp)
  00014590:	00410113	addi	sp, sp, 4
  00014594:	fe042283	lw	t0, -32(s0)
  00014598:	ffc10113	addi	sp, sp, -4
  0001459c:	00512023	sw	t0, 0(sp)
  000145a0:	00100293	addi	t0, zero, 1
  000145a4:	ffc10113	addi	sp, sp, -4
  000145a8:	00512023	sw	t0, 0(sp)
  000145ac:	00012303	lw	t1, 0(sp)
  000145b0:	00412283	lw	t0, 4(sp)
  000145b4:	00810113	addi	sp, sp, 8
  000145b8:	006282b3	add	t0, t0, t1
  000145bc:	ffc10113	addi	sp, sp, -4
  000145c0:	00512023	sw	t0, 0(sp)
  000145c4:	00012283	lw	t0, 0(sp)
  000145c8:	00410113	addi	sp, sp, 4
  000145cc:	fe542023	sw	t0, -32(s0)
  000145d0:	fdc42283	lw	t0, -36(s0)
  000145d4:	ffc10113	addi	sp, sp, -4
  000145d8:	00512023	sw	t0, 0(sp)
  000145dc:	00100293	addi	t0, zero, 1
  000145e0:	ffc10113	addi	sp, sp, -4
  000145e4:	00512023	sw	t0, 0(sp)
  000145e8:	00012303	lw	t1, 0(sp)
  000145ec:	00412283	lw	t0, 4(sp)
  000145f0:	00810113	addi	sp, sp, 8
  000145f4:	406282b3	sub	t0, t0, t1
  000145f8:	ffc10113	addi	sp, sp, -4
  000145fc:	00512023	sw	t0, 0(sp)
  00014600:	00012283	lw	t0, 0(sp)
  00014604:	00410113	addi	sp, sp, 4
  00014608:	fc542e23	sw	t0, -36(s0)
  0001460c:	e01ff06f	jal	zero, 0x1440c <.L_f56_pc110>

00014610 <.L_f56_pc142>:
  00014610:	ff042283	lw	t0, -16(s0)
  00014614:	ffc10113	addi	sp, sp, -4
  00014618:	00512023	sw	t0, 0(sp)
  0001461c:	00012283	lw	t0, 0(sp)
  00014620:	00410113	addi	sp, sp, 4
  00014624:	ffc10113	addi	sp, sp, -4
  00014628:	00512023	sw	t0, 0(sp)
  0001462c:	00400293	addi	t0, zero, 4
  00014630:	ffc10113	addi	sp, sp, -4
  00014634:	00512023	sw	t0, 0(sp)
  00014638:	00012303	lw	t1, 0(sp)
  0001463c:	00412283	lw	t0, 4(sp)
  00014640:	00810113	addi	sp, sp, 8
  00014644:	006282b3	add	t0, t0, t1
  00014648:	ffc10113	addi	sp, sp, -4
  0001464c:	00512023	sw	t0, 0(sp)
  00014650:	fe042283	lw	t0, -32(s0)
  00014654:	ffc10113	addi	sp, sp, -4
  00014658:	00512023	sw	t0, 0(sp)
  0001465c:	00012283	lw	t0, 0(sp)
  00014660:	00410113	addi	sp, sp, 4
  00014664:	ffc10113	addi	sp, sp, -4
  00014668:	00512023	sw	t0, 0(sp)
  0001466c:	00012303	lw	t1, 0(sp)
  00014670:	00412283	lw	t0, 4(sp)
  00014674:	00810113	addi	sp, sp, 8
  00014678:	006282b3	add	t0, t0, t1
  0001467c:	ffc10113	addi	sp, sp, -4
  00014680:	00512023	sw	t0, 0(sp)
  00014684:	00a00293	addi	t0, zero, 10
  00014688:	ffc10113	addi	sp, sp, -4
  0001468c:	00512023	sw	t0, 0(sp)
  00014690:	00012283	lw	t0, 0(sp)
  00014694:	00410113	addi	sp, sp, 4
  00014698:	0ff2f293	andi	t0, t0, 255
  0001469c:	ffc10113	addi	sp, sp, -4
  000146a0:	00512023	sw	t0, 0(sp)
  000146a4:	00412503	lw	a0, 4(sp)
  000146a8:	00012583	lw	a1, 0(sp)
  000146ac:	ffffc097	auipc	ra, 0xffffc	# 0x106ac
  000146b0:	9ec080e7	jalr	ra, -1556(ra)
  000146b4:	00810113	addi	sp, sp, 8
  000146b8:	ffc10113	addi	sp, sp, -4
  000146bc:	00a12023	sw	a0, 0(sp)
  000146c0:	00410113	addi	sp, sp, 4
  000146c4:	fe042283	lw	t0, -32(s0)
  000146c8:	ffc10113	addi	sp, sp, -4
  000146cc:	00512023	sw	t0, 0(sp)
  000146d0:	00100293	addi	t0, zero, 1
  000146d4:	ffc10113	addi	sp, sp, -4
  000146d8:	00512023	sw	t0, 0(sp)
  000146dc:	00012303	lw	t1, 0(sp)
  000146e0:	00412283	lw	t0, 4(sp)
  000146e4:	00810113	addi	sp, sp, 8
  000146e8:	006282b3	add	t0, t0, t1
  000146ec:	ffc10113	addi	sp, sp, -4
  000146f0:	00512023	sw	t0, 0(sp)
  000146f4:	00012283	lw	t0, 0(sp)
  000146f8:	00410113	addi	sp, sp, 4
  000146fc:	fe542023	sw	t0, -32(s0)
  00014700:	00100293	addi	t0, zero, 1
  00014704:	ffc10113	addi	sp, sp, -4
  00014708:	00512023	sw	t0, 0(sp)
  0001470c:	ff042283	lw	t0, -16(s0)
  00014710:	ffc10113	addi	sp, sp, -4
  00014714:	00512023	sw	t0, 0(sp)
  00014718:	fe042283	lw	t0, -32(s0)
  0001471c:	ffc10113	addi	sp, sp, -4
  00014720:	00512023	sw	t0, 0(sp)
  00014724:	00812503	lw	a0, 8(sp)
  00014728:	00412583	lw	a1, 4(sp)
  0001472c:	00012603	lw	a2, 0(sp)
  00014730:	fffff097	auipc	ra, 0xfffff	# 0x13730
  00014734:	fd4080e7	jalr	ra, -44(ra)
  00014738:	00c10113	addi	sp, sp, 12
  0001473c:	ffc10113	addi	sp, sp, -4
  00014740:	00a12023	sw	a0, 0(sp)
  00014744:	00410113	addi	sp, sp, 4
  00014748:	fe842283	lw	t0, -24(s0)
  0001474c:	ffc10113	addi	sp, sp, -4
  00014750:	00512023	sw	t0, 0(sp)
  00014754:	00012283	lw	t0, 0(sp)
  00014758:	00410113	addi	sp, sp, 4
  0001475c:	ffc10113	addi	sp, sp, -4
  00014760:	00512023	sw	t0, 0(sp)
  00014764:	00012503	lw	a0, 0(sp)
  00014768:	fffff097	auipc	ra, 0xfffff	# 0x13768
  0001476c:	a7c080e7	jalr	ra, -1412(ra)
  00014770:	00410113	addi	sp, sp, 4
  00014774:	ffc10113	addi	sp, sp, -4
  00014778:	00a12023	sw	a0, 0(sp)
  0001477c:	00410113	addi	sp, sp, 4
  00014780:	ff042283	lw	t0, -16(s0)
  00014784:	ffc10113	addi	sp, sp, -4
  00014788:	00512023	sw	t0, 0(sp)
  0001478c:	00012283	lw	t0, 0(sp)
  00014790:	00410113	addi	sp, sp, 4
  00014794:	ffc10113	addi	sp, sp, -4
  00014798:	00512023	sw	t0, 0(sp)
  0001479c:	00012503	lw	a0, 0(sp)
  000147a0:	fffff097	auipc	ra, 0xfffff	# 0x137a0
  000147a4:	a44080e7	jalr	ra, -1468(ra)
  000147a8:	00410113	addi	sp, sp, 4
  000147ac:	ffc10113	addi	sp, sp, -4
  000147b0:	00a12023	sw	a0, 0(sp)
  000147b4:	00410113	addi	sp, sp, 4
  000147b8:	00040293	addi	t0, s0, 0
  000147bc:	ffc2a083	lw	ra, -4(t0)
  000147c0:	ff82a403	lw	s0, -8(t0)
  000147c4:	00028113	addi	sp, t0, 0
  000147c8:	00008067	ret
  000147cc:	00040293	addi	t0, s0, 0
  000147d0:	ffc2a083	lw	ra, -4(t0)
  000147d4:	ff82a403	lw	s0, -8(t0)
  000147d8:	00028113	addi	sp, t0, 0
  000147dc:	00008067	ret

000147e0 <print_u32__u32>:
  000147e0:	ff010113	addi	sp, sp, -16
  000147e4:	00112623	sw	ra, 12(sp)
  000147e8:	00812423	sw	s0, 8(sp)
  000147ec:	01010413	addi	s0, sp, 16
  000147f0:	fea42a23	sw	a0, -12(s0)
  000147f4:	ff442283	lw	t0, -12(s0)
  000147f8:	ffc10113	addi	sp, sp, -4
  000147fc:	00512023	sw	t0, 0(sp)
  00014800:	00012283	lw	t0, 0(sp)
  00014804:	00410113	addi	sp, sp, 4
  00014808:	ffc10113	addi	sp, sp, -4
  0001480c:	00512023	sw	t0, 0(sp)
  00014810:	00012503	lw	a0, 0(sp)
  00014814:	fffff097	auipc	ra, 0xfffff	# 0x13814
  00014818:	524080e7	jalr	ra, 1316(ra)
  0001481c:	00410113	addi	sp, sp, 4
  00014820:	ffc10113	addi	sp, sp, -4
  00014824:	00a12023	sw	a0, 0(sp)
  00014828:	00410113	addi	sp, sp, 4
  0001482c:	00040293	addi	t0, s0, 0
  00014830:	ffc2a083	lw	ra, -4(t0)
  00014834:	ff82a403	lw	s0, -8(t0)
  00014838:	00028113	addi	sp, t0, 0
  0001483c:	00008067	ret
  00014840:	00040293	addi	t0, s0, 0
  00014844:	ffc2a083	lw	ra, -4(t0)
  00014848:	ff82a403	lw	s0, -8(t0)
  0001484c:	00028113	addi	sp, t0, 0
  00014850:	00008067	ret

00014854 <print_bool__bool>:
  00014854:	ff010113	addi	sp, sp, -16
  00014858:	00112623	sw	ra, 12(sp)
  0001485c:	00812423	sw	s0, 8(sp)
  00014860:	01010413	addi	s0, sp, 16
  00014864:	fea42a23	sw	a0, -12(s0)
  00014868:	ff442283	lw	t0, -12(s0)
  0001486c:	ffc10113	addi	sp, sp, -4
  00014870:	00512023	sw	t0, 0(sp)
  00014874:	00012283	lw	t0, 0(sp)
  00014878:	00410113	addi	sp, sp, 4
  0001487c:	02028863	beq	t0, zero, 0x148ac
  00014880:	00100293	addi	t0, zero, 1
  00014884:	ffc10113	addi	sp, sp, -4
  00014888:	00512023	sw	t0, 0(sp)
  0001488c:	00012503	lw	a0, 0(sp)
  00014890:	fffff097	auipc	ra, 0xfffff	# 0x13890
  00014894:	4a8080e7	jalr	ra, 1192(ra)
  00014898:	00410113	addi	sp, sp, 4
  0001489c:	ffc10113	addi	sp, sp, -4
  000148a0:	00a12023	sw	a0, 0(sp)
  000148a4:	00410113	addi	sp, sp, 4
  000148a8:	02c0006f	jal	zero, 0x148d4 <.L_f58_pc9>

000148ac <.L_f58_pc6>:
  000148ac:	00000293	addi	t0, zero, 0
  000148b0:	ffc10113	addi	sp, sp, -4
  000148b4:	00512023	sw	t0, 0(sp)
  000148b8:	00012503	lw	a0, 0(sp)
  000148bc:	fffff097	auipc	ra, 0xfffff	# 0x138bc
  000148c0:	47c080e7	jalr	ra, 1148(ra)
  000148c4:	00410113	addi	sp, sp, 4
  000148c8:	ffc10113	addi	sp, sp, -4
  000148cc:	00a12023	sw	a0, 0(sp)
  000148d0:	00410113	addi	sp, sp, 4

000148d4 <.L_f58_pc9>:
  000148d4:	00040293	addi	t0, s0, 0
  000148d8:	ffc2a083	lw	ra, -4(t0)
  000148dc:	ff82a403	lw	s0, -8(t0)
  000148e0:	00028113	addi	sp, t0, 0
  000148e4:	00008067	ret
  000148e8:	00040293	addi	t0, s0, 0
  000148ec:	ffc2a083	lw	ra, -4(t0)
  000148f0:	ff82a403	lw	s0, -8(t0)
  000148f4:	00028113	addi	sp, t0, 0
  000148f8:	00008067	ret

000148fc <print_str__String>:
  000148fc:	fe010113	addi	sp, sp, -32
  00014900:	00112e23	sw	ra, 28(sp)
  00014904:	00812c23	sw	s0, 24(sp)
  00014908:	02010413	addi	s0, sp, 32
  0001490c:	fea42a23	sw	a0, -12(s0)
  00014910:	fe042823	sw	zero, -16(s0)
  00014914:	fe042623	sw	zero, -20(s0)
  00014918:	ff442283	lw	t0, -12(s0)
  0001491c:	ffc10113	addi	sp, sp, -4
  00014920:	00512023	sw	t0, 0(sp)
  00014924:	00012283	lw	t0, 0(sp)
  00014928:	00410113	addi	sp, sp, 4
  0001492c:	ffc10113	addi	sp, sp, -4
  00014930:	00512023	sw	t0, 0(sp)
  00014934:	00000293	addi	t0, zero, 0
  00014938:	ffc10113	addi	sp, sp, -4
  0001493c:	00512023	sw	t0, 0(sp)
  00014940:	00012303	lw	t1, 0(sp)
  00014944:	00412283	lw	t0, 4(sp)
  00014948:	00810113	addi	sp, sp, 8
  0001494c:	406282b3	sub	t0, t0, t1
  00014950:	005032b3	sltu	t0, zero, t0
  00014954:	ffc10113	addi	sp, sp, -4
  00014958:	00512023	sw	t0, 0(sp)
  0001495c:	00012283	lw	t0, 0(sp)
  00014960:	00410113	addi	sp, sp, 4
  00014964:	0c028863	beq	t0, zero, 0x14a34
  00014968:	ff442283	lw	t0, -12(s0)
  0001496c:	ffc10113	addi	sp, sp, -4
  00014970:	00512023	sw	t0, 0(sp)
  00014974:	00012283	lw	t0, 0(sp)
  00014978:	00410113	addi	sp, sp, 4
  0001497c:	ffc10113	addi	sp, sp, -4
  00014980:	00512023	sw	t0, 0(sp)
  00014984:	00012503	lw	a0, 0(sp)
  00014988:	ffffb097	auipc	ra, 0xffffb	# 0xf988
  0001498c:	708080e7	jalr	ra, 1800(ra)
  00014990:	00410113	addi	sp, sp, 4
  00014994:	ffc10113	addi	sp, sp, -4
  00014998:	00a12023	sw	a0, 0(sp)
  0001499c:	00012283	lw	t0, 0(sp)
  000149a0:	00410113	addi	sp, sp, 4
  000149a4:	ffc10113	addi	sp, sp, -4
  000149a8:	00512023	sw	t0, 0(sp)
  000149ac:	00012283	lw	t0, 0(sp)
  000149b0:	00410113	addi	sp, sp, 4
  000149b4:	fe542823	sw	t0, -16(s0)
  000149b8:	00100293	addi	t0, zero, 1
  000149bc:	ffc10113	addi	sp, sp, -4
  000149c0:	00512023	sw	t0, 0(sp)
  000149c4:	ff442283	lw	t0, -12(s0)
  000149c8:	ffc10113	addi	sp, sp, -4
  000149cc:	00512023	sw	t0, 0(sp)
  000149d0:	00012283	lw	t0, 0(sp)
  000149d4:	00410113	addi	sp, sp, 4
  000149d8:	ffc10113	addi	sp, sp, -4
  000149dc:	00512023	sw	t0, 0(sp)
  000149e0:	00400293	addi	t0, zero, 4
  000149e4:	ffc10113	addi	sp, sp, -4
  000149e8:	00512023	sw	t0, 0(sp)
  000149ec:	00012303	lw	t1, 0(sp)
  000149f0:	00412283	lw	t0, 4(sp)
  000149f4:	00810113	addi	sp, sp, 8
  000149f8:	006282b3	add	t0, t0, t1
  000149fc:	ffc10113	addi	sp, sp, -4
  00014a00:	00512023	sw	t0, 0(sp)
  00014a04:	ff042283	lw	t0, -16(s0)
  00014a08:	ffc10113	addi	sp, sp, -4
  00014a0c:	00512023	sw	t0, 0(sp)
  00014a10:	00812503	lw	a0, 8(sp)
  00014a14:	00412583	lw	a1, 4(sp)
  00014a18:	00012603	lw	a2, 0(sp)
  00014a1c:	ffffb097	auipc	ra, 0xffffb	# 0xfa1c
  00014a20:	640080e7	jalr	ra, 1600(ra)
  00014a24:	00c10113	addi	sp, sp, 12
  00014a28:	ffc10113	addi	sp, sp, -4
  00014a2c:	00a12023	sw	a0, 0(sp)
  00014a30:	00410113	addi	sp, sp, 4

00014a34 <.L_f59_pc18>:
  00014a34:	00100293	addi	t0, zero, 1
  00014a38:	ffc10113	addi	sp, sp, -4
  00014a3c:	00512023	sw	t0, 0(sp)
  00014a40:	00000293	addi	t0, zero, 0
  00014a44:	ffc10113	addi	sp, sp, -4
  00014a48:	00512023	sw	t0, 0(sp)
  00014a4c:	00000293	addi	t0, zero, 0
  00014a50:	ffc10113	addi	sp, sp, -4
  00014a54:	00512023	sw	t0, 0(sp)
  00014a58:	00812503	lw	a0, 8(sp)
  00014a5c:	00412583	lw	a1, 4(sp)
  00014a60:	00012603	lw	a2, 0(sp)
  00014a64:	ffffb097	auipc	ra, 0xffffb	# 0xfa64
  00014a68:	5f8080e7	jalr	ra, 1528(ra)
  00014a6c:	00c10113	addi	sp, sp, 12
  00014a70:	ffc10113	addi	sp, sp, -4
  00014a74:	00a12023	sw	a0, 0(sp)
  00014a78:	00410113	addi	sp, sp, 4
  00014a7c:	00100293	addi	t0, zero, 1
  00014a80:	ffc10113	addi	sp, sp, -4
  00014a84:	00512023	sw	t0, 0(sp)
  00014a88:	00012503	lw	a0, 0(sp)
  00014a8c:	ffffd097	auipc	ra, 0xffffd	# 0x11a8c
  00014a90:	898080e7	jalr	ra, -1896(ra)
  00014a94:	00410113	addi	sp, sp, 4
  00014a98:	ffc10113	addi	sp, sp, -4
  00014a9c:	00a12023	sw	a0, 0(sp)
  00014aa0:	00012283	lw	t0, 0(sp)
  00014aa4:	00410113	addi	sp, sp, 4
  00014aa8:	fe542623	sw	t0, -20(s0)
  00014aac:	fec42283	lw	t0, -20(s0)
  00014ab0:	ffc10113	addi	sp, sp, -4
  00014ab4:	00512023	sw	t0, 0(sp)
  00014ab8:	00012283	lw	t0, 0(sp)
  00014abc:	00410113	addi	sp, sp, 4
  00014ac0:	ffc10113	addi	sp, sp, -4
  00014ac4:	00512023	sw	t0, 0(sp)
  00014ac8:	00400293	addi	t0, zero, 4
  00014acc:	ffc10113	addi	sp, sp, -4
  00014ad0:	00512023	sw	t0, 0(sp)
  00014ad4:	00012303	lw	t1, 0(sp)
  00014ad8:	00412283	lw	t0, 4(sp)
  00014adc:	00810113	addi	sp, sp, 8
  00014ae0:	006282b3	add	t0, t0, t1
  00014ae4:	ffc10113	addi	sp, sp, -4
  00014ae8:	00512023	sw	t0, 0(sp)
  00014aec:	00000293	addi	t0, zero, 0
  00014af0:	ffc10113	addi	sp, sp, -4
  00014af4:	00512023	sw	t0, 0(sp)
  00014af8:	00012283	lw	t0, 0(sp)
  00014afc:	00410113	addi	sp, sp, 4
  00014b00:	ffc10113	addi	sp, sp, -4
  00014b04:	00512023	sw	t0, 0(sp)
  00014b08:	00012303	lw	t1, 0(sp)
  00014b0c:	00412283	lw	t0, 4(sp)
  00014b10:	00810113	addi	sp, sp, 8
  00014b14:	006282b3	add	t0, t0, t1
  00014b18:	ffc10113	addi	sp, sp, -4
  00014b1c:	00512023	sw	t0, 0(sp)
  00014b20:	00a00293	addi	t0, zero, 10
  00014b24:	ffc10113	addi	sp, sp, -4
  00014b28:	00512023	sw	t0, 0(sp)
  00014b2c:	00012283	lw	t0, 0(sp)
  00014b30:	00410113	addi	sp, sp, 4
  00014b34:	0ff2f293	andi	t0, t0, 255
  00014b38:	ffc10113	addi	sp, sp, -4
  00014b3c:	00512023	sw	t0, 0(sp)
  00014b40:	00412503	lw	a0, 4(sp)
  00014b44:	00012583	lw	a1, 0(sp)
  00014b48:	ffffb097	auipc	ra, 0xffffb	# 0xfb48
  00014b4c:	550080e7	jalr	ra, 1360(ra)
  00014b50:	00810113	addi	sp, sp, 8
  00014b54:	ffc10113	addi	sp, sp, -4
  00014b58:	00a12023	sw	a0, 0(sp)
  00014b5c:	00410113	addi	sp, sp, 4
  00014b60:	00100293	addi	t0, zero, 1
  00014b64:	ffc10113	addi	sp, sp, -4
  00014b68:	00512023	sw	t0, 0(sp)
  00014b6c:	fec42283	lw	t0, -20(s0)
  00014b70:	ffc10113	addi	sp, sp, -4
  00014b74:	00512023	sw	t0, 0(sp)
  00014b78:	00100293	addi	t0, zero, 1
  00014b7c:	ffc10113	addi	sp, sp, -4
  00014b80:	00512023	sw	t0, 0(sp)
  00014b84:	00812503	lw	a0, 8(sp)
  00014b88:	00412583	lw	a1, 4(sp)
  00014b8c:	00012603	lw	a2, 0(sp)
  00014b90:	fffff097	auipc	ra, 0xfffff	# 0x13b90
  00014b94:	b74080e7	jalr	ra, -1164(ra)
  00014b98:	00c10113	addi	sp, sp, 12
  00014b9c:	ffc10113	addi	sp, sp, -4
  00014ba0:	00a12023	sw	a0, 0(sp)
  00014ba4:	00410113	addi	sp, sp, 4
  00014ba8:	fec42283	lw	t0, -20(s0)
  00014bac:	ffc10113	addi	sp, sp, -4
  00014bb0:	00512023	sw	t0, 0(sp)
  00014bb4:	00012283	lw	t0, 0(sp)
  00014bb8:	00410113	addi	sp, sp, 4
  00014bbc:	ffc10113	addi	sp, sp, -4
  00014bc0:	00512023	sw	t0, 0(sp)
  00014bc4:	00012503	lw	a0, 0(sp)
  00014bc8:	ffffe097	auipc	ra, 0xffffe	# 0x12bc8
  00014bcc:	61c080e7	jalr	ra, 1564(ra)
  00014bd0:	00410113	addi	sp, sp, 4
  00014bd4:	ffc10113	addi	sp, sp, -4
  00014bd8:	00a12023	sw	a0, 0(sp)
  00014bdc:	00410113	addi	sp, sp, 4
  00014be0:	00040293	addi	t0, s0, 0
  00014be4:	ffc2a083	lw	ra, -4(t0)
  00014be8:	ff82a403	lw	s0, -8(t0)
  00014bec:	00028113	addi	sp, t0, 0
  00014bf0:	00008067	ret
  00014bf4:	00040293	addi	t0, s0, 0
  00014bf8:	ffc2a083	lw	ra, -4(t0)
  00014bfc:	ff82a403	lw	s0, -8(t0)
  00014c00:	00028113	addi	sp, t0, 0
  00014c04:	00008067	ret

00014c08 <print_str__StringLiteral>:
  00014c08:	ff010113	addi	sp, sp, -16
  00014c0c:	00112623	sw	ra, 12(sp)
  00014c10:	00812423	sw	s0, 8(sp)
  00014c14:	01010413	addi	s0, sp, 16
  00014c18:	fea42a23	sw	a0, -12(s0)
  00014c1c:	ff442283	lw	t0, -12(s0)
  00014c20:	ffc10113	addi	sp, sp, -4
  00014c24:	00512023	sw	t0, 0(sp)
  00014c28:	00012503	lw	a0, 0(sp)
  00014c2c:	00000097	auipc	ra, 0x0	# 0x14c2c
  00014c30:	cd0080e7	jalr	ra, -816(ra)
  00014c34:	00410113	addi	sp, sp, 4
  00014c38:	ffc10113	addi	sp, sp, -4
  00014c3c:	00a12023	sw	a0, 0(sp)
  00014c40:	00410113	addi	sp, sp, 4
  00014c44:	00040293	addi	t0, s0, 0
  00014c48:	ffc2a083	lw	ra, -4(t0)
  00014c4c:	ff82a403	lw	s0, -8(t0)
  00014c50:	00028113	addi	sp, t0, 0
  00014c54:	00008067	ret
  00014c58:	00040293	addi	t0, s0, 0
  00014c5c:	ffc2a083	lw	ra, -4(t0)
  00014c60:	ff82a403	lw	s0, -8(t0)
  00014c64:	00028113	addi	sp, t0, 0
  00014c68:	00008067	ret

00014c6c <append__String__u8>:
  00014c6c:	fd010113	addi	sp, sp, -48
  00014c70:	02112623	sw	ra, 44(sp)
  00014c74:	02812423	sw	s0, 40(sp)
  00014c78:	03010413	addi	s0, sp, 48
  00014c7c:	fea42a23	sw	a0, -12(s0)
  00014c80:	feb42823	sw	a1, -16(s0)
  00014c84:	fe042623	sw	zero, -20(s0)
  00014c88:	fe042423	sw	zero, -24(s0)
  00014c8c:	fe042223	sw	zero, -28(s0)
  00014c90:	00000293	addi	t0, zero, 0
  00014c94:	ffc10113	addi	sp, sp, -4
  00014c98:	00512023	sw	t0, 0(sp)
  00014c9c:	00012283	lw	t0, 0(sp)
  00014ca0:	00410113	addi	sp, sp, 4
  00014ca4:	fe542623	sw	t0, -20(s0)
  00014ca8:	ff442283	lw	t0, -12(s0)
  00014cac:	ffc10113	addi	sp, sp, -4
  00014cb0:	00512023	sw	t0, 0(sp)
  00014cb4:	00012283	lw	t0, 0(sp)
  00014cb8:	00410113	addi	sp, sp, 4
  00014cbc:	ffc10113	addi	sp, sp, -4
  00014cc0:	00512023	sw	t0, 0(sp)
  00014cc4:	00000293	addi	t0, zero, 0
  00014cc8:	ffc10113	addi	sp, sp, -4
  00014ccc:	00512023	sw	t0, 0(sp)
  00014cd0:	00012303	lw	t1, 0(sp)
  00014cd4:	00412283	lw	t0, 4(sp)
  00014cd8:	00810113	addi	sp, sp, 8
  00014cdc:	406282b3	sub	t0, t0, t1
  00014ce0:	005032b3	sltu	t0, zero, t0
  00014ce4:	ffc10113	addi	sp, sp, -4
  00014ce8:	00512023	sw	t0, 0(sp)
  00014cec:	00012283	lw	t0, 0(sp)
  00014cf0:	00410113	addi	sp, sp, 4
  00014cf4:	04028a63	beq	t0, zero, 0x14d48
  00014cf8:	ff442283	lw	t0, -12(s0)
  00014cfc:	ffc10113	addi	sp, sp, -4
  00014d00:	00512023	sw	t0, 0(sp)
  00014d04:	00012283	lw	t0, 0(sp)
  00014d08:	00410113	addi	sp, sp, 4
  00014d0c:	ffc10113	addi	sp, sp, -4
  00014d10:	00512023	sw	t0, 0(sp)
  00014d14:	00012503	lw	a0, 0(sp)
  00014d18:	ffffb097	auipc	ra, 0xffffb	# 0xfd18
  00014d1c:	378080e7	jalr	ra, 888(ra)
  00014d20:	00410113	addi	sp, sp, 4
  00014d24:	ffc10113	addi	sp, sp, -4
  00014d28:	00a12023	sw	a0, 0(sp)
  00014d2c:	00012283	lw	t0, 0(sp)
  00014d30:	00410113	addi	sp, sp, 4
  00014d34:	ffc10113	addi	sp, sp, -4
  00014d38:	00512023	sw	t0, 0(sp)
  00014d3c:	00012283	lw	t0, 0(sp)
  00014d40:	00410113	addi	sp, sp, 4
  00014d44:	fe542623	sw	t0, -20(s0)

00014d48 <.L_f61_pc12>:
  00014d48:	fec42283	lw	t0, -20(s0)
  00014d4c:	ffc10113	addi	sp, sp, -4
  00014d50:	00512023	sw	t0, 0(sp)
  00014d54:	00100293	addi	t0, zero, 1
  00014d58:	ffc10113	addi	sp, sp, -4
  00014d5c:	00512023	sw	t0, 0(sp)
  00014d60:	00012303	lw	t1, 0(sp)
  00014d64:	00412283	lw	t0, 4(sp)
  00014d68:	00810113	addi	sp, sp, 8
  00014d6c:	006282b3	add	t0, t0, t1
  00014d70:	ffc10113	addi	sp, sp, -4
  00014d74:	00512023	sw	t0, 0(sp)
  00014d78:	fec42283	lw	t0, -20(s0)
  00014d7c:	ffc10113	addi	sp, sp, -4
  00014d80:	00512023	sw	t0, 0(sp)
  00014d84:	00200293	addi	t0, zero, 2
  00014d88:	ffc10113	addi	sp, sp, -4
  00014d8c:	00512023	sw	t0, 0(sp)
  00014d90:	00012303	lw	t1, 0(sp)
  00014d94:	00412283	lw	t0, 4(sp)
  00014d98:	00810113	addi	sp, sp, 8
  00014d9c:	006282b3	add	t0, t0, t1
  00014da0:	ffc10113	addi	sp, sp, -4
  00014da4:	00512023	sw	t0, 0(sp)
  00014da8:	00412503	lw	a0, 4(sp)
  00014dac:	00012583	lw	a1, 0(sp)
  00014db0:	ffffc097	auipc	ra, 0xffffc	# 0x10db0
  00014db4:	40c080e7	jalr	ra, 1036(ra)
  00014db8:	00810113	addi	sp, sp, 8
  00014dbc:	ffc10113	addi	sp, sp, -4
  00014dc0:	00a12023	sw	a0, 0(sp)
  00014dc4:	00012283	lw	t0, 0(sp)
  00014dc8:	00410113	addi	sp, sp, 4
  00014dcc:	fe542423	sw	t0, -24(s0)
  00014dd0:	00000293	addi	t0, zero, 0
  00014dd4:	ffc10113	addi	sp, sp, -4
  00014dd8:	00512023	sw	t0, 0(sp)
  00014ddc:	00012283	lw	t0, 0(sp)
  00014de0:	00410113	addi	sp, sp, 4
  00014de4:	fe542223	sw	t0, -28(s0)

00014de8 <.L_f61_pc22>:
  00014de8:	fe442283	lw	t0, -28(s0)
  00014dec:	ffc10113	addi	sp, sp, -4
  00014df0:	00512023	sw	t0, 0(sp)
  00014df4:	fec42283	lw	t0, -20(s0)
  00014df8:	ffc10113	addi	sp, sp, -4
  00014dfc:	00512023	sw	t0, 0(sp)
  00014e00:	00012303	lw	t1, 0(sp)
  00014e04:	00412283	lw	t0, 4(sp)
  00014e08:	00810113	addi	sp, sp, 8
  00014e0c:	0062a2b3	slt	t0, t0, t1
  00014e10:	ffc10113	addi	sp, sp, -4
  00014e14:	00512023	sw	t0, 0(sp)
  00014e18:	00012283	lw	t0, 0(sp)
  00014e1c:	00410113	addi	sp, sp, 4
  00014e20:	16028463	beq	t0, zero, 0x14f88
  00014e24:	fe842283	lw	t0, -24(s0)
  00014e28:	ffc10113	addi	sp, sp, -4
  00014e2c:	00512023	sw	t0, 0(sp)
  00014e30:	00400293	addi	t0, zero, 4
  00014e34:	ffc10113	addi	sp, sp, -4
  00014e38:	00512023	sw	t0, 0(sp)
  00014e3c:	00012303	lw	t1, 0(sp)
  00014e40:	00412283	lw	t0, 4(sp)
  00014e44:	00810113	addi	sp, sp, 8
  00014e48:	006282b3	add	t0, t0, t1
  00014e4c:	ffc10113	addi	sp, sp, -4
  00014e50:	00512023	sw	t0, 0(sp)
  00014e54:	fe442283	lw	t0, -28(s0)
  00014e58:	ffc10113	addi	sp, sp, -4
  00014e5c:	00512023	sw	t0, 0(sp)
  00014e60:	00012283	lw	t0, 0(sp)
  00014e64:	00410113	addi	sp, sp, 4
  00014e68:	ffc10113	addi	sp, sp, -4
  00014e6c:	00512023	sw	t0, 0(sp)
  00014e70:	00012303	lw	t1, 0(sp)
  00014e74:	00412283	lw	t0, 4(sp)
  00014e78:	00810113	addi	sp, sp, 8
  00014e7c:	006282b3	add	t0, t0, t1
  00014e80:	ffc10113	addi	sp, sp, -4
  00014e84:	00512023	sw	t0, 0(sp)
  00014e88:	ff442283	lw	t0, -12(s0)
  00014e8c:	ffc10113	addi	sp, sp, -4
  00014e90:	00512023	sw	t0, 0(sp)
  00014e94:	00012283	lw	t0, 0(sp)
  00014e98:	00410113	addi	sp, sp, 4
  00014e9c:	ffc10113	addi	sp, sp, -4
  00014ea0:	00512023	sw	t0, 0(sp)
  00014ea4:	00400293	addi	t0, zero, 4
  00014ea8:	ffc10113	addi	sp, sp, -4
  00014eac:	00512023	sw	t0, 0(sp)
  00014eb0:	00012303	lw	t1, 0(sp)
  00014eb4:	00412283	lw	t0, 4(sp)
  00014eb8:	00810113	addi	sp, sp, 8
  00014ebc:	006282b3	add	t0, t0, t1
  00014ec0:	ffc10113	addi	sp, sp, -4
  00014ec4:	00512023	sw	t0, 0(sp)
  00014ec8:	fe442283	lw	t0, -28(s0)
  00014ecc:	ffc10113	addi	sp, sp, -4
  00014ed0:	00512023	sw	t0, 0(sp)
  00014ed4:	00012283	lw	t0, 0(sp)
  00014ed8:	00410113	addi	sp, sp, 4
  00014edc:	ffc10113	addi	sp, sp, -4
  00014ee0:	00512023	sw	t0, 0(sp)
  00014ee4:	00012303	lw	t1, 0(sp)
  00014ee8:	00412283	lw	t0, 4(sp)
  00014eec:	00810113	addi	sp, sp, 8
  00014ef0:	006282b3	add	t0, t0, t1
  00014ef4:	ffc10113	addi	sp, sp, -4
  00014ef8:	00512023	sw	t0, 0(sp)
  00014efc:	00012503	lw	a0, 0(sp)
  00014f00:	ffffb097	auipc	ra, 0xffffb	# 0xff00
  00014f04:	180080e7	jalr	ra, 384(ra)
  00014f08:	00410113	addi	sp, sp, 4
  00014f0c:	ffc10113	addi	sp, sp, -4
  00014f10:	00a12023	sw	a0, 0(sp)
  00014f14:	00012283	lw	t0, 0(sp)
  00014f18:	00410113	addi	sp, sp, 4
  00014f1c:	0ff2f293	andi	t0, t0, 255
  00014f20:	ffc10113	addi	sp, sp, -4
  00014f24:	00512023	sw	t0, 0(sp)
  00014f28:	00412503	lw	a0, 4(sp)
  00014f2c:	00012583	lw	a1, 0(sp)
  00014f30:	ffffb097	auipc	ra, 0xffffb	# 0xff30
  00014f34:	168080e7	jalr	ra, 360(ra)
  00014f38:	00810113	addi	sp, sp, 8
  00014f3c:	ffc10113	addi	sp, sp, -4
  00014f40:	00a12023	sw	a0, 0(sp)
  00014f44:	00410113	addi	sp, sp, 4
  00014f48:	fe442283	lw	t0, -28(s0)
  00014f4c:	ffc10113	addi	sp, sp, -4
  00014f50:	00512023	sw	t0, 0(sp)
  00014f54:	00100293	addi	t0, zero, 1
  00014f58:	ffc10113	addi	sp, sp, -4
  00014f5c:	00512023	sw	t0, 0(sp)
  00014f60:	00012303	lw	t1, 0(sp)
  00014f64:	00412283	lw	t0, 4(sp)
  00014f68:	00810113	addi	sp, sp, 8
  00014f6c:	006282b3	add	t0, t0, t1
  00014f70:	ffc10113	addi	sp, sp, -4
  00014f74:	00512023	sw	t0, 0(sp)
  00014f78:	00012283	lw	t0, 0(sp)
  00014f7c:	00410113	addi	sp, sp, 4
  00014f80:	fe542223	sw	t0, -28(s0)
  00014f84:	e65ff06f	jal	zero, 0x14de8 <.L_f61_pc22>

00014f88 <.L_f61_pc48>:
  00014f88:	fe842283	lw	t0, -24(s0)
  00014f8c:	ffc10113	addi	sp, sp, -4
  00014f90:	00512023	sw	t0, 0(sp)
  00014f94:	00400293	addi	t0, zero, 4
  00014f98:	ffc10113	addi	sp, sp, -4
  00014f9c:	00512023	sw	t0, 0(sp)
  00014fa0:	00012303	lw	t1, 0(sp)
  00014fa4:	00412283	lw	t0, 4(sp)
  00014fa8:	00810113	addi	sp, sp, 8
  00014fac:	006282b3	add	t0, t0, t1
  00014fb0:	ffc10113	addi	sp, sp, -4
  00014fb4:	00512023	sw	t0, 0(sp)
  00014fb8:	fec42283	lw	t0, -20(s0)
  00014fbc:	ffc10113	addi	sp, sp, -4
  00014fc0:	00512023	sw	t0, 0(sp)
  00014fc4:	00012283	lw	t0, 0(sp)
  00014fc8:	00410113	addi	sp, sp, 4
  00014fcc:	ffc10113	addi	sp, sp, -4
  00014fd0:	00512023	sw	t0, 0(sp)
  00014fd4:	00012303	lw	t1, 0(sp)
  00014fd8:	00412283	lw	t0, 4(sp)
  00014fdc:	00810113	addi	sp, sp, 8
  00014fe0:	006282b3	add	t0, t0, t1
  00014fe4:	ffc10113	addi	sp, sp, -4
  00014fe8:	00512023	sw	t0, 0(sp)
  00014fec:	ff042283	lw	t0, -16(s0)
  00014ff0:	ffc10113	addi	sp, sp, -4
  00014ff4:	00512023	sw	t0, 0(sp)
  00014ff8:	00012283	lw	t0, 0(sp)
  00014ffc:	00410113	addi	sp, sp, 4
  00015000:	0ff2f293	andi	t0, t0, 255
  00015004:	ffc10113	addi	sp, sp, -4
  00015008:	00512023	sw	t0, 0(sp)
  0001500c:	00412503	lw	a0, 4(sp)
  00015010:	00012583	lw	a1, 0(sp)
  00015014:	ffffb097	auipc	ra, 0xffffb	# 0x10014
  00015018:	084080e7	jalr	ra, 132(ra)
  0001501c:	00810113	addi	sp, sp, 8
  00015020:	ffc10113	addi	sp, sp, -4
  00015024:	00a12023	sw	a0, 0(sp)
  00015028:	00410113	addi	sp, sp, 4
  0001502c:	fe842283	lw	t0, -24(s0)
  00015030:	ffc10113	addi	sp, sp, -4
  00015034:	00512023	sw	t0, 0(sp)
  00015038:	00400293	addi	t0, zero, 4
  0001503c:	ffc10113	addi	sp, sp, -4
  00015040:	00512023	sw	t0, 0(sp)
  00015044:	00012303	lw	t1, 0(sp)
  00015048:	00412283	lw	t0, 4(sp)
  0001504c:	00810113	addi	sp, sp, 8
  00015050:	006282b3	add	t0, t0, t1
  00015054:	ffc10113	addi	sp, sp, -4
  00015058:	00512023	sw	t0, 0(sp)
  0001505c:	fec42283	lw	t0, -20(s0)
  00015060:	ffc10113	addi	sp, sp, -4
  00015064:	00512023	sw	t0, 0(sp)
  00015068:	00100293	addi	t0, zero, 1
  0001506c:	ffc10113	addi	sp, sp, -4
  00015070:	00512023	sw	t0, 0(sp)
  00015074:	00012303	lw	t1, 0(sp)
  00015078:	00412283	lw	t0, 4(sp)
  0001507c:	00810113	addi	sp, sp, 8
  00015080:	006282b3	add	t0, t0, t1
  00015084:	ffc10113	addi	sp, sp, -4
  00015088:	00512023	sw	t0, 0(sp)
  0001508c:	00012283	lw	t0, 0(sp)
  00015090:	00410113	addi	sp, sp, 4
  00015094:	ffc10113	addi	sp, sp, -4
  00015098:	00512023	sw	t0, 0(sp)
  0001509c:	00012303	lw	t1, 0(sp)
  000150a0:	00412283	lw	t0, 4(sp)
  000150a4:	00810113	addi	sp, sp, 8
  000150a8:	006282b3	add	t0, t0, t1
  000150ac:	ffc10113	addi	sp, sp, -4
  000150b0:	00512023	sw	t0, 0(sp)
  000150b4:	00000293	addi	t0, zero, 0
  000150b8:	ffc10113	addi	sp, sp, -4
  000150bc:	00512023	sw	t0, 0(sp)
  000150c0:	00412503	lw	a0, 4(sp)
  000150c4:	00012583	lw	a1, 0(sp)
  000150c8:	ffffb097	auipc	ra, 0xffffb	# 0x100c8
  000150cc:	fd0080e7	jalr	ra, -48(ra)
  000150d0:	00810113	addi	sp, sp, 8
  000150d4:	ffc10113	addi	sp, sp, -4
  000150d8:	00a12023	sw	a0, 0(sp)
  000150dc:	00410113	addi	sp, sp, 4
  000150e0:	fe842283	lw	t0, -24(s0)
  000150e4:	ffc10113	addi	sp, sp, -4
  000150e8:	00512023	sw	t0, 0(sp)
  000150ec:	00012283	lw	t0, 0(sp)
  000150f0:	00410113	addi	sp, sp, 4
  000150f4:	00028513	addi	a0, t0, 0
  000150f8:	00040293	addi	t0, s0, 0
  000150fc:	ffc2a083	lw	ra, -4(t0)
  00015100:	ff82a403	lw	s0, -8(t0)
  00015104:	00028113	addi	sp, t0, 0
  00015108:	00008067	ret
  0001510c:	00040293	addi	t0, s0, 0
  00015110:	ffc2a083	lw	ra, -4(t0)
  00015114:	ff82a403	lw	s0, -8(t0)
  00015118:	00028113	addi	sp, t0, 0
  0001511c:	00008067	ret

00015120 <append__String__String>:
  00015120:	fd010113	addi	sp, sp, -48
  00015124:	02112623	sw	ra, 44(sp)
  00015128:	02812423	sw	s0, 40(sp)
  0001512c:	03010413	addi	s0, sp, 48
  00015130:	fea42a23	sw	a0, -12(s0)
  00015134:	feb42823	sw	a1, -16(s0)
  00015138:	fe042623	sw	zero, -20(s0)
  0001513c:	fe042423	sw	zero, -24(s0)
  00015140:	fe042223	sw	zero, -28(s0)
  00015144:	fe042023	sw	zero, -32(s0)
  00015148:	00000293	addi	t0, zero, 0
  0001514c:	ffc10113	addi	sp, sp, -4
  00015150:	00512023	sw	t0, 0(sp)
  00015154:	00012283	lw	t0, 0(sp)
  00015158:	00410113	addi	sp, sp, 4
  0001515c:	fe542623	sw	t0, -20(s0)
  00015160:	00000293	addi	t0, zero, 0
  00015164:	ffc10113	addi	sp, sp, -4
  00015168:	00512023	sw	t0, 0(sp)
  0001516c:	00012283	lw	t0, 0(sp)
  00015170:	00410113	addi	sp, sp, 4
  00015174:	fe542423	sw	t0, -24(s0)
  00015178:	ff442283	lw	t0, -12(s0)
  0001517c:	ffc10113	addi	sp, sp, -4
  00015180:	00512023	sw	t0, 0(sp)
  00015184:	00012283	lw	t0, 0(sp)
  00015188:	00410113	addi	sp, sp, 4
  0001518c:	ffc10113	addi	sp, sp, -4
  00015190:	00512023	sw	t0, 0(sp)
  00015194:	00000293	addi	t0, zero, 0
  00015198:	ffc10113	addi	sp, sp, -4
  0001519c:	00512023	sw	t0, 0(sp)
  000151a0:	00012303	lw	t1, 0(sp)
  000151a4:	00412283	lw	t0, 4(sp)
  000151a8:	00810113	addi	sp, sp, 8
  000151ac:	406282b3	sub	t0, t0, t1
  000151b0:	005032b3	sltu	t0, zero, t0
  000151b4:	ffc10113	addi	sp, sp, -4
  000151b8:	00512023	sw	t0, 0(sp)
  000151bc:	00012283	lw	t0, 0(sp)
  000151c0:	00410113	addi	sp, sp, 4
  000151c4:	04028a63	beq	t0, zero, 0x15218
  000151c8:	ff442283	lw	t0, -12(s0)
  000151cc:	ffc10113	addi	sp, sp, -4
  000151d0:	00512023	sw	t0, 0(sp)
  000151d4:	00012283	lw	t0, 0(sp)
  000151d8:	00410113	addi	sp, sp, 4
  000151dc:	ffc10113	addi	sp, sp, -4
  000151e0:	00512023	sw	t0, 0(sp)
  000151e4:	00012503	lw	a0, 0(sp)
  000151e8:	ffffb097	auipc	ra, 0xffffb	# 0x101e8
  000151ec:	ea8080e7	jalr	ra, -344(ra)
  000151f0:	00410113	addi	sp, sp, 4
  000151f4:	ffc10113	addi	sp, sp, -4
  000151f8:	00a12023	sw	a0, 0(sp)
  000151fc:	00012283	lw	t0, 0(sp)
  00015200:	00410113	addi	sp, sp, 4
  00015204:	ffc10113	addi	sp, sp, -4
  00015208:	00512023	sw	t0, 0(sp)
  0001520c:	00012283	lw	t0, 0(sp)
  00015210:	00410113	addi	sp, sp, 4
  00015214:	fe542623	sw	t0, -20(s0)

00015218 <.L_f62_pc14>:
  00015218:	ff042283	lw	t0, -16(s0)
  0001521c:	ffc10113	addi	sp, sp, -4
  00015220:	00512023	sw	t0, 0(sp)
  00015224:	00012283	lw	t0, 0(sp)
  00015228:	00410113	addi	sp, sp, 4
  0001522c:	ffc10113	addi	sp, sp, -4
  00015230:	00512023	sw	t0, 0(sp)
  00015234:	00000293	addi	t0, zero, 0
  00015238:	ffc10113	addi	sp, sp, -4
  0001523c:	00512023	sw	t0, 0(sp)
  00015240:	00012303	lw	t1, 0(sp)
  00015244:	00412283	lw	t0, 4(sp)
  00015248:	00810113	addi	sp, sp, 8
  0001524c:	406282b3	sub	t0, t0, t1
  00015250:	005032b3	sltu	t0, zero, t0
  00015254:	ffc10113	addi	sp, sp, -4
  00015258:	00512023	sw	t0, 0(sp)
  0001525c:	00012283	lw	t0, 0(sp)
  00015260:	00410113	addi	sp, sp, 4
  00015264:	04028a63	beq	t0, zero, 0x152b8
  00015268:	ff042283	lw	t0, -16(s0)
  0001526c:	ffc10113	addi	sp, sp, -4
  00015270:	00512023	sw	t0, 0(sp)
  00015274:	00012283	lw	t0, 0(sp)
  00015278:	00410113	addi	sp, sp, 4
  0001527c:	ffc10113	addi	sp, sp, -4
  00015280:	00512023	sw	t0, 0(sp)
  00015284:	00012503	lw	a0, 0(sp)
  00015288:	ffffb097	auipc	ra, 0xffffb	# 0x10288
  0001528c:	e08080e7	jalr	ra, -504(ra)
  00015290:	00410113	addi	sp, sp, 4
  00015294:	ffc10113	addi	sp, sp, -4
  00015298:	00a12023	sw	a0, 0(sp)
  0001529c:	00012283	lw	t0, 0(sp)
  000152a0:	00410113	addi	sp, sp, 4
  000152a4:	ffc10113	addi	sp, sp, -4
  000152a8:	00512023	sw	t0, 0(sp)
  000152ac:	00012283	lw	t0, 0(sp)
  000152b0:	00410113	addi	sp, sp, 4
  000152b4:	fe542423	sw	t0, -24(s0)

000152b8 <.L_f62_pc24>:
  000152b8:	fec42283	lw	t0, -20(s0)
  000152bc:	ffc10113	addi	sp, sp, -4
  000152c0:	00512023	sw	t0, 0(sp)
  000152c4:	fe842283	lw	t0, -24(s0)
  000152c8:	ffc10113	addi	sp, sp, -4
  000152cc:	00512023	sw	t0, 0(sp)
  000152d0:	00012303	lw	t1, 0(sp)
  000152d4:	00412283	lw	t0, 4(sp)
  000152d8:	00810113	addi	sp, sp, 8
  000152dc:	006282b3	add	t0, t0, t1
  000152e0:	ffc10113	addi	sp, sp, -4
  000152e4:	00512023	sw	t0, 0(sp)
  000152e8:	fec42283	lw	t0, -20(s0)
  000152ec:	ffc10113	addi	sp, sp, -4
  000152f0:	00512023	sw	t0, 0(sp)
  000152f4:	fe842283	lw	t0, -24(s0)
  000152f8:	ffc10113	addi	sp, sp, -4
  000152fc:	00512023	sw	t0, 0(sp)
  00015300:	00012303	lw	t1, 0(sp)
  00015304:	00412283	lw	t0, 4(sp)
  00015308:	00810113	addi	sp, sp, 8
  0001530c:	006282b3	add	t0, t0, t1
  00015310:	ffc10113	addi	sp, sp, -4
  00015314:	00512023	sw	t0, 0(sp)
  00015318:	00100293	addi	t0, zero, 1
  0001531c:	ffc10113	addi	sp, sp, -4
  00015320:	00512023	sw	t0, 0(sp)
  00015324:	00012303	lw	t1, 0(sp)
  00015328:	00412283	lw	t0, 4(sp)
  0001532c:	00810113	addi	sp, sp, 8
  00015330:	006282b3	add	t0, t0, t1
  00015334:	ffc10113	addi	sp, sp, -4
  00015338:	00512023	sw	t0, 0(sp)
  0001533c:	00412503	lw	a0, 4(sp)
  00015340:	00012583	lw	a1, 0(sp)
  00015344:	ffffc097	auipc	ra, 0xffffc	# 0x11344
  00015348:	e78080e7	jalr	ra, -392(ra)
  0001534c:	00810113	addi	sp, sp, 8
  00015350:	ffc10113	addi	sp, sp, -4
  00015354:	00a12023	sw	a0, 0(sp)
  00015358:	00012283	lw	t0, 0(sp)
  0001535c:	00410113	addi	sp, sp, 4
  00015360:	fe542223	sw	t0, -28(s0)
  00015364:	00000293	addi	t0, zero, 0
  00015368:	ffc10113	addi	sp, sp, -4
  0001536c:	00512023	sw	t0, 0(sp)
  00015370:	00012283	lw	t0, 0(sp)
  00015374:	00410113	addi	sp, sp, 4
  00015378:	fe542023	sw	t0, -32(s0)

0001537c <.L_f62_pc36>:
  0001537c:	fe042283	lw	t0, -32(s0)
  00015380:	ffc10113	addi	sp, sp, -4
  00015384:	00512023	sw	t0, 0(sp)
  00015388:	fec42283	lw	t0, -20(s0)
  0001538c:	ffc10113	addi	sp, sp, -4
  00015390:	00512023	sw	t0, 0(sp)
  00015394:	00012303	lw	t1, 0(sp)
  00015398:	00412283	lw	t0, 4(sp)
  0001539c:	00810113	addi	sp, sp, 8
  000153a0:	0062a2b3	slt	t0, t0, t1
  000153a4:	ffc10113	addi	sp, sp, -4
  000153a8:	00512023	sw	t0, 0(sp)
  000153ac:	00012283	lw	t0, 0(sp)
  000153b0:	00410113	addi	sp, sp, 4
  000153b4:	16028463	beq	t0, zero, 0x1551c
  000153b8:	fe442283	lw	t0, -28(s0)
  000153bc:	ffc10113	addi	sp, sp, -4
  000153c0:	00512023	sw	t0, 0(sp)
  000153c4:	00400293	addi	t0, zero, 4
  000153c8:	ffc10113	addi	sp, sp, -4
  000153cc:	00512023	sw	t0, 0(sp)
  000153d0:	00012303	lw	t1, 0(sp)
  000153d4:	00412283	lw	t0, 4(sp)
  000153d8:	00810113	addi	sp, sp, 8
  000153dc:	006282b3	add	t0, t0, t1
  000153e0:	ffc10113	addi	sp, sp, -4
  000153e4:	00512023	sw	t0, 0(sp)
  000153e8:	fe042283	lw	t0, -32(s0)
  000153ec:	ffc10113	addi	sp, sp, -4
  000153f0:	00512023	sw	t0, 0(sp)
  000153f4:	00012283	lw	t0, 0(sp)
  000153f8:	00410113	addi	sp, sp, 4
  000153fc:	ffc10113	addi	sp, sp, -4
  00015400:	00512023	sw	t0, 0(sp)
  00015404:	00012303	lw	t1, 0(sp)
  00015408:	00412283	lw	t0, 4(sp)
  0001540c:	00810113	addi	sp, sp, 8
  00015410:	006282b3	add	t0, t0, t1
  00015414:	ffc10113	addi	sp, sp, -4
  00015418:	00512023	sw	t0, 0(sp)
  0001541c:	ff442283	lw	t0, -12(s0)
  00015420:	ffc10113	addi	sp, sp, -4
  00015424:	00512023	sw	t0, 0(sp)
  00015428:	00012283	lw	t0, 0(sp)
  0001542c:	00410113	addi	sp, sp, 4
  00015430:	ffc10113	addi	sp, sp, -4
  00015434:	00512023	sw	t0, 0(sp)
  00015438:	00400293	addi	t0, zero, 4
  0001543c:	ffc10113	addi	sp, sp, -4
  00015440:	00512023	sw	t0, 0(sp)
  00015444:	00012303	lw	t1, 0(sp)
  00015448:	00412283	lw	t0, 4(sp)
  0001544c:	00810113	addi	sp, sp, 8
  00015450:	006282b3	add	t0, t0, t1
  00015454:	ffc10113	addi	sp, sp, -4
  00015458:	00512023	sw	t0, 0(sp)
  0001545c:	fe042283	lw	t0, -32(s0)
  00015460:	ffc10113	addi	sp, sp, -4
  00015464:	00512023	sw	t0, 0(sp)
  00015468:	00012283	lw	t0, 0(sp)
  0001546c:	00410113	addi	sp, sp, 4
  00015470:	ffc10113	addi	sp, sp, -4
  00015474:	00512023	sw	t0, 0(sp)
  00015478:	00012303	lw	t1, 0(sp)
  0001547c:	00412283	lw	t0, 4(sp)
  00015480:	00810113	addi	sp, sp, 8
  00015484:	006282b3	add	t0, t0, t1
  00015488:	ffc10113	addi	sp, sp, -4
  0001548c:	00512023	sw	t0, 0(sp)
  00015490:	00012503	lw	a0, 0(sp)
  00015494:	ffffb097	auipc	ra, 0xffffb	# 0x10494
  00015498:	bec080e7	jalr	ra, -1044(ra)
  0001549c:	00410113	addi	sp, sp, 4
  000154a0:	ffc10113	addi	sp, sp, -4
  000154a4:	00a12023	sw	a0, 0(sp)
  000154a8:	00012283	lw	t0, 0(sp)
  000154ac:	00410113	addi	sp, sp, 4
  000154b0:	0ff2f293	andi	t0, t0, 255
  000154b4:	ffc10113	addi	sp, sp, -4
  000154b8:	00512023	sw	t0, 0(sp)
  000154bc:	00412503	lw	a0, 4(sp)
  000154c0:	00012583	lw	a1, 0(sp)
  000154c4:	ffffb097	auipc	ra, 0xffffb	# 0x104c4
  000154c8:	bd4080e7	jalr	ra, -1068(ra)
  000154cc:	00810113	addi	sp, sp, 8
  000154d0:	ffc10113	addi	sp, sp, -4
  000154d4:	00a12023	sw	a0, 0(sp)
  000154d8:	00410113	addi	sp, sp, 4
  000154dc:	fe042283	lw	t0, -32(s0)
  000154e0:	ffc10113	addi	sp, sp, -4
  000154e4:	00512023	sw	t0, 0(sp)
  000154e8:	00100293	addi	t0, zero, 1
  000154ec:	ffc10113	addi	sp, sp, -4
  000154f0:	00512023	sw	t0, 0(sp)
  000154f4:	00012303	lw	t1, 0(sp)
  000154f8:	00412283	lw	t0, 4(sp)
  000154fc:	00810113	addi	sp, sp, 8
  00015500:	006282b3	add	t0, t0, t1
  00015504:	ffc10113	addi	sp, sp, -4
  00015508:	00512023	sw	t0, 0(sp)
  0001550c:	00012283	lw	t0, 0(sp)
  00015510:	00410113	addi	sp, sp, 4
  00015514:	fe542023	sw	t0, -32(s0)
  00015518:	e65ff06f	jal	zero, 0x1537c <.L_f62_pc36>

0001551c <.L_f62_pc62>:
  0001551c:	00000293	addi	t0, zero, 0
  00015520:	ffc10113	addi	sp, sp, -4
  00015524:	00512023	sw	t0, 0(sp)
  00015528:	00012283	lw	t0, 0(sp)
  0001552c:	00410113	addi	sp, sp, 4
  00015530:	fe542023	sw	t0, -32(s0)

00015534 <.L_f62_pc64>:
  00015534:	fe042283	lw	t0, -32(s0)
  00015538:	ffc10113	addi	sp, sp, -4
  0001553c:	00512023	sw	t0, 0(sp)
  00015540:	fe842283	lw	t0, -24(s0)
  00015544:	ffc10113	addi	sp, sp, -4
  00015548:	00512023	sw	t0, 0(sp)
  0001554c:	00012303	lw	t1, 0(sp)
  00015550:	00412283	lw	t0, 4(sp)
  00015554:	00810113	addi	sp, sp, 8
  00015558:	0062a2b3	slt	t0, t0, t1
  0001555c:	ffc10113	addi	sp, sp, -4
  00015560:	00512023	sw	t0, 0(sp)
  00015564:	00012283	lw	t0, 0(sp)
  00015568:	00410113	addi	sp, sp, 4
  0001556c:	18028663	beq	t0, zero, 0x156f8
  00015570:	fe442283	lw	t0, -28(s0)
  00015574:	ffc10113	addi	sp, sp, -4
  00015578:	00512023	sw	t0, 0(sp)
  0001557c:	00400293	addi	t0, zero, 4
  00015580:	ffc10113	addi	sp, sp, -4
  00015584:	00512023	sw	t0, 0(sp)
  00015588:	00012303	lw	t1, 0(sp)
  0001558c:	00412283	lw	t0, 4(sp)
  00015590:	00810113	addi	sp, sp, 8
  00015594:	006282b3	add	t0, t0, t1
  00015598:	ffc10113	addi	sp, sp, -4
  0001559c:	00512023	sw	t0, 0(sp)
  000155a0:	fec42283	lw	t0, -20(s0)
  000155a4:	ffc10113	addi	sp, sp, -4
  000155a8:	00512023	sw	t0, 0(sp)
  000155ac:	fe042283	lw	t0, -32(s0)
  000155b0:	ffc10113	addi	sp, sp, -4
  000155b4:	00512023	sw	t0, 0(sp)
  000155b8:	00012303	lw	t1, 0(sp)
  000155bc:	00412283	lw	t0, 4(sp)
  000155c0:	00810113	addi	sp, sp, 8
  000155c4:	006282b3	add	t0, t0, t1
  000155c8:	ffc10113	addi	sp, sp, -4
  000155cc:	00512023	sw	t0, 0(sp)
  000155d0:	00012283	lw	t0, 0(sp)
  000155d4:	00410113	addi	sp, sp, 4
  000155d8:	ffc10113	addi	sp, sp, -4
  000155dc:	00512023	sw	t0, 0(sp)
  000155e0:	00012303	lw	t1, 0(sp)
  000155e4:	00412283	lw	t0, 4(sp)
  000155e8:	00810113	addi	sp, sp, 8
  000155ec:	006282b3	add	t0, t0, t1
  000155f0:	ffc10113	addi	sp, sp, -4
  000155f4:	00512023	sw	t0, 0(sp)
  000155f8:	ff042283	lw	t0, -16(s0)
  000155fc:	ffc10113	addi	sp, sp, -4
  00015600:	00512023	sw	t0, 0(sp)
  00015604:	00012283	lw	t0, 0(sp)
  00015608:	00410113	addi	sp, sp, 4
  0001560c:	ffc10113	addi	sp, sp, -4
  00015610:	00512023	sw	t0, 0(sp)
  00015614:	00400293	addi	t0, zero, 4
  00015618:	ffc10113	addi	sp, sp, -4
  0001561c:	00512023	sw	t0, 0(sp)
  00015620:	00012303	lw	t1, 0(sp)
  00015624:	00412283	lw	t0, 4(sp)
  00015628:	00810113	addi	sp, sp, 8
  0001562c:	006282b3	add	t0, t0, t1
  00015630:	ffc10113	addi	sp, sp, -4
  00015634:	00512023	sw	t0, 0(sp)
  00015638:	fe042283	lw	t0, -32(s0)
  0001563c:	ffc10113	addi	sp, sp, -4
  00015640:	00512023	sw	t0, 0(sp)
  00015644:	00012283	lw	t0, 0(sp)
  00015648:	00410113	addi	sp, sp, 4
  0001564c:	ffc10113	addi	sp, sp, -4
  00015650:	00512023	sw	t0, 0(sp)
  00015654:	00012303	lw	t1, 0(sp)
  00015658:	00412283	lw	t0, 4(sp)
  0001565c:	00810113	addi	sp, sp, 8
  00015660:	006282b3	add	t0, t0, t1
  00015664:	ffc10113	addi	sp, sp, -4
  00015668:	00512023	sw	t0, 0(sp)
  0001566c:	00012503	lw	a0, 0(sp)
  00015670:	ffffb097	auipc	ra, 0xffffb	# 0x10670
  00015674:	a10080e7	jalr	ra, -1520(ra)
  00015678:	00410113	addi	sp, sp, 4
  0001567c:	ffc10113	addi	sp, sp, -4
  00015680:	00a12023	sw	a0, 0(sp)
  00015684:	00012283	lw	t0, 0(sp)
  00015688:	00410113	addi	sp, sp, 4
  0001568c:	0ff2f293	andi	t0, t0, 255
  00015690:	ffc10113	addi	sp, sp, -4
  00015694:	00512023	sw	t0, 0(sp)
  00015698:	00412503	lw	a0, 4(sp)
  0001569c:	00012583	lw	a1, 0(sp)
  000156a0:	ffffb097	auipc	ra, 0xffffb	# 0x106a0
  000156a4:	9f8080e7	jalr	ra, -1544(ra)
  000156a8:	00810113	addi	sp, sp, 8
  000156ac:	ffc10113	addi	sp, sp, -4
  000156b0:	00a12023	sw	a0, 0(sp)
  000156b4:	00410113	addi	sp, sp, 4
  000156b8:	fe042283	lw	t0, -32(s0)
  000156bc:	ffc10113	addi	sp, sp, -4
  000156c0:	00512023	sw	t0, 0(sp)
  000156c4:	00100293	addi	t0, zero, 1
  000156c8:	ffc10113	addi	sp, sp, -4
  000156cc:	00512023	sw	t0, 0(sp)
  000156d0:	00012303	lw	t1, 0(sp)
  000156d4:	00412283	lw	t0, 4(sp)
  000156d8:	00810113	addi	sp, sp, 8
  000156dc:	006282b3	add	t0, t0, t1
  000156e0:	ffc10113	addi	sp, sp, -4
  000156e4:	00512023	sw	t0, 0(sp)
  000156e8:	00012283	lw	t0, 0(sp)
  000156ec:	00410113	addi	sp, sp, 4
  000156f0:	fe542023	sw	t0, -32(s0)
  000156f4:	e41ff06f	jal	zero, 0x15534 <.L_f62_pc64>

000156f8 <.L_f62_pc92>:
  000156f8:	fe442283	lw	t0, -28(s0)
  000156fc:	ffc10113	addi	sp, sp, -4
  00015700:	00512023	sw	t0, 0(sp)
  00015704:	00400293	addi	t0, zero, 4
  00015708:	ffc10113	addi	sp, sp, -4
  0001570c:	00512023	sw	t0, 0(sp)
  00015710:	00012303	lw	t1, 0(sp)
  00015714:	00412283	lw	t0, 4(sp)
  00015718:	00810113	addi	sp, sp, 8
  0001571c:	006282b3	add	t0, t0, t1
  00015720:	ffc10113	addi	sp, sp, -4
  00015724:	00512023	sw	t0, 0(sp)
  00015728:	fec42283	lw	t0, -20(s0)
  0001572c:	ffc10113	addi	sp, sp, -4
  00015730:	00512023	sw	t0, 0(sp)
  00015734:	fe842283	lw	t0, -24(s0)
  00015738:	ffc10113	addi	sp, sp, -4
  0001573c:	00512023	sw	t0, 0(sp)
  00015740:	00012303	lw	t1, 0(sp)
  00015744:	00412283	lw	t0, 4(sp)
  00015748:	00810113	addi	sp, sp, 8
  0001574c:	006282b3	add	t0, t0, t1
  00015750:	ffc10113	addi	sp, sp, -4
  00015754:	00512023	sw	t0, 0(sp)
  00015758:	00012283	lw	t0, 0(sp)
  0001575c:	00410113	addi	sp, sp, 4
  00015760:	ffc10113	addi	sp, sp, -4
  00015764:	00512023	sw	t0, 0(sp)
  00015768:	00012303	lw	t1, 0(sp)
  0001576c:	00412283	lw	t0, 4(sp)
  00015770:	00810113	addi	sp, sp, 8
  00015774:	006282b3	add	t0, t0, t1
  00015778:	ffc10113	addi	sp, sp, -4
  0001577c:	00512023	sw	t0, 0(sp)
  00015780:	00000293	addi	t0, zero, 0
  00015784:	ffc10113	addi	sp, sp, -4
  00015788:	00512023	sw	t0, 0(sp)
  0001578c:	00412503	lw	a0, 4(sp)
  00015790:	00012583	lw	a1, 0(sp)
  00015794:	ffffb097	auipc	ra, 0xffffb	# 0x10794
  00015798:	904080e7	jalr	ra, -1788(ra)
  0001579c:	00810113	addi	sp, sp, 8
  000157a0:	ffc10113	addi	sp, sp, -4
  000157a4:	00a12023	sw	a0, 0(sp)
  000157a8:	00410113	addi	sp, sp, 4
  000157ac:	fe442283	lw	t0, -28(s0)
  000157b0:	ffc10113	addi	sp, sp, -4
  000157b4:	00512023	sw	t0, 0(sp)
  000157b8:	00012283	lw	t0, 0(sp)
  000157bc:	00410113	addi	sp, sp, 4
  000157c0:	00028513	addi	a0, t0, 0
  000157c4:	00040293	addi	t0, s0, 0
  000157c8:	ffc2a083	lw	ra, -4(t0)
  000157cc:	ff82a403	lw	s0, -8(t0)
  000157d0:	00028113	addi	sp, t0, 0
  000157d4:	00008067	ret
  000157d8:	00040293	addi	t0, s0, 0
  000157dc:	ffc2a083	lw	ra, -4(t0)
  000157e0:	ff82a403	lw	s0, -8(t0)
  000157e4:	00028113	addi	sp, t0, 0
  000157e8:	00008067	ret

000157ec <append__StringLiteral__u8>:
  000157ec:	fe010113	addi	sp, sp, -32
  000157f0:	00112e23	sw	ra, 28(sp)
  000157f4:	00812c23	sw	s0, 24(sp)
  000157f8:	02010413	addi	s0, sp, 32
  000157fc:	fea42a23	sw	a0, -12(s0)
  00015800:	feb42823	sw	a1, -16(s0)
  00015804:	ff442283	lw	t0, -12(s0)
  00015808:	ffc10113	addi	sp, sp, -4
  0001580c:	00512023	sw	t0, 0(sp)
  00015810:	ff042283	lw	t0, -16(s0)
  00015814:	ffc10113	addi	sp, sp, -4
  00015818:	00512023	sw	t0, 0(sp)
  0001581c:	00412503	lw	a0, 4(sp)
  00015820:	00012583	lw	a1, 0(sp)
  00015824:	fffff097	auipc	ra, 0xfffff	# 0x14824
  00015828:	448080e7	jalr	ra, 1096(ra)
  0001582c:	00810113	addi	sp, sp, 8
  00015830:	ffc10113	addi	sp, sp, -4
  00015834:	00a12023	sw	a0, 0(sp)
  00015838:	00012283	lw	t0, 0(sp)
  0001583c:	00410113	addi	sp, sp, 4
  00015840:	00028513	addi	a0, t0, 0
  00015844:	00040293	addi	t0, s0, 0
  00015848:	ffc2a083	lw	ra, -4(t0)
  0001584c:	ff82a403	lw	s0, -8(t0)
  00015850:	00028113	addi	sp, t0, 0
  00015854:	00008067	ret
  00015858:	00040293	addi	t0, s0, 0
  0001585c:	ffc2a083	lw	ra, -4(t0)
  00015860:	ff82a403	lw	s0, -8(t0)
  00015864:	00028113	addi	sp, t0, 0
  00015868:	00008067	ret

0001586c <append__StringLiteral__StringLiteral>:
  0001586c:	fe010113	addi	sp, sp, -32
  00015870:	00112e23	sw	ra, 28(sp)
  00015874:	00812c23	sw	s0, 24(sp)
  00015878:	02010413	addi	s0, sp, 32
  0001587c:	fea42a23	sw	a0, -12(s0)
  00015880:	feb42823	sw	a1, -16(s0)
  00015884:	ff442283	lw	t0, -12(s0)
  00015888:	ffc10113	addi	sp, sp, -4
  0001588c:	00512023	sw	t0, 0(sp)
  00015890:	ff042283	lw	t0, -16(s0)
  00015894:	ffc10113	addi	sp, sp, -4
  00015898:	00512023	sw	t0, 0(sp)
  0001589c:	00412503	lw	a0, 4(sp)
  000158a0:	00012583	lw	a1, 0(sp)
  000158a4:	00000097	auipc	ra, 0x0	# 0x158a4
  000158a8:	87c080e7	jalr	ra, -1924(ra)
  000158ac:	00810113	addi	sp, sp, 8
  000158b0:	ffc10113	addi	sp, sp, -4
  000158b4:	00a12023	sw	a0, 0(sp)
  000158b8:	00012283	lw	t0, 0(sp)
  000158bc:	00410113	addi	sp, sp, 4
  000158c0:	00028513	addi	a0, t0, 0
  000158c4:	00040293	addi	t0, s0, 0
  000158c8:	ffc2a083	lw	ra, -4(t0)
  000158cc:	ff82a403	lw	s0, -8(t0)
  000158d0:	00028113	addi	sp, t0, 0
  000158d4:	00008067	ret
  000158d8:	00040293	addi	t0, s0, 0
  000158dc:	ffc2a083	lw	ra, -4(t0)
  000158e0:	ff82a403	lw	s0, -8(t0)
  000158e4:	00028113	addi	sp, t0, 0
  000158e8:	00008067	ret

000158ec <append__StringLiteral__String>:
  000158ec:	fe010113	addi	sp, sp, -32
  000158f0:	00112e23	sw	ra, 28(sp)
  000158f4:	00812c23	sw	s0, 24(sp)
  000158f8:	02010413	addi	s0, sp, 32
  000158fc:	fea42a23	sw	a0, -12(s0)
  00015900:	feb42823	sw	a1, -16(s0)
  00015904:	ff442283	lw	t0, -12(s0)
  00015908:	ffc10113	addi	sp, sp, -4
  0001590c:	00512023	sw	t0, 0(sp)
  00015910:	ff042283	lw	t0, -16(s0)
  00015914:	ffc10113	addi	sp, sp, -4
  00015918:	00512023	sw	t0, 0(sp)
  0001591c:	00412503	lw	a0, 4(sp)
  00015920:	00012583	lw	a1, 0(sp)
  00015924:	fffff097	auipc	ra, 0xfffff	# 0x14924
  00015928:	7fc080e7	jalr	ra, 2044(ra)
  0001592c:	00810113	addi	sp, sp, 8
  00015930:	ffc10113	addi	sp, sp, -4
  00015934:	00a12023	sw	a0, 0(sp)
  00015938:	00012283	lw	t0, 0(sp)
  0001593c:	00410113	addi	sp, sp, 4
  00015940:	00028513	addi	a0, t0, 0
  00015944:	00040293	addi	t0, s0, 0
  00015948:	ffc2a083	lw	ra, -4(t0)
  0001594c:	ff82a403	lw	s0, -8(t0)
  00015950:	00028113	addi	sp, t0, 0
  00015954:	00008067	ret
  00015958:	00040293	addi	t0, s0, 0
  0001595c:	ffc2a083	lw	ra, -4(t0)
  00015960:	ff82a403	lw	s0, -8(t0)
  00015964:	00028113	addi	sp, t0, 0
  00015968:	00008067	ret

0001596c <append__String__StringLiteral>:
  0001596c:	fe010113	addi	sp, sp, -32
  00015970:	00112e23	sw	ra, 28(sp)
  00015974:	00812c23	sw	s0, 24(sp)
  00015978:	02010413	addi	s0, sp, 32
  0001597c:	fea42a23	sw	a0, -12(s0)
  00015980:	feb42823	sw	a1, -16(s0)
  00015984:	ff442283	lw	t0, -12(s0)
  00015988:	ffc10113	addi	sp, sp, -4
  0001598c:	00512023	sw	t0, 0(sp)
  00015990:	ff042283	lw	t0, -16(s0)
  00015994:	ffc10113	addi	sp, sp, -4
  00015998:	00512023	sw	t0, 0(sp)
  0001599c:	00412503	lw	a0, 4(sp)
  000159a0:	00012583	lw	a1, 0(sp)
  000159a4:	fffff097	auipc	ra, 0xfffff	# 0x149a4
  000159a8:	77c080e7	jalr	ra, 1916(ra)
  000159ac:	00810113	addi	sp, sp, 8
  000159b0:	ffc10113	addi	sp, sp, -4
  000159b4:	00a12023	sw	a0, 0(sp)
  000159b8:	00012283	lw	t0, 0(sp)
  000159bc:	00410113	addi	sp, sp, 4
  000159c0:	00028513	addi	a0, t0, 0
  000159c4:	00040293	addi	t0, s0, 0
  000159c8:	ffc2a083	lw	ra, -4(t0)
  000159cc:	ff82a403	lw	s0, -8(t0)
  000159d0:	00028113	addi	sp, t0, 0
  000159d4:	00008067	ret
  000159d8:	00040293	addi	t0, s0, 0
  000159dc:	ffc2a083	lw	ra, -4(t0)
  000159e0:	ff82a403	lw	s0, -8(t0)
  000159e4:	00028113	addi	sp, t0, 0
  000159e8:	00008067	ret

000159ec <equals__String__String>:
  000159ec:	fd010113	addi	sp, sp, -48
  000159f0:	02112623	sw	ra, 44(sp)
  000159f4:	02812423	sw	s0, 40(sp)
  000159f8:	03010413	addi	s0, sp, 48
  000159fc:	fea42a23	sw	a0, -12(s0)
  00015a00:	feb42823	sw	a1, -16(s0)
  00015a04:	fe042623	sw	zero, -20(s0)
  00015a08:	fe042423	sw	zero, -24(s0)
  00015a0c:	fe042223	sw	zero, -28(s0)
  00015a10:	ff442283	lw	t0, -12(s0)
  00015a14:	ffc10113	addi	sp, sp, -4
  00015a18:	00512023	sw	t0, 0(sp)
  00015a1c:	00012283	lw	t0, 0(sp)
  00015a20:	00410113	addi	sp, sp, 4
  00015a24:	ffc10113	addi	sp, sp, -4
  00015a28:	00512023	sw	t0, 0(sp)
  00015a2c:	00000293	addi	t0, zero, 0
  00015a30:	ffc10113	addi	sp, sp, -4
  00015a34:	00512023	sw	t0, 0(sp)
  00015a38:	00012303	lw	t1, 0(sp)
  00015a3c:	00412283	lw	t0, 4(sp)
  00015a40:	00810113	addi	sp, sp, 8
  00015a44:	406282b3	sub	t0, t0, t1
  00015a48:	0012b293	sltiu	t0, t0, 1
  00015a4c:	ffc10113	addi	sp, sp, -4
  00015a50:	00512023	sw	t0, 0(sp)
  00015a54:	00012283	lw	t0, 0(sp)
  00015a58:	00410113	addi	sp, sp, 4
  00015a5c:	06029263	bne	t0, zero, 0x15ac0
  00015a60:	ff042283	lw	t0, -16(s0)
  00015a64:	ffc10113	addi	sp, sp, -4
  00015a68:	00512023	sw	t0, 0(sp)
  00015a6c:	00012283	lw	t0, 0(sp)
  00015a70:	00410113	addi	sp, sp, 4
  00015a74:	ffc10113	addi	sp, sp, -4
  00015a78:	00512023	sw	t0, 0(sp)
  00015a7c:	00000293	addi	t0, zero, 0
  00015a80:	ffc10113	addi	sp, sp, -4
  00015a84:	00512023	sw	t0, 0(sp)
  00015a88:	00012303	lw	t1, 0(sp)
  00015a8c:	00412283	lw	t0, 4(sp)
  00015a90:	00810113	addi	sp, sp, 8
  00015a94:	406282b3	sub	t0, t0, t1
  00015a98:	0012b293	sltiu	t0, t0, 1
  00015a9c:	ffc10113	addi	sp, sp, -4
  00015aa0:	00512023	sw	t0, 0(sp)
  00015aa4:	00012283	lw	t0, 0(sp)
  00015aa8:	00410113	addi	sp, sp, 4
  00015aac:	00029a63	bne	t0, zero, 0x15ac0
  00015ab0:	00000293	addi	t0, zero, 0
  00015ab4:	ffc10113	addi	sp, sp, -4
  00015ab8:	00512023	sw	t0, 0(sp)
  00015abc:	0100006f	jal	zero, 0x15acc <.L_f67_pc13>

00015ac0 <.L_f67_pc12>:
  00015ac0:	00100293	addi	t0, zero, 1
  00015ac4:	ffc10113	addi	sp, sp, -4
  00015ac8:	00512023	sw	t0, 0(sp)

00015acc <.L_f67_pc13>:
  00015acc:	00012283	lw	t0, 0(sp)
  00015ad0:	00410113	addi	sp, sp, 4
  00015ad4:	06028c63	beq	t0, zero, 0x15b4c
  00015ad8:	ff442283	lw	t0, -12(s0)
  00015adc:	ffc10113	addi	sp, sp, -4
  00015ae0:	00512023	sw	t0, 0(sp)
  00015ae4:	00012283	lw	t0, 0(sp)
  00015ae8:	00410113	addi	sp, sp, 4
  00015aec:	ffc10113	addi	sp, sp, -4
  00015af0:	00512023	sw	t0, 0(sp)
  00015af4:	ff042283	lw	t0, -16(s0)
  00015af8:	ffc10113	addi	sp, sp, -4
  00015afc:	00512023	sw	t0, 0(sp)
  00015b00:	00012283	lw	t0, 0(sp)
  00015b04:	00410113	addi	sp, sp, 4
  00015b08:	ffc10113	addi	sp, sp, -4
  00015b0c:	00512023	sw	t0, 0(sp)
  00015b10:	00012303	lw	t1, 0(sp)
  00015b14:	00412283	lw	t0, 4(sp)
  00015b18:	00810113	addi	sp, sp, 8
  00015b1c:	406282b3	sub	t0, t0, t1
  00015b20:	0012b293	sltiu	t0, t0, 1
  00015b24:	ffc10113	addi	sp, sp, -4
  00015b28:	00512023	sw	t0, 0(sp)
  00015b2c:	00012283	lw	t0, 0(sp)
  00015b30:	00410113	addi	sp, sp, 4
  00015b34:	00028513	addi	a0, t0, 0
  00015b38:	00040293	addi	t0, s0, 0
  00015b3c:	ffc2a083	lw	ra, -4(t0)
  00015b40:	ff82a403	lw	s0, -8(t0)
  00015b44:	00028113	addi	sp, t0, 0
  00015b48:	00008067	ret

00015b4c <.L_f67_pc20>:
  00015b4c:	ff442283	lw	t0, -12(s0)
  00015b50:	ffc10113	addi	sp, sp, -4
  00015b54:	00512023	sw	t0, 0(sp)
  00015b58:	00012283	lw	t0, 0(sp)
  00015b5c:	00410113	addi	sp, sp, 4
  00015b60:	ffc10113	addi	sp, sp, -4
  00015b64:	00512023	sw	t0, 0(sp)
  00015b68:	00012503	lw	a0, 0(sp)
  00015b6c:	ffffa097	auipc	ra, 0xffffa	# 0xfb6c
  00015b70:	524080e7	jalr	ra, 1316(ra)
  00015b74:	00410113	addi	sp, sp, 4
  00015b78:	ffc10113	addi	sp, sp, -4
  00015b7c:	00a12023	sw	a0, 0(sp)
  00015b80:	00012283	lw	t0, 0(sp)
  00015b84:	00410113	addi	sp, sp, 4
  00015b88:	ffc10113	addi	sp, sp, -4
  00015b8c:	00512023	sw	t0, 0(sp)
  00015b90:	00012283	lw	t0, 0(sp)
  00015b94:	00410113	addi	sp, sp, 4
  00015b98:	fe542623	sw	t0, -20(s0)
  00015b9c:	ff042283	lw	t0, -16(s0)
  00015ba0:	ffc10113	addi	sp, sp, -4
  00015ba4:	00512023	sw	t0, 0(sp)
  00015ba8:	00012283	lw	t0, 0(sp)
  00015bac:	00410113	addi	sp, sp, 4
  00015bb0:	ffc10113	addi	sp, sp, -4
  00015bb4:	00512023	sw	t0, 0(sp)
  00015bb8:	00012503	lw	a0, 0(sp)
  00015bbc:	ffffa097	auipc	ra, 0xffffa	# 0xfbbc
  00015bc0:	4d4080e7	jalr	ra, 1236(ra)
  00015bc4:	00410113	addi	sp, sp, 4
  00015bc8:	ffc10113	addi	sp, sp, -4
  00015bcc:	00a12023	sw	a0, 0(sp)
  00015bd0:	00012283	lw	t0, 0(sp)
  00015bd4:	00410113	addi	sp, sp, 4
  00015bd8:	ffc10113	addi	sp, sp, -4
  00015bdc:	00512023	sw	t0, 0(sp)
  00015be0:	00012283	lw	t0, 0(sp)
  00015be4:	00410113	addi	sp, sp, 4
  00015be8:	fe542423	sw	t0, -24(s0)
  00015bec:	fec42283	lw	t0, -20(s0)
  00015bf0:	ffc10113	addi	sp, sp, -4
  00015bf4:	00512023	sw	t0, 0(sp)
  00015bf8:	fe842283	lw	t0, -24(s0)
  00015bfc:	ffc10113	addi	sp, sp, -4
  00015c00:	00512023	sw	t0, 0(sp)
  00015c04:	00012303	lw	t1, 0(sp)
  00015c08:	00412283	lw	t0, 4(sp)
  00015c0c:	00810113	addi	sp, sp, 8
  00015c10:	406282b3	sub	t0, t0, t1
  00015c14:	005032b3	sltu	t0, zero, t0
  00015c18:	ffc10113	addi	sp, sp, -4
  00015c1c:	00512023	sw	t0, 0(sp)
  00015c20:	00012283	lw	t0, 0(sp)
  00015c24:	00410113	addi	sp, sp, 4
  00015c28:	02028863	beq	t0, zero, 0x15c58
  00015c2c:	00000293	addi	t0, zero, 0
  00015c30:	ffc10113	addi	sp, sp, -4
  00015c34:	00512023	sw	t0, 0(sp)
  00015c38:	00012283	lw	t0, 0(sp)
  00015c3c:	00410113	addi	sp, sp, 4
  00015c40:	00028513	addi	a0, t0, 0
  00015c44:	00040293	addi	t0, s0, 0
  00015c48:	ffc2a083	lw	ra, -4(t0)
  00015c4c:	ff82a403	lw	s0, -8(t0)
  00015c50:	00028113	addi	sp, t0, 0
  00015c54:	00008067	ret

00015c58 <.L_f67_pc36>:
  00015c58:	00000293	addi	t0, zero, 0
  00015c5c:	ffc10113	addi	sp, sp, -4
  00015c60:	00512023	sw	t0, 0(sp)
  00015c64:	00012283	lw	t0, 0(sp)
  00015c68:	00410113	addi	sp, sp, 4
  00015c6c:	fe542223	sw	t0, -28(s0)

00015c70 <.L_f67_pc38>:
  00015c70:	fe442283	lw	t0, -28(s0)
  00015c74:	ffc10113	addi	sp, sp, -4
  00015c78:	00512023	sw	t0, 0(sp)
  00015c7c:	fec42283	lw	t0, -20(s0)
  00015c80:	ffc10113	addi	sp, sp, -4
  00015c84:	00512023	sw	t0, 0(sp)
  00015c88:	00012303	lw	t1, 0(sp)
  00015c8c:	00412283	lw	t0, 4(sp)
  00015c90:	00810113	addi	sp, sp, 8
  00015c94:	0062a2b3	slt	t0, t0, t1
  00015c98:	ffc10113	addi	sp, sp, -4
  00015c9c:	00512023	sw	t0, 0(sp)
  00015ca0:	00012283	lw	t0, 0(sp)
  00015ca4:	00410113	addi	sp, sp, 4
  00015ca8:	1a028863	beq	t0, zero, 0x15e58
  00015cac:	ff442283	lw	t0, -12(s0)
  00015cb0:	ffc10113	addi	sp, sp, -4
  00015cb4:	00512023	sw	t0, 0(sp)
  00015cb8:	00012283	lw	t0, 0(sp)
  00015cbc:	00410113	addi	sp, sp, 4
  00015cc0:	ffc10113	addi	sp, sp, -4
  00015cc4:	00512023	sw	t0, 0(sp)
  00015cc8:	00400293	addi	t0, zero, 4
  00015ccc:	ffc10113	addi	sp, sp, -4
  00015cd0:	00512023	sw	t0, 0(sp)
  00015cd4:	00012303	lw	t1, 0(sp)
  00015cd8:	00412283	lw	t0, 4(sp)
  00015cdc:	00810113	addi	sp, sp, 8
  00015ce0:	006282b3	add	t0, t0, t1
  00015ce4:	ffc10113	addi	sp, sp, -4
  00015ce8:	00512023	sw	t0, 0(sp)
  00015cec:	fe442283	lw	t0, -28(s0)
  00015cf0:	ffc10113	addi	sp, sp, -4
  00015cf4:	00512023	sw	t0, 0(sp)
  00015cf8:	00012283	lw	t0, 0(sp)
  00015cfc:	00410113	addi	sp, sp, 4
  00015d00:	ffc10113	addi	sp, sp, -4
  00015d04:	00512023	sw	t0, 0(sp)
  00015d08:	00012303	lw	t1, 0(sp)
  00015d0c:	00412283	lw	t0, 4(sp)
  00015d10:	00810113	addi	sp, sp, 8
  00015d14:	006282b3	add	t0, t0, t1
  00015d18:	ffc10113	addi	sp, sp, -4
  00015d1c:	00512023	sw	t0, 0(sp)
  00015d20:	00012503	lw	a0, 0(sp)
  00015d24:	ffffa097	auipc	ra, 0xffffa	# 0xfd24
  00015d28:	35c080e7	jalr	ra, 860(ra)
  00015d2c:	00410113	addi	sp, sp, 4
  00015d30:	ffc10113	addi	sp, sp, -4
  00015d34:	00a12023	sw	a0, 0(sp)
  00015d38:	ff042283	lw	t0, -16(s0)
  00015d3c:	ffc10113	addi	sp, sp, -4
  00015d40:	00512023	sw	t0, 0(sp)
  00015d44:	00012283	lw	t0, 0(sp)
  00015d48:	00410113	addi	sp, sp, 4
  00015d4c:	ffc10113	addi	sp, sp, -4
  00015d50:	00512023	sw	t0, 0(sp)
  00015d54:	00400293	addi	t0, zero, 4
  00015d58:	ffc10113	addi	sp, sp, -4
  00015d5c:	00512023	sw	t0, 0(sp)
  00015d60:	00012303	lw	t1, 0(sp)
  00015d64:	00412283	lw	t0, 4(sp)
  00015d68:	00810113	addi	sp, sp, 8
  00015d6c:	006282b3	add	t0, t0, t1
  00015d70:	ffc10113	addi	sp, sp, -4
  00015d74:	00512023	sw	t0, 0(sp)
  00015d78:	fe442283	lw	t0, -28(s0)
  00015d7c:	ffc10113	addi	sp, sp, -4
  00015d80:	00512023	sw	t0, 0(sp)
  00015d84:	00012283	lw	t0, 0(sp)
  00015d88:	00410113	addi	sp, sp, 4
  00015d8c:	ffc10113	addi	sp, sp, -4
  00015d90:	00512023	sw	t0, 0(sp)
  00015d94:	00012303	lw	t1, 0(sp)
  00015d98:	00412283	lw	t0, 4(sp)
  00015d9c:	00810113	addi	sp, sp, 8
  00015da0:	006282b3	add	t0, t0, t1
  00015da4:	ffc10113	addi	sp, sp, -4
  00015da8:	00512023	sw	t0, 0(sp)
  00015dac:	00012503	lw	a0, 0(sp)
  00015db0:	ffffa097	auipc	ra, 0xffffa	# 0xfdb0
  00015db4:	2d0080e7	jalr	ra, 720(ra)
  00015db8:	00410113	addi	sp, sp, 4
  00015dbc:	ffc10113	addi	sp, sp, -4
  00015dc0:	00a12023	sw	a0, 0(sp)
  00015dc4:	00012303	lw	t1, 0(sp)
  00015dc8:	00412283	lw	t0, 4(sp)
  00015dcc:	00810113	addi	sp, sp, 8
  00015dd0:	406282b3	sub	t0, t0, t1
  00015dd4:	005032b3	sltu	t0, zero, t0
  00015dd8:	ffc10113	addi	sp, sp, -4
  00015ddc:	00512023	sw	t0, 0(sp)
  00015de0:	00012283	lw	t0, 0(sp)
  00015de4:	00410113	addi	sp, sp, 4
  00015de8:	02028863	beq	t0, zero, 0x15e18
  00015dec:	00000293	addi	t0, zero, 0
  00015df0:	ffc10113	addi	sp, sp, -4
  00015df4:	00512023	sw	t0, 0(sp)
  00015df8:	00012283	lw	t0, 0(sp)
  00015dfc:	00410113	addi	sp, sp, 4
  00015e00:	00028513	addi	a0, t0, 0
  00015e04:	00040293	addi	t0, s0, 0
  00015e08:	ffc2a083	lw	ra, -4(t0)
  00015e0c:	ff82a403	lw	s0, -8(t0)
  00015e10:	00028113	addi	sp, t0, 0
  00015e14:	00008067	ret

00015e18 <.L_f67_pc62>:
  00015e18:	fe442283	lw	t0, -28(s0)
  00015e1c:	ffc10113	addi	sp, sp, -4
  00015e20:	00512023	sw	t0, 0(sp)
  00015e24:	00100293	addi	t0, zero, 1
  00015e28:	ffc10113	addi	sp, sp, -4
  00015e2c:	00512023	sw	t0, 0(sp)
  00015e30:	00012303	lw	t1, 0(sp)
  00015e34:	00412283	lw	t0, 4(sp)
  00015e38:	00810113	addi	sp, sp, 8
  00015e3c:	006282b3	add	t0, t0, t1
  00015e40:	ffc10113	addi	sp, sp, -4
  00015e44:	00512023	sw	t0, 0(sp)
  00015e48:	00012283	lw	t0, 0(sp)
  00015e4c:	00410113	addi	sp, sp, 4
  00015e50:	fe542223	sw	t0, -28(s0)
  00015e54:	e1dff06f	jal	zero, 0x15c70 <.L_f67_pc38>

00015e58 <.L_f67_pc67>:
  00015e58:	00100293	addi	t0, zero, 1
  00015e5c:	ffc10113	addi	sp, sp, -4
  00015e60:	00512023	sw	t0, 0(sp)
  00015e64:	00012283	lw	t0, 0(sp)
  00015e68:	00410113	addi	sp, sp, 4
  00015e6c:	00028513	addi	a0, t0, 0
  00015e70:	00040293	addi	t0, s0, 0
  00015e74:	ffc2a083	lw	ra, -4(t0)
  00015e78:	ff82a403	lw	s0, -8(t0)
  00015e7c:	00028113	addi	sp, t0, 0
  00015e80:	00008067	ret
  00015e84:	00040293	addi	t0, s0, 0
  00015e88:	ffc2a083	lw	ra, -4(t0)
  00015e8c:	ff82a403	lw	s0, -8(t0)
  00015e90:	00028113	addi	sp, t0, 0
  00015e94:	00008067	ret

00015e98 <equals__StringLiteral__StringLiteral>:
  00015e98:	fe010113	addi	sp, sp, -32
  00015e9c:	00112e23	sw	ra, 28(sp)
  00015ea0:	00812c23	sw	s0, 24(sp)
  00015ea4:	02010413	addi	s0, sp, 32
  00015ea8:	fea42a23	sw	a0, -12(s0)
  00015eac:	feb42823	sw	a1, -16(s0)
  00015eb0:	ff442283	lw	t0, -12(s0)
  00015eb4:	ffc10113	addi	sp, sp, -4
  00015eb8:	00512023	sw	t0, 0(sp)
  00015ebc:	ff042283	lw	t0, -16(s0)
  00015ec0:	ffc10113	addi	sp, sp, -4
  00015ec4:	00512023	sw	t0, 0(sp)
  00015ec8:	00412503	lw	a0, 4(sp)
  00015ecc:	00012583	lw	a1, 0(sp)
  00015ed0:	00000097	auipc	ra, 0x0	# 0x15ed0
  00015ed4:	b1c080e7	jalr	ra, -1252(ra)
  00015ed8:	00810113	addi	sp, sp, 8
  00015edc:	ffc10113	addi	sp, sp, -4
  00015ee0:	00a12023	sw	a0, 0(sp)
  00015ee4:	00012283	lw	t0, 0(sp)
  00015ee8:	00410113	addi	sp, sp, 4
  00015eec:	00028513	addi	a0, t0, 0
  00015ef0:	00040293	addi	t0, s0, 0
  00015ef4:	ffc2a083	lw	ra, -4(t0)
  00015ef8:	ff82a403	lw	s0, -8(t0)
  00015efc:	00028113	addi	sp, t0, 0
  00015f00:	00008067	ret
  00015f04:	00040293	addi	t0, s0, 0
  00015f08:	ffc2a083	lw	ra, -4(t0)
  00015f0c:	ff82a403	lw	s0, -8(t0)
  00015f10:	00028113	addi	sp, t0, 0
  00015f14:	00008067	ret

00015f18 <equals__StringLiteral__String>:
  00015f18:	fe010113	addi	sp, sp, -32
  00015f1c:	00112e23	sw	ra, 28(sp)
  00015f20:	00812c23	sw	s0, 24(sp)
  00015f24:	02010413	addi	s0, sp, 32
  00015f28:	fea42a23	sw	a0, -12(s0)
  00015f2c:	feb42823	sw	a1, -16(s0)
  00015f30:	ff442283	lw	t0, -12(s0)
  00015f34:	ffc10113	addi	sp, sp, -4
  00015f38:	00512023	sw	t0, 0(sp)
  00015f3c:	ff042283	lw	t0, -16(s0)
  00015f40:	ffc10113	addi	sp, sp, -4
  00015f44:	00512023	sw	t0, 0(sp)
  00015f48:	00412503	lw	a0, 4(sp)
  00015f4c:	00012583	lw	a1, 0(sp)
  00015f50:	00000097	auipc	ra, 0x0	# 0x15f50
  00015f54:	a9c080e7	jalr	ra, -1380(ra)
  00015f58:	00810113	addi	sp, sp, 8
  00015f5c:	ffc10113	addi	sp, sp, -4
  00015f60:	00a12023	sw	a0, 0(sp)
  00015f64:	00012283	lw	t0, 0(sp)
  00015f68:	00410113	addi	sp, sp, 4
  00015f6c:	00028513	addi	a0, t0, 0
  00015f70:	00040293	addi	t0, s0, 0
  00015f74:	ffc2a083	lw	ra, -4(t0)
  00015f78:	ff82a403	lw	s0, -8(t0)
  00015f7c:	00028113	addi	sp, t0, 0
  00015f80:	00008067	ret
  00015f84:	00040293	addi	t0, s0, 0
  00015f88:	ffc2a083	lw	ra, -4(t0)
  00015f8c:	ff82a403	lw	s0, -8(t0)
  00015f90:	00028113	addi	sp, t0, 0
  00015f94:	00008067	ret

00015f98 <equals__String__StringLiteral>:
  00015f98:	fe010113	addi	sp, sp, -32
  00015f9c:	00112e23	sw	ra, 28(sp)
  00015fa0:	00812c23	sw	s0, 24(sp)
  00015fa4:	02010413	addi	s0, sp, 32
  00015fa8:	fea42a23	sw	a0, -12(s0)
  00015fac:	feb42823	sw	a1, -16(s0)
  00015fb0:	ff442283	lw	t0, -12(s0)
  00015fb4:	ffc10113	addi	sp, sp, -4
  00015fb8:	00512023	sw	t0, 0(sp)
  00015fbc:	ff042283	lw	t0, -16(s0)
  00015fc0:	ffc10113	addi	sp, sp, -4
  00015fc4:	00512023	sw	t0, 0(sp)
  00015fc8:	00412503	lw	a0, 4(sp)
  00015fcc:	00012583	lw	a1, 0(sp)
  00015fd0:	00000097	auipc	ra, 0x0	# 0x15fd0
  00015fd4:	a1c080e7	jalr	ra, -1508(ra)
  00015fd8:	00810113	addi	sp, sp, 8
  00015fdc:	ffc10113	addi	sp, sp, -4
  00015fe0:	00a12023	sw	a0, 0(sp)
  00015fe4:	00012283	lw	t0, 0(sp)
  00015fe8:	00410113	addi	sp, sp, 4
  00015fec:	00028513	addi	a0, t0, 0
  00015ff0:	00040293	addi	t0, s0, 0
  00015ff4:	ffc2a083	lw	ra, -4(t0)
  00015ff8:	ff82a403	lw	s0, -8(t0)
  00015ffc:	00028113	addi	sp, t0, 0
  00016000:	00008067	ret
  00016004:	00040293	addi	t0, s0, 0
  00016008:	ffc2a083	lw	ra, -4(t0)
  0001600c:	ff82a403	lw	s0, -8(t0)
  00016010:	00028113	addi	sp, t0, 0
  00016014:	00008067	ret

00016018 <StringBuffer__U8Array__i32__i32>:
  00016018:	fd010113	addi	sp, sp, -48
  0001601c:	02112623	sw	ra, 44(sp)
  00016020:	02812423	sw	s0, 40(sp)
  00016024:	03010413	addi	s0, sp, 48
  00016028:	fea42a23	sw	a0, -12(s0)
  0001602c:	feb42823	sw	a1, -16(s0)
  00016030:	fec42623	sw	a2, -20(s0)
  00016034:	fe042423	sw	zero, -24(s0)
  00016038:	00300293	addi	t0, zero, 3
  0001603c:	ffc10113	addi	sp, sp, -4
  00016040:	00512023	sw	t0, 0(sp)
  00016044:	00012503	lw	a0, 0(sp)
  00016048:	ffffb097	auipc	ra, 0xffffb	# 0x11048
  0001604c:	3f8080e7	jalr	ra, 1016(ra)
  00016050:	00410113	addi	sp, sp, 4
  00016054:	ffc10113	addi	sp, sp, -4
  00016058:	00a12023	sw	a0, 0(sp)
  0001605c:	00012283	lw	t0, 0(sp)
  00016060:	00410113	addi	sp, sp, 4
  00016064:	fe542423	sw	t0, -24(s0)
  00016068:	fe842283	lw	t0, -24(s0)
  0001606c:	ffc10113	addi	sp, sp, -4
  00016070:	00512023	sw	t0, 0(sp)
  00016074:	00000293	addi	t0, zero, 0
  00016078:	ffc10113	addi	sp, sp, -4
  0001607c:	00512023	sw	t0, 0(sp)
  00016080:	ff442283	lw	t0, -12(s0)
  00016084:	ffc10113	addi	sp, sp, -4
  00016088:	00512023	sw	t0, 0(sp)
  0001608c:	00012283	lw	t0, 0(sp)
  00016090:	00410113	addi	sp, sp, 4
  00016094:	ffc10113	addi	sp, sp, -4
  00016098:	00512023	sw	t0, 0(sp)
  0001609c:	00812503	lw	a0, 8(sp)
  000160a0:	00412583	lw	a1, 4(sp)
  000160a4:	00012603	lw	a2, 0(sp)
  000160a8:	ffffd097	auipc	ra, 0xffffd	# 0x130a8
  000160ac:	ad4080e7	jalr	ra, -1324(ra)
  000160b0:	00c10113	addi	sp, sp, 12
  000160b4:	ffc10113	addi	sp, sp, -4
  000160b8:	00a12023	sw	a0, 0(sp)
  000160bc:	00410113	addi	sp, sp, 4
  000160c0:	fe842283	lw	t0, -24(s0)
  000160c4:	ffc10113	addi	sp, sp, -4
  000160c8:	00512023	sw	t0, 0(sp)
  000160cc:	00100293	addi	t0, zero, 1
  000160d0:	ffc10113	addi	sp, sp, -4
  000160d4:	00512023	sw	t0, 0(sp)
  000160d8:	ff042283	lw	t0, -16(s0)
  000160dc:	ffc10113	addi	sp, sp, -4
  000160e0:	00512023	sw	t0, 0(sp)
  000160e4:	00012283	lw	t0, 0(sp)
  000160e8:	00410113	addi	sp, sp, 4
  000160ec:	ffc10113	addi	sp, sp, -4
  000160f0:	00512023	sw	t0, 0(sp)
  000160f4:	00812503	lw	a0, 8(sp)
  000160f8:	00412583	lw	a1, 4(sp)
  000160fc:	00012603	lw	a2, 0(sp)
  00016100:	ffffd097	auipc	ra, 0xffffd	# 0x13100
  00016104:	a7c080e7	jalr	ra, -1412(ra)
  00016108:	00c10113	addi	sp, sp, 12
  0001610c:	ffc10113	addi	sp, sp, -4
  00016110:	00a12023	sw	a0, 0(sp)
  00016114:	00410113	addi	sp, sp, 4
  00016118:	fe842283	lw	t0, -24(s0)
  0001611c:	ffc10113	addi	sp, sp, -4
  00016120:	00512023	sw	t0, 0(sp)
  00016124:	00200293	addi	t0, zero, 2
  00016128:	ffc10113	addi	sp, sp, -4
  0001612c:	00512023	sw	t0, 0(sp)
  00016130:	fec42283	lw	t0, -20(s0)
  00016134:	ffc10113	addi	sp, sp, -4
  00016138:	00512023	sw	t0, 0(sp)
  0001613c:	00012283	lw	t0, 0(sp)
  00016140:	00410113	addi	sp, sp, 4
  00016144:	ffc10113	addi	sp, sp, -4
  00016148:	00512023	sw	t0, 0(sp)
  0001614c:	00812503	lw	a0, 8(sp)
  00016150:	00412583	lw	a1, 4(sp)
  00016154:	00012603	lw	a2, 0(sp)
  00016158:	ffffd097	auipc	ra, 0xffffd	# 0x13158
  0001615c:	a24080e7	jalr	ra, -1500(ra)
  00016160:	00c10113	addi	sp, sp, 12
  00016164:	ffc10113	addi	sp, sp, -4
  00016168:	00a12023	sw	a0, 0(sp)
  0001616c:	00410113	addi	sp, sp, 4
  00016170:	fe842283	lw	t0, -24(s0)
  00016174:	ffc10113	addi	sp, sp, -4
  00016178:	00512023	sw	t0, 0(sp)
  0001617c:	00012283	lw	t0, 0(sp)
  00016180:	00410113	addi	sp, sp, 4
  00016184:	00028513	addi	a0, t0, 0
  00016188:	00040293	addi	t0, s0, 0
  0001618c:	ffc2a083	lw	ra, -4(t0)
  00016190:	ff82a403	lw	s0, -8(t0)
  00016194:	00028113	addi	sp, t0, 0
  00016198:	00008067	ret
  0001619c:	00040293	addi	t0, s0, 0
  000161a0:	ffc2a083	lw	ra, -4(t0)
  000161a4:	ff82a403	lw	s0, -8(t0)
  000161a8:	00028113	addi	sp, t0, 0
  000161ac:	00008067	ret

000161b0 <buf__StringBuffer>:
  000161b0:	fe010113	addi	sp, sp, -32
  000161b4:	00112e23	sw	ra, 28(sp)
  000161b8:	00812c23	sw	s0, 24(sp)
  000161bc:	02010413	addi	s0, sp, 32
  000161c0:	fea42a23	sw	a0, -12(s0)
  000161c4:	ff442283	lw	t0, -12(s0)
  000161c8:	ffc10113	addi	sp, sp, -4
  000161cc:	00512023	sw	t0, 0(sp)
  000161d0:	00000293	addi	t0, zero, 0
  000161d4:	ffc10113	addi	sp, sp, -4
  000161d8:	00512023	sw	t0, 0(sp)
  000161dc:	00412503	lw	a0, 4(sp)
  000161e0:	00012583	lw	a1, 0(sp)
  000161e4:	ffffc097	auipc	ra, 0xffffc	# 0x121e4
  000161e8:	0a0080e7	jalr	ra, 160(ra)
  000161ec:	00810113	addi	sp, sp, 8
  000161f0:	ffc10113	addi	sp, sp, -4
  000161f4:	00a12023	sw	a0, 0(sp)
  000161f8:	00012283	lw	t0, 0(sp)
  000161fc:	00410113	addi	sp, sp, 4
  00016200:	00028513	addi	a0, t0, 0
  00016204:	00040293	addi	t0, s0, 0
  00016208:	ffc2a083	lw	ra, -4(t0)
  0001620c:	ff82a403	lw	s0, -8(t0)
  00016210:	00028113	addi	sp, t0, 0
  00016214:	00008067	ret
  00016218:	00040293	addi	t0, s0, 0
  0001621c:	ffc2a083	lw	ra, -4(t0)
  00016220:	ff82a403	lw	s0, -8(t0)
  00016224:	00028113	addi	sp, t0, 0
  00016228:	00008067	ret

0001622c <pos__StringBuffer>:
  0001622c:	fe010113	addi	sp, sp, -32
  00016230:	00112e23	sw	ra, 28(sp)
  00016234:	00812c23	sw	s0, 24(sp)
  00016238:	02010413	addi	s0, sp, 32
  0001623c:	fea42a23	sw	a0, -12(s0)
  00016240:	ff442283	lw	t0, -12(s0)
  00016244:	ffc10113	addi	sp, sp, -4
  00016248:	00512023	sw	t0, 0(sp)
  0001624c:	00100293	addi	t0, zero, 1
  00016250:	ffc10113	addi	sp, sp, -4
  00016254:	00512023	sw	t0, 0(sp)
  00016258:	00412503	lw	a0, 4(sp)
  0001625c:	00012583	lw	a1, 0(sp)
  00016260:	ffffc097	auipc	ra, 0xffffc	# 0x12260
  00016264:	024080e7	jalr	ra, 36(ra)
  00016268:	00810113	addi	sp, sp, 8
  0001626c:	ffc10113	addi	sp, sp, -4
  00016270:	00a12023	sw	a0, 0(sp)
  00016274:	00012283	lw	t0, 0(sp)
  00016278:	00410113	addi	sp, sp, 4
  0001627c:	ffc10113	addi	sp, sp, -4
  00016280:	00512023	sw	t0, 0(sp)
  00016284:	00012283	lw	t0, 0(sp)
  00016288:	00410113	addi	sp, sp, 4
  0001628c:	00028513	addi	a0, t0, 0
  00016290:	00040293	addi	t0, s0, 0
  00016294:	ffc2a083	lw	ra, -4(t0)
  00016298:	ff82a403	lw	s0, -8(t0)
  0001629c:	00028113	addi	sp, t0, 0
  000162a0:	00008067	ret
  000162a4:	00040293	addi	t0, s0, 0
  000162a8:	ffc2a083	lw	ra, -4(t0)
  000162ac:	ff82a403	lw	s0, -8(t0)
  000162b0:	00028113	addi	sp, t0, 0
  000162b4:	00008067	ret

000162b8 <fd__StringBuffer>:
  000162b8:	fe010113	addi	sp, sp, -32
  000162bc:	00112e23	sw	ra, 28(sp)
  000162c0:	00812c23	sw	s0, 24(sp)
  000162c4:	02010413	addi	s0, sp, 32
  000162c8:	fea42a23	sw	a0, -12(s0)
  000162cc:	ff442283	lw	t0, -12(s0)
  000162d0:	ffc10113	addi	sp, sp, -4
  000162d4:	00512023	sw	t0, 0(sp)
  000162d8:	00200293	addi	t0, zero, 2
  000162dc:	ffc10113	addi	sp, sp, -4
  000162e0:	00512023	sw	t0, 0(sp)
  000162e4:	00412503	lw	a0, 4(sp)
  000162e8:	00012583	lw	a1, 0(sp)
  000162ec:	ffffc097	auipc	ra, 0xffffc	# 0x122ec
  000162f0:	f98080e7	jalr	ra, -104(ra)
  000162f4:	00810113	addi	sp, sp, 8
  000162f8:	ffc10113	addi	sp, sp, -4
  000162fc:	00a12023	sw	a0, 0(sp)
  00016300:	00012283	lw	t0, 0(sp)
  00016304:	00410113	addi	sp, sp, 4
  00016308:	ffc10113	addi	sp, sp, -4
  0001630c:	00512023	sw	t0, 0(sp)
  00016310:	00012283	lw	t0, 0(sp)
  00016314:	00410113	addi	sp, sp, 4
  00016318:	00028513	addi	a0, t0, 0
  0001631c:	00040293	addi	t0, s0, 0
  00016320:	ffc2a083	lw	ra, -4(t0)
  00016324:	ff82a403	lw	s0, -8(t0)
  00016328:	00028113	addi	sp, t0, 0
  0001632c:	00008067	ret
  00016330:	00040293	addi	t0, s0, 0
  00016334:	ffc2a083	lw	ra, -4(t0)
  00016338:	ff82a403	lw	s0, -8(t0)
  0001633c:	00028113	addi	sp, t0, 0
  00016340:	00008067	ret

00016344 <buf__StringBuffer__U8Array>:
  00016344:	fe010113	addi	sp, sp, -32
  00016348:	00112e23	sw	ra, 28(sp)
  0001634c:	00812c23	sw	s0, 24(sp)
  00016350:	02010413	addi	s0, sp, 32
  00016354:	fea42a23	sw	a0, -12(s0)
  00016358:	feb42823	sw	a1, -16(s0)
  0001635c:	ff442283	lw	t0, -12(s0)
  00016360:	ffc10113	addi	sp, sp, -4
  00016364:	00512023	sw	t0, 0(sp)
  00016368:	00000293	addi	t0, zero, 0
  0001636c:	ffc10113	addi	sp, sp, -4
  00016370:	00512023	sw	t0, 0(sp)
  00016374:	ff042283	lw	t0, -16(s0)
  00016378:	ffc10113	addi	sp, sp, -4
  0001637c:	00512023	sw	t0, 0(sp)
  00016380:	00012283	lw	t0, 0(sp)
  00016384:	00410113	addi	sp, sp, 4
  00016388:	ffc10113	addi	sp, sp, -4
  0001638c:	00512023	sw	t0, 0(sp)
  00016390:	00812503	lw	a0, 8(sp)
  00016394:	00412583	lw	a1, 4(sp)
  00016398:	00012603	lw	a2, 0(sp)
  0001639c:	ffffc097	auipc	ra, 0xffffc	# 0x1239c
  000163a0:	7e0080e7	jalr	ra, 2016(ra)
  000163a4:	00c10113	addi	sp, sp, 12
  000163a8:	ffc10113	addi	sp, sp, -4
  000163ac:	00a12023	sw	a0, 0(sp)
  000163b0:	00410113	addi	sp, sp, 4
  000163b4:	00040293	addi	t0, s0, 0
  000163b8:	ffc2a083	lw	ra, -4(t0)
  000163bc:	ff82a403	lw	s0, -8(t0)
  000163c0:	00028113	addi	sp, t0, 0
  000163c4:	00008067	ret
  000163c8:	00040293	addi	t0, s0, 0
  000163cc:	ffc2a083	lw	ra, -4(t0)
  000163d0:	ff82a403	lw	s0, -8(t0)
  000163d4:	00028113	addi	sp, t0, 0
  000163d8:	00008067	ret

000163dc <pos__StringBuffer__i32>:
  000163dc:	fe010113	addi	sp, sp, -32
  000163e0:	00112e23	sw	ra, 28(sp)
  000163e4:	00812c23	sw	s0, 24(sp)
  000163e8:	02010413	addi	s0, sp, 32
  000163ec:	fea42a23	sw	a0, -12(s0)
  000163f0:	feb42823	sw	a1, -16(s0)
  000163f4:	ff442283	lw	t0, -12(s0)
  000163f8:	ffc10113	addi	sp, sp, -4
  000163fc:	00512023	sw	t0, 0(sp)
  00016400:	00100293	addi	t0, zero, 1
  00016404:	ffc10113	addi	sp, sp, -4
  00016408:	00512023	sw	t0, 0(sp)
  0001640c:	ff042283	lw	t0, -16(s0)
  00016410:	ffc10113	addi	sp, sp, -4
  00016414:	00512023	sw	t0, 0(sp)
  00016418:	00012283	lw	t0, 0(sp)
  0001641c:	00410113	addi	sp, sp, 4
  00016420:	ffc10113	addi	sp, sp, -4
  00016424:	00512023	sw	t0, 0(sp)
  00016428:	00812503	lw	a0, 8(sp)
  0001642c:	00412583	lw	a1, 4(sp)
  00016430:	00012603	lw	a2, 0(sp)
  00016434:	ffffc097	auipc	ra, 0xffffc	# 0x12434
  00016438:	748080e7	jalr	ra, 1864(ra)
  0001643c:	00c10113	addi	sp, sp, 12
  00016440:	ffc10113	addi	sp, sp, -4
  00016444:	00a12023	sw	a0, 0(sp)
  00016448:	00410113	addi	sp, sp, 4
  0001644c:	00040293	addi	t0, s0, 0
  00016450:	ffc2a083	lw	ra, -4(t0)
  00016454:	ff82a403	lw	s0, -8(t0)
  00016458:	00028113	addi	sp, t0, 0
  0001645c:	00008067	ret
  00016460:	00040293	addi	t0, s0, 0
  00016464:	ffc2a083	lw	ra, -4(t0)
  00016468:	ff82a403	lw	s0, -8(t0)
  0001646c:	00028113	addi	sp, t0, 0
  00016470:	00008067	ret

00016474 <fd__StringBuffer__i32>:
  00016474:	fe010113	addi	sp, sp, -32
  00016478:	00112e23	sw	ra, 28(sp)
  0001647c:	00812c23	sw	s0, 24(sp)
  00016480:	02010413	addi	s0, sp, 32
  00016484:	fea42a23	sw	a0, -12(s0)
  00016488:	feb42823	sw	a1, -16(s0)
  0001648c:	ff442283	lw	t0, -12(s0)
  00016490:	ffc10113	addi	sp, sp, -4
  00016494:	00512023	sw	t0, 0(sp)
  00016498:	00200293	addi	t0, zero, 2
  0001649c:	ffc10113	addi	sp, sp, -4
  000164a0:	00512023	sw	t0, 0(sp)
  000164a4:	ff042283	lw	t0, -16(s0)
  000164a8:	ffc10113	addi	sp, sp, -4
  000164ac:	00512023	sw	t0, 0(sp)
  000164b0:	00012283	lw	t0, 0(sp)
  000164b4:	00410113	addi	sp, sp, 4
  000164b8:	ffc10113	addi	sp, sp, -4
  000164bc:	00512023	sw	t0, 0(sp)
  000164c0:	00812503	lw	a0, 8(sp)
  000164c4:	00412583	lw	a1, 4(sp)
  000164c8:	00012603	lw	a2, 0(sp)
  000164cc:	ffffc097	auipc	ra, 0xffffc	# 0x124cc
  000164d0:	6b0080e7	jalr	ra, 1712(ra)
  000164d4:	00c10113	addi	sp, sp, 12
  000164d8:	ffc10113	addi	sp, sp, -4
  000164dc:	00a12023	sw	a0, 0(sp)
  000164e0:	00410113	addi	sp, sp, 4
  000164e4:	00040293	addi	t0, s0, 0
  000164e8:	ffc2a083	lw	ra, -4(t0)
  000164ec:	ff82a403	lw	s0, -8(t0)
  000164f0:	00028113	addi	sp, t0, 0
  000164f4:	00008067	ret
  000164f8:	00040293	addi	t0, s0, 0
  000164fc:	ffc2a083	lw	ra, -4(t0)
  00016500:	ff82a403	lw	s0, -8(t0)
  00016504:	00028113	addi	sp, t0, 0
  00016508:	00008067	ret

0001650c <delete__StringBuffer>:
  0001650c:	ff010113	addi	sp, sp, -16
  00016510:	00112623	sw	ra, 12(sp)
  00016514:	00812423	sw	s0, 8(sp)
  00016518:	01010413	addi	s0, sp, 16
  0001651c:	fea42a23	sw	a0, -12(s0)
  00016520:	ff442283	lw	t0, -12(s0)
  00016524:	ffc10113	addi	sp, sp, -4
  00016528:	00512023	sw	t0, 0(sp)
  0001652c:	00012503	lw	a0, 0(sp)
  00016530:	ffffd097	auipc	ra, 0xffffd	# 0x13530
  00016534:	e54080e7	jalr	ra, -428(ra)
  00016538:	00410113	addi	sp, sp, 4
  0001653c:	ffc10113	addi	sp, sp, -4
  00016540:	00a12023	sw	a0, 0(sp)
  00016544:	00410113	addi	sp, sp, 4
  00016548:	00040293	addi	t0, s0, 0
  0001654c:	ffc2a083	lw	ra, -4(t0)
  00016550:	ff82a403	lw	s0, -8(t0)
  00016554:	00028113	addi	sp, t0, 0
  00016558:	00008067	ret
  0001655c:	00040293	addi	t0, s0, 0
  00016560:	ffc2a083	lw	ra, -4(t0)
  00016564:	ff82a403	lw	s0, -8(t0)
  00016568:	00028113	addi	sp, t0, 0
  0001656c:	00008067	ret

00016570 <StringBuffer_new>:
  00016570:	fe010113	addi	sp, sp, -32
  00016574:	00112e23	sw	ra, 28(sp)
  00016578:	00812c23	sw	s0, 24(sp)
  0001657c:	02010413	addi	s0, sp, 32
  00016580:	07c00293	addi	t0, zero, 124
  00016584:	ffc10113	addi	sp, sp, -4
  00016588:	00512023	sw	t0, 0(sp)
  0001658c:	00012503	lw	a0, 0(sp)
  00016590:	ffffb097	auipc	ra, 0xffffb	# 0x11590
  00016594:	d94080e7	jalr	ra, -620(ra)
  00016598:	00410113	addi	sp, sp, 4
  0001659c:	ffc10113	addi	sp, sp, -4
  000165a0:	00a12023	sw	a0, 0(sp)
  000165a4:	00000293	addi	t0, zero, 0
  000165a8:	ffc10113	addi	sp, sp, -4
  000165ac:	00512023	sw	t0, 0(sp)
  000165b0:	00000293	addi	t0, zero, 0
  000165b4:	ffc10113	addi	sp, sp, -4
  000165b8:	00512023	sw	t0, 0(sp)
  000165bc:	00100293	addi	t0, zero, 1
  000165c0:	ffc10113	addi	sp, sp, -4
  000165c4:	00512023	sw	t0, 0(sp)
  000165c8:	00012303	lw	t1, 0(sp)
  000165cc:	00412283	lw	t0, 4(sp)
  000165d0:	00810113	addi	sp, sp, 8
  000165d4:	406282b3	sub	t0, t0, t1
  000165d8:	ffc10113	addi	sp, sp, -4
  000165dc:	00512023	sw	t0, 0(sp)
  000165e0:	00812503	lw	a0, 8(sp)
  000165e4:	00412583	lw	a1, 4(sp)
  000165e8:	00012603	lw	a2, 0(sp)
  000165ec:	00000097	auipc	ra, 0x0	# 0x165ec
  000165f0:	a2c080e7	jalr	ra, -1492(ra)
  000165f4:	00c10113	addi	sp, sp, 12
  000165f8:	ffc10113	addi	sp, sp, -4
  000165fc:	00a12023	sw	a0, 0(sp)
  00016600:	00012283	lw	t0, 0(sp)
  00016604:	00410113	addi	sp, sp, 4
  00016608:	00028513	addi	a0, t0, 0
  0001660c:	00040293	addi	t0, s0, 0
  00016610:	ffc2a083	lw	ra, -4(t0)
  00016614:	ff82a403	lw	s0, -8(t0)
  00016618:	00028113	addi	sp, t0, 0
  0001661c:	00008067	ret
  00016620:	00040293	addi	t0, s0, 0
  00016624:	ffc2a083	lw	ra, -4(t0)
  00016628:	ff82a403	lw	s0, -8(t0)
  0001662c:	00028113	addi	sp, t0, 0
  00016630:	00008067	ret

00016634 <StringBuffer_new__i32>:
  00016634:	fe010113	addi	sp, sp, -32
  00016638:	00112e23	sw	ra, 28(sp)
  0001663c:	00812c23	sw	s0, 24(sp)
  00016640:	02010413	addi	s0, sp, 32
  00016644:	fea42a23	sw	a0, -12(s0)
  00016648:	40000293	addi	t0, zero, 1024
  0001664c:	ffc10113	addi	sp, sp, -4
  00016650:	00512023	sw	t0, 0(sp)
  00016654:	00012503	lw	a0, 0(sp)
  00016658:	ffffb097	auipc	ra, 0xffffb	# 0x11658
  0001665c:	ccc080e7	jalr	ra, -820(ra)
  00016660:	00410113	addi	sp, sp, 4
  00016664:	ffc10113	addi	sp, sp, -4
  00016668:	00a12023	sw	a0, 0(sp)
  0001666c:	00000293	addi	t0, zero, 0
  00016670:	ffc10113	addi	sp, sp, -4
  00016674:	00512023	sw	t0, 0(sp)
  00016678:	ff442283	lw	t0, -12(s0)
  0001667c:	ffc10113	addi	sp, sp, -4
  00016680:	00512023	sw	t0, 0(sp)
  00016684:	00812503	lw	a0, 8(sp)
  00016688:	00412583	lw	a1, 4(sp)
  0001668c:	00012603	lw	a2, 0(sp)
  00016690:	00000097	auipc	ra, 0x0	# 0x16690
  00016694:	988080e7	jalr	ra, -1656(ra)
  00016698:	00c10113	addi	sp, sp, 12
  0001669c:	ffc10113	addi	sp, sp, -4
  000166a0:	00a12023	sw	a0, 0(sp)
  000166a4:	00012283	lw	t0, 0(sp)
  000166a8:	00410113	addi	sp, sp, 4
  000166ac:	00028513	addi	a0, t0, 0
  000166b0:	00040293	addi	t0, s0, 0
  000166b4:	ffc2a083	lw	ra, -4(t0)
  000166b8:	ff82a403	lw	s0, -8(t0)
  000166bc:	00028113	addi	sp, t0, 0
  000166c0:	00008067	ret
  000166c4:	00040293	addi	t0, s0, 0
  000166c8:	ffc2a083	lw	ra, -4(t0)
  000166cc:	ff82a403	lw	s0, -8(t0)
  000166d0:	00028113	addi	sp, t0, 0
  000166d4:	00008067	ret

000166d8 <destroy__StringBuffer>:
  000166d8:	ff010113	addi	sp, sp, -16
  000166dc:	00112623	sw	ra, 12(sp)
  000166e0:	00812423	sw	s0, 8(sp)
  000166e4:	01010413	addi	s0, sp, 16
  000166e8:	fea42a23	sw	a0, -12(s0)
  000166ec:	ff442283	lw	t0, -12(s0)
  000166f0:	ffc10113	addi	sp, sp, -4
  000166f4:	00512023	sw	t0, 0(sp)
  000166f8:	00012503	lw	a0, 0(sp)
  000166fc:	00000097	auipc	ra, 0x0	# 0x166fc
  00016700:	ab4080e7	jalr	ra, -1356(ra)
  00016704:	00410113	addi	sp, sp, 4
  00016708:	ffc10113	addi	sp, sp, -4
  0001670c:	00a12023	sw	a0, 0(sp)
  00016710:	00012503	lw	a0, 0(sp)
  00016714:	ffffd097	auipc	ra, 0xffffd	# 0x13714
  00016718:	b88080e7	jalr	ra, -1144(ra)
  0001671c:	00410113	addi	sp, sp, 4
  00016720:	ffc10113	addi	sp, sp, -4
  00016724:	00a12023	sw	a0, 0(sp)
  00016728:	00410113	addi	sp, sp, 4
  0001672c:	ff442283	lw	t0, -12(s0)
  00016730:	ffc10113	addi	sp, sp, -4
  00016734:	00512023	sw	t0, 0(sp)
  00016738:	00012503	lw	a0, 0(sp)
  0001673c:	00000097	auipc	ra, 0x0	# 0x1673c
  00016740:	dd0080e7	jalr	ra, -560(ra)
  00016744:	00410113	addi	sp, sp, 4
  00016748:	ffc10113	addi	sp, sp, -4
  0001674c:	00a12023	sw	a0, 0(sp)
  00016750:	00410113	addi	sp, sp, 4
  00016754:	00040293	addi	t0, s0, 0
  00016758:	ffc2a083	lw	ra, -4(t0)
  0001675c:	ff82a403	lw	s0, -8(t0)
  00016760:	00028113	addi	sp, t0, 0
  00016764:	00008067	ret
  00016768:	00040293	addi	t0, s0, 0
  0001676c:	ffc2a083	lw	ra, -4(t0)
  00016770:	ff82a403	lw	s0, -8(t0)
  00016774:	00028113	addi	sp, t0, 0
  00016778:	00008067	ret

0001677c <grow__StringBuffer>:
  0001677c:	fd010113	addi	sp, sp, -48
  00016780:	02112623	sw	ra, 44(sp)
  00016784:	02812423	sw	s0, 40(sp)
  00016788:	03010413	addi	s0, sp, 48
  0001678c:	fea42a23	sw	a0, -12(s0)
  00016790:	fe042823	sw	zero, -16(s0)
  00016794:	fe042623	sw	zero, -20(s0)
  00016798:	fe042423	sw	zero, -24(s0)
  0001679c:	fe042223	sw	zero, -28(s0)
  000167a0:	fe042023	sw	zero, -32(s0)
  000167a4:	ff442283	lw	t0, -12(s0)
  000167a8:	ffc10113	addi	sp, sp, -4
  000167ac:	00512023	sw	t0, 0(sp)
  000167b0:	00012503	lw	a0, 0(sp)
  000167b4:	00000097	auipc	ra, 0x0	# 0x167b4
  000167b8:	9fc080e7	jalr	ra, -1540(ra)
  000167bc:	00410113	addi	sp, sp, 4
  000167c0:	ffc10113	addi	sp, sp, -4
  000167c4:	00a12023	sw	a0, 0(sp)
  000167c8:	00012283	lw	t0, 0(sp)
  000167cc:	00410113	addi	sp, sp, 4
  000167d0:	fe542823	sw	t0, -16(s0)
  000167d4:	ff042283	lw	t0, -16(s0)
  000167d8:	ffc10113	addi	sp, sp, -4
  000167dc:	00512023	sw	t0, 0(sp)
  000167e0:	00012503	lw	a0, 0(sp)
  000167e4:	ffffb097	auipc	ra, 0xffffb	# 0x117e4
  000167e8:	f58080e7	jalr	ra, -168(ra)
  000167ec:	00410113	addi	sp, sp, 4
  000167f0:	ffc10113	addi	sp, sp, -4
  000167f4:	00a12023	sw	a0, 0(sp)
  000167f8:	00012283	lw	t0, 0(sp)
  000167fc:	00410113	addi	sp, sp, 4
  00016800:	fe542623	sw	t0, -20(s0)
  00016804:	fec42283	lw	t0, -20(s0)
  00016808:	ffc10113	addi	sp, sp, -4
  0001680c:	00512023	sw	t0, 0(sp)
  00016810:	00200293	addi	t0, zero, 2
  00016814:	ffc10113	addi	sp, sp, -4
  00016818:	00512023	sw	t0, 0(sp)
  0001681c:	00012303	lw	t1, 0(sp)
  00016820:	00412283	lw	t0, 4(sp)
  00016824:	00810113	addi	sp, sp, 8
  00016828:	026282b3	mul	t0, t0, t1
  0001682c:	ffc10113	addi	sp, sp, -4
  00016830:	00512023	sw	t0, 0(sp)
  00016834:	00012283	lw	t0, 0(sp)
  00016838:	00410113	addi	sp, sp, 4
  0001683c:	fe542423	sw	t0, -24(s0)
  00016840:	fe842283	lw	t0, -24(s0)
  00016844:	ffc10113	addi	sp, sp, -4
  00016848:	00512023	sw	t0, 0(sp)
  0001684c:	00012503	lw	a0, 0(sp)
  00016850:	ffffb097	auipc	ra, 0xffffb	# 0x11850
  00016854:	ad4080e7	jalr	ra, -1324(ra)
  00016858:	00410113	addi	sp, sp, 4
  0001685c:	ffc10113	addi	sp, sp, -4
  00016860:	00a12023	sw	a0, 0(sp)
  00016864:	00012283	lw	t0, 0(sp)
  00016868:	00410113	addi	sp, sp, 4
  0001686c:	fe542223	sw	t0, -28(s0)
  00016870:	00000293	addi	t0, zero, 0
  00016874:	ffc10113	addi	sp, sp, -4
  00016878:	00512023	sw	t0, 0(sp)
  0001687c:	00012283	lw	t0, 0(sp)
  00016880:	00410113	addi	sp, sp, 4
  00016884:	fe542023	sw	t0, -32(s0)

00016888 <.L_f82_pc15>:
  00016888:	fe042283	lw	t0, -32(s0)
  0001688c:	ffc10113	addi	sp, sp, -4
  00016890:	00512023	sw	t0, 0(sp)
  00016894:	fec42283	lw	t0, -20(s0)
  00016898:	ffc10113	addi	sp, sp, -4
  0001689c:	00512023	sw	t0, 0(sp)
  000168a0:	00012303	lw	t1, 0(sp)
  000168a4:	00412283	lw	t0, 4(sp)
  000168a8:	00810113	addi	sp, sp, 8
  000168ac:	0062a2b3	slt	t0, t0, t1
  000168b0:	ffc10113	addi	sp, sp, -4
  000168b4:	00512023	sw	t0, 0(sp)
  000168b8:	00012283	lw	t0, 0(sp)
  000168bc:	00410113	addi	sp, sp, 4
  000168c0:	0a028a63	beq	t0, zero, 0x16974
  000168c4:	fe442283	lw	t0, -28(s0)
  000168c8:	ffc10113	addi	sp, sp, -4
  000168cc:	00512023	sw	t0, 0(sp)
  000168d0:	fe042283	lw	t0, -32(s0)
  000168d4:	ffc10113	addi	sp, sp, -4
  000168d8:	00512023	sw	t0, 0(sp)
  000168dc:	ff042283	lw	t0, -16(s0)
  000168e0:	ffc10113	addi	sp, sp, -4
  000168e4:	00512023	sw	t0, 0(sp)
  000168e8:	fe042283	lw	t0, -32(s0)
  000168ec:	ffc10113	addi	sp, sp, -4
  000168f0:	00512023	sw	t0, 0(sp)
  000168f4:	00412503	lw	a0, 4(sp)
  000168f8:	00012583	lw	a1, 0(sp)
  000168fc:	ffffb097	auipc	ra, 0xffffb	# 0x118fc
  00016900:	788080e7	jalr	ra, 1928(ra)
  00016904:	00810113	addi	sp, sp, 8
  00016908:	ffc10113	addi	sp, sp, -4
  0001690c:	00a12023	sw	a0, 0(sp)
  00016910:	00812503	lw	a0, 8(sp)
  00016914:	00412583	lw	a1, 4(sp)
  00016918:	00012603	lw	a2, 0(sp)
  0001691c:	ffffc097	auipc	ra, 0xffffc	# 0x1291c
  00016920:	048080e7	jalr	ra, 72(ra)
  00016924:	00c10113	addi	sp, sp, 12
  00016928:	ffc10113	addi	sp, sp, -4
  0001692c:	00a12023	sw	a0, 0(sp)
  00016930:	00410113	addi	sp, sp, 4
  00016934:	fe042283	lw	t0, -32(s0)
  00016938:	ffc10113	addi	sp, sp, -4
  0001693c:	00512023	sw	t0, 0(sp)
  00016940:	00100293	addi	t0, zero, 1
  00016944:	ffc10113	addi	sp, sp, -4
  00016948:	00512023	sw	t0, 0(sp)
  0001694c:	00012303	lw	t1, 0(sp)
  00016950:	00412283	lw	t0, 4(sp)
  00016954:	00810113	addi	sp, sp, 8
  00016958:	006282b3	add	t0, t0, t1
  0001695c:	ffc10113	addi	sp, sp, -4
  00016960:	00512023	sw	t0, 0(sp)
  00016964:	00012283	lw	t0, 0(sp)
  00016968:	00410113	addi	sp, sp, 4
  0001696c:	fe542023	sw	t0, -32(s0)
  00016970:	f19ff06f	jal	zero, 0x16888 <.L_f82_pc15>

00016974 <.L_f82_pc31>:
  00016974:	ff442283	lw	t0, -12(s0)
  00016978:	ffc10113	addi	sp, sp, -4
  0001697c:	00512023	sw	t0, 0(sp)
  00016980:	fe442283	lw	t0, -28(s0)
  00016984:	ffc10113	addi	sp, sp, -4
  00016988:	00512023	sw	t0, 0(sp)
  0001698c:	00412503	lw	a0, 4(sp)
  00016990:	00012583	lw	a1, 0(sp)
  00016994:	00000097	auipc	ra, 0x0	# 0x16994
  00016998:	9b0080e7	jalr	ra, -1616(ra)
  0001699c:	00810113	addi	sp, sp, 8
  000169a0:	ffc10113	addi	sp, sp, -4
  000169a4:	00a12023	sw	a0, 0(sp)
  000169a8:	00410113	addi	sp, sp, 4
  000169ac:	ff042283	lw	t0, -16(s0)
  000169b0:	ffc10113	addi	sp, sp, -4
  000169b4:	00512023	sw	t0, 0(sp)
  000169b8:	00012503	lw	a0, 0(sp)
  000169bc:	ffffd097	auipc	ra, 0xffffd	# 0x139bc
  000169c0:	8e0080e7	jalr	ra, -1824(ra)
  000169c4:	00410113	addi	sp, sp, 4
  000169c8:	ffc10113	addi	sp, sp, -4
  000169cc:	00a12023	sw	a0, 0(sp)
  000169d0:	00410113	addi	sp, sp, 4
  000169d4:	00040293	addi	t0, s0, 0
  000169d8:	ffc2a083	lw	ra, -4(t0)
  000169dc:	ff82a403	lw	s0, -8(t0)
  000169e0:	00028113	addi	sp, t0, 0
  000169e4:	00008067	ret
  000169e8:	00040293	addi	t0, s0, 0
  000169ec:	ffc2a083	lw	ra, -4(t0)
  000169f0:	ff82a403	lw	s0, -8(t0)
  000169f4:	00028113	addi	sp, t0, 0
  000169f8:	00008067	ret

000169fc <emit_char__StringBuffer__u8>:
  000169fc:	fe010113	addi	sp, sp, -32
  00016a00:	00112e23	sw	ra, 28(sp)
  00016a04:	00812c23	sw	s0, 24(sp)
  00016a08:	02010413	addi	s0, sp, 32
  00016a0c:	fea42a23	sw	a0, -12(s0)
  00016a10:	feb42823	sw	a1, -16(s0)
  00016a14:	ff442283	lw	t0, -12(s0)
  00016a18:	ffc10113	addi	sp, sp, -4
  00016a1c:	00512023	sw	t0, 0(sp)
  00016a20:	00012503	lw	a0, 0(sp)
  00016a24:	00000097	auipc	ra, 0x0	# 0x16a24
  00016a28:	808080e7	jalr	ra, -2040(ra)
  00016a2c:	00410113	addi	sp, sp, 4
  00016a30:	ffc10113	addi	sp, sp, -4
  00016a34:	00a12023	sw	a0, 0(sp)
  00016a38:	ff442283	lw	t0, -12(s0)
  00016a3c:	ffc10113	addi	sp, sp, -4
  00016a40:	00512023	sw	t0, 0(sp)
  00016a44:	00012503	lw	a0, 0(sp)
  00016a48:	fffff097	auipc	ra, 0xfffff	# 0x15a48
  00016a4c:	768080e7	jalr	ra, 1896(ra)
  00016a50:	00410113	addi	sp, sp, 4
  00016a54:	ffc10113	addi	sp, sp, -4
  00016a58:	00a12023	sw	a0, 0(sp)
  00016a5c:	00012503	lw	a0, 0(sp)
  00016a60:	ffffb097	auipc	ra, 0xffffb	# 0x11a60
  00016a64:	cdc080e7	jalr	ra, -804(ra)
  00016a68:	00410113	addi	sp, sp, 4
  00016a6c:	ffc10113	addi	sp, sp, -4
  00016a70:	00a12023	sw	a0, 0(sp)
  00016a74:	00012303	lw	t1, 0(sp)
  00016a78:	00412283	lw	t0, 4(sp)
  00016a7c:	00810113	addi	sp, sp, 8
  00016a80:	0062a2b3	slt	t0, t0, t1
  00016a84:	0012c293	xori	t0, t0, 1
  00016a88:	ffc10113	addi	sp, sp, -4
  00016a8c:	00512023	sw	t0, 0(sp)
  00016a90:	00012283	lw	t0, 0(sp)
  00016a94:	00410113	addi	sp, sp, 4
  00016a98:	14028863	beq	t0, zero, 0x16be8
  00016a9c:	ff442283	lw	t0, -12(s0)
  00016aa0:	ffc10113	addi	sp, sp, -4
  00016aa4:	00512023	sw	t0, 0(sp)
  00016aa8:	00012503	lw	a0, 0(sp)
  00016aac:	00000097	auipc	ra, 0x0	# 0x16aac
  00016ab0:	80c080e7	jalr	ra, -2036(ra)
  00016ab4:	00410113	addi	sp, sp, 4
  00016ab8:	ffc10113	addi	sp, sp, -4
  00016abc:	00a12023	sw	a0, 0(sp)
  00016ac0:	00000293	addi	t0, zero, 0
  00016ac4:	ffc10113	addi	sp, sp, -4
